
/tmp/TP2_exe:     file format elf32-littlearm

SYMBOL TABLE:
001ffff0 l    d  .header	00000000 .header
00200000 l    d  .vectors	00000000 .vectors
00200040 l    d  .entry	00000000 .entry
00200080 l    d  ostext	00000000 ostext
002032fc l    d  osconst	00000000 osconst
0020360c l    d  osvars	00000000 osvars
00205610 l    d  apptext	00000000 apptext
00205870 l    d  procstack	00000000 procstack
0020661c l    d  text_garbage	00000000 text_garbage
0020bac0 l    d  .data	00000000 .data
0020c3c0 l    d  .bss	00000000 .bss
0020ccc0 l    d  garbage	00000000 garbage
00000000 l    d  .ARM.attributes	00000000 .ARM.attributes
0020ce48 l    d  .comment	00000000 .comment
00000000 l    d  .debug_frame	00000000 .debug_frame
00000000 l    d  .debug_line	00000000 .debug_line
00000000 l    d  .debug_info	00000000 .debug_info
00000000 l    d  .debug_abbrev	00000000 .debug_abbrev
00000000 l    d  .debug_aranges	00000000 .debug_aranges
001ffff0 l       .header	00000000 NXT_Binary_Header
00200004 l       .vectors	00000000 Vec_undefinedInstruction
00200008 l       .vectors	00000000 Vec_softwareInterrupt
0020000c l       .vectors	00000000 Vec_prefetchAbort
00200010 l       .vectors	00000000 Vec_dataAbort
00200014 l       .vectors	00000000 Vec_unused
00200018 l       .vectors	00000000 Vec_interruptRequest
0020001c l       .vectors	00000000 Vec_fastInterruptRequest
00200054 l       .entry	00000000 Copier
0020006c l       .entry	00000000 CopierCompare
00200064 l       .entry	00000000 CopierLoop
00200074 l       .entry	00000000 JumpToResetVector
00000000 l    df *ABS*	00000000 tpl_os_alarm_kernel.c
00000000 l    df *ABS*	00000000 tpl_os_event_kernel.c
00000000 l    df *ABS*	00000000 tpl_os_it_kernel.c
00203620 l     O osvars	00000004 tpl_it_nesting
00200ce4 l     F ostext	000000a4 tpl_activate_isr
00000000 l    df *ABS*	00000000 tpl_os_rez_kernel.c
00000000 l    df *ABS*	00000000 tpl_os_task_kernel.c
00000000 l    df *ABS*	00000000 tpl_os_timeobj_kernel.c
0020362c l     O osvars	00000001 tpl_counters_enabled
002019b0 l     F ostext	00000154 tpl_remove_timeobj_set
00000000 l    df *ABS*	00000000 tpl_os_kernel.c
00203630 l     O osvars	00000001 application_mode
00201cd4 l     F ostext	00000190 tpl_get_proc
00000000 l    df *ABS*	00000000 tpl_os_action.c
00000000 l    df *ABS*	00000000 tpl_machine_arm_generic.c
00202dd4 l       ostext	00000000 irq_no_context_switch
00202d54 l       ostext	00000000 context_switch_irq
00202d9c l       ostext	00000000 skip_save_context_irq
00202da0 l       ostext	00000000 load_context_irq
00202dcc l       ostext	00000000 flush_pipeline
00202e28 l       ostext	00000000 skip_kernel_enter
00202ef0 l       ostext	00000000 invalid_service_id
00202ef0 l       ostext	00000000 swi_no_context_switch_exit
00202f00 l       ostext	00000000 swi_skip_kernel_exit
00202e78 l       ostext	00000000 context_switch_swi
00202eb8 l       ostext	00000000 skip_save_context_swi
00202e88 l       ostext	00000000 save_context_swi
00202ebc l       ostext	00000000 load_context_swi
00202ee8 l       ostext	00000000 flush_pipeline
00000000 l    df *ABS*	00000000 nxt_tpl_stubs.c
00000000 l    df *ABS*	00000000 nxt_irq.c
00000001 l       *ABS*	00000000 prefetch_abort
00000002 l       *ABS*	00000000 data_abort
00000003 l       *ABS*	00000000 undefined_instruction
00000004 l       *ABS*	00000000 unused
00203178 l       ostext	00000000 never_get_here
00000000 l    df *ABS*	00000000 tpl_app_config.c
00000000 l    df *ABS*	00000000 tpl_dispatch_table.c
00000000 l    df *ABS*	00000000 tpl_os.c
00000000 l    df *ABS*	00000000 TP2.c
00000000 l    df *ABS*	00000000 nxt_exception_catch.c
00000000 l    df *ABS*	00000000 ecrobot_interface.c
0020bad4 l     O .data	00000001 deviceStatus
0020bad8 l     O .data	00000010 distance_state
00206d58 l     F text_garbage	0000006c getDistance
0020bae8 l     O .data	00000004 data.2576
0020c3d4 l     O .bss	00000008 ecrobot_inputs
0020c3dc l     O .bss	00000014 buttons_states
0020c3f0 l     O .bss	00000004 buttons_i
00000000 l    df *ABS*	00000000 ecrobot_bluetooth.c
0020baec l     O .data	00000001 bt_status
0020c3f4 l     O .bss	00000001 handle
0020c3f8 l     O .bss	000000fe sendBuf
002071b8 l     F text_garbage	000000f8 send_bt_command
00000000 l    df *ABS*	00000000 flash_loader.c
00000000 l    df *ABS*	00000000 aic.c
00000000 l    df *ABS*	00000000 nxt_avr.c
0020c4f8 l     O .bss	00000008 io_to_avr
0020c500 l     O .bss	00000009 data_to_avr
0020c50c l     O .bss	0000001a data_from_avr
0020c528 l     O .bss	00000004 io_from_avr
0020c52c l     O .bss	00000004 from_buf
0020c530 l     O .bss	00000002 prev_buttons
0020c532 l     O .bss	00000002 button_state
0020c534 l     O .bss	00000002 debounce_state
0020c536 l     O .bss	00000002 debounce_cnt
002075c0 l     F text_garbage	00000048 nxt_avr_start_read
00207608 l     F text_garbage	000000b8 nxt_avr_start_send
0020c538 l     O .bss	00000014 nxt_avr_stats
00207720 l     F text_garbage	00000280 nxt_avr_unpack
0020c54c l     O .bss	00000004 update_count
0020c550 l     O .bss	00000004 link_state
00000000 l    df *ABS*	00000000 i2c.c
0020c0f8 l     O .data	00000020 i2c_pin
0020c554 l     O .bss	00000170 i2c_port
0020c6c4 l     O .bss	00000004 i2c_int_count
00000000 l    df *ABS*	00000000 systick.c
0020c6c8 l     O .bss	00000004 systick_ms
00000000 l    df *ABS*	00000000 nxt_motors.c
0020c6cc l     O .bss	00000030 motor
0020c6fc l     O .bss	00000004 nxt_motor_initialised
0020c700 l     O .bss	00000004 interrupts_this_period
00000000 l    df *ABS*	00000000 bt.c
0020c704 l     O .bss	00000001 in_buf_in_ptr
0020c705 l     O .bss	00000001 out_buf_ptr
0020c708 l     O .bss	00000200 out_buf
0020c908 l     O .bss	00000004 buf_ptr
0020c90c l     O .bss	00000004 in_buf_idx
00000000 l    df *ABS*	00000000 display.c
0020c918 l     O .bss	00000388 display_array
0020baf0 l     O .data	00000004 display_buffer
0020c118 l     O .data	00000280 font
00209ff4 l     F text_garbage	00000178 display_unsigned_worker
00000000 l    df *ABS*	00000000 sensors.c
0020c3a8 l     O .data	00000010 C.2.2518
0020c398 l     O .data	00000010 C.0.2480
00000000 l    df *ABS*	00000000 twi.c
0020cca4 l     O .bss	00000004 twi_state
0020cca8 l     O .bss	00000004 twi_pending
0020ccac l     O .bss	00000004 twi_ptr
0020ccb0 l     O .bss	00000004 twi_mask
00000000 l    df *ABS*	00000000 nxt_lcd.c
0020ccb4 l     O .bss	00000004 display
00000000 l    df *ABS*	00000000 nxt_spi.c
0020ae1c l     F text_garbage	000000b8 spi_set_mode
00000000 l    df *ABS*	00000000 buttons.c
00000000 l    df *ABS*	00000000 memcpy.c
00000000 l    df *ABS*	00000000 memset.c
00000000 l    df *ABS*	00000000 rand.c
00000000 l    df *ABS*	00000000 strlen.c
00000000 l    df *ABS*	00000000 impure.c
0020bb00 l     O .data	00000424 impure_data
0020ccbc g     O .bss	00000001 dirty
00203194 g     F ostext	00000094 tpl_tick_it_timer1
0020aed4 g     F text_garbage	000000f8 spi_isr_C_function
00201658 g     F ostext	000000a4 tpl_get_task_state_service
00205624 g       apptext	00000000 TerminateTask
0020582c g       apptext	00000000 CallTerminateISR2
002032fc g     O osconst	00000070 tpl_dispatch_table
002074e8 g     F text_garbage	00000048 aic_mask_on
00200080 g       *ABS*	00000000 __ramtext_load_start__
0020586f g       procstack	00000000 __SEG_END_Task_Detection_distance_VAR_RGN
0020586f g       procstack	00000000 __SEG_END_Task_Detection_contact_VAR_RGN
00209f14 g     F text_garbage	000000e0 display_hex
00205e4c g     O procstack	000001f4 isr_button_left_stack_zone
00206640 g     F text_garbage	00000018 isr_button_start_function
0020ab70 g     F text_garbage	00000040 nxt_lcd_set_page_address
0020328c g     F ostext	00000010 tpl_interrupt_source_12
00200b44 g     F ostext	00000030 tpl_enable_all_interrupts_service
002076f0 g     F text_garbage	00000030 nxt_avr_link_init
00200000 g       .vectors	00000000 Vec_reset
00209880 g     F text_garbage	0000030c bt_init
00207578 g     F text_garbage	00000048 aic_clear
002057a0 g       apptext	00000000 SetRelAlarm
0020bac0 g       *ABS*	00000000 __data_load_start__
0020586f g       procstack	00000000 __SEG_END_Task_Navigation_VAR_RGN
00200474 g     F ostext	00000174 tpl_set_abs_alarm_service
0020a4ec g     F text_garbage	00000050 twi_status
0020bac8 g     O .data	00000004 ordre
0020a28c g     F text_garbage	000000c8 init_sensors
002035c0 g     O osconst	00000008 AlarmDistance_action
00205728 g       apptext	00000000 SetEvent
0020642f g       procstack	00000000 __SEG_END_ISR_isr_button_start_STACK_RGN
002035e8 g     O osconst	0000000c tpl_alarm_table
00203610 g     O osvars	00000001 tpl_user_task_lock
0020586f g       procstack	00000000 __SEG_STOP_APP_CODE_CONST_RGN
00205870 g       procstack	00000000 __SEG_START_Task_Detection_contact_STACK_RGN
0020586f g       procstack	00000000 __SEG_END_ISR_isr_button_left_VAR_RGN
00205e4c g       procstack	00000000 __SEG_START_ISR_isr_button_left_STACK_RGN
00209698 g     F text_garbage	000001e8 bt_isr_C_function
00202a0c g     F ostext	00000058 tpl_call_terminate_task_service
0020b3bc g     F text_garbage	00000054 nxt_spi_refresh
00208824 g     F text_garbage	0000008c i2c_disable
0020ab38 g     F text_garbage	00000038 nxt_lcd_set_multiplex_rate
00203040 g     F ostext	00000014 tpl_arm_subarch_fiq_handler
002056c4 g       apptext	00000000 SuspendAllInterrupts
00202f1c g       ostext	00000000 tpl_sleep
00202934 g     F ostext	00000058 tpl_get_active_application_mode_service
00205c5f g       procstack	00000000 __SEG_END_Task_Detection_distance_STACK_RGN
0020378c g     O osvars	00000044 Detection_contact_int_context
002067a8 g     F text_garbage	00000290 Navigation_function
00203868 g     O osvars	00000008 Navigation_task_desc
00205674 g       apptext	00000000 GetTaskState
00203a00 g     O osvars	0000000c tpl_fifo_rw
00207bf8 g     F text_garbage	00000094 battery_voltage
00203824 g     O osvars	00000044 Navigation_int_context
0020baf4 g     O .data	00000004 display_auto_update
002038bc g     O osvars	00000044 isr_button_right_int_context
0020a914 g     F text_garbage	000000bc twi_start_read
002037d0 g     O osvars	00000008 Detection_contact_task_desc
0020578c g       apptext	00000000 GetAlarm
00206a38 g     F text_garbage	0000006c PreTaskHook
00203724 g     O osvars	00000044 idle_task_context
00202b54 g     F ostext	00000054 tpl_action_setevent
00203e0c g       osvars	00000000 fiq_stack_top
00200000 g       .vectors	00000000 __vectors_ram_start__
00200ecc g     F ostext	000000cc tpl_release_all_resources
00203388 g     O osconst	00000004 tpl_resource_table
0020603f g       procstack	00000000 __SEG_END_ISR_isr_button_left_STACK_RGN
00205e4f g       procstack	00000000 __SEG_END_Task_Navigation_STACK_RGN
00202bf4 g     F ostext	00000020 tpl_enable_interrupts
0020573c g       apptext	00000000 ClearEvent
002033bc g     O osconst	00000018 Navigation_task_stat_desc
002039a0 g     O osvars	00000018 AlarmContact_alarm_desc
00202188 g     F ostext	00000094 tpl_get_internal_resource
00208ecc g     F text_garbage	00000058 systick_isr_C_function
00209e6c g     F text_garbage	000000a8 display_string
00207a50 g     F text_garbage	00000184 nxt_avr_1kHz_update
00206040 g     O procstack	000001f4 isr_button_right_stack_zone
002039e8 g     O osvars	00000001 tpl_priority_0_fifo
0020abe0 g     F text_garbage	00000040 nxt_lcd_set_ram_address_control
00202298 g     F ostext	00000168 tpl_schedule_from_running
002039b8 g     O osvars	00000018 AlarmDistance_alarm_desc
00206aa4 g     F text_garbage	00000014 PostTaskHook
0020b574 g     F text_garbage	000001ec memcpy
002027e8 g     F ostext	00000064 tpl_init_proc
00000000         *UND*	00000000 sound_get_time
002027b0 g     F ostext	00000038 tpl_set_event
002057f0 g       apptext	00000000 tpl_start_os
0020ce46 g       *ABS*	00000000 __data_load_end__
0020c3c8 g     O .bss	00000004 exception_catch_pc
002016fc g     F ostext	00000024 tpl_enable_counters
00200afc g     F ostext	00000048 tpl_disable_all_interrupts_service
0020284c g     F ostext	000000e8 tpl_init_os
00202c14 g     F ostext	0000002c tpl_disable_interrupts
00202bcc g     F ostext	00000014 tpl_get_task_lock
00203464 g     O osconst	000000f8 tpl_it_vector
00202f20 g     F ostext	0000003c tpl_init_machine
002037d8 g     O osvars	00000044 Detection_distance_int_context
002030fc g       ostext	00000000 primary_unused_handler
0020ad68 g     F text_garbage	00000010 nxt_lcd_update
00206234 g       procstack	00000000 __SEG_START_ISR_isr_button_start_STACK_RGN
002015bc g     F ostext	0000009c tpl_get_task_id_service
00205700 g       apptext	00000000 GetResource
0020ce40 g     O garbage	00000004 display_x
00203228 g     F ostext	00000014 tpl_interrupt_source_1
00010000 g       *ABS*	00000000 RAM_SIZE
00200000 g       *ABS*	00000000 RAM_BASE
002035c8 g     O osconst	0000000c AlarmDistance_static
00206040 g       procstack	00000000 __SEG_START_ISR_isr_button_right_STACK_RGN
0020069c g     F ostext	000000d8 tpl_set_event_service
0020946c g     F text_garbage	00000114 nxt_motor_isr_C_function
0020a890 g     F text_garbage	00000084 twi_init
00205610 g       apptext	00000000 __SEG_START_APP_CODE_CONST_RGN
00208b9c g     F text_garbage	0000030c i2c_start_transaction
00205870 g       procstack	00000000 __SEG_START_Task_Detection_distance_VAR_RGN
0020365c g     O osvars	000000c8 idle_stack
00209c50 g     F text_garbage	00000024 bt_clear_arm7_cmd
0020564c g       apptext	00000000 Schedule
00205a64 g       procstack	00000000 __SEG_START_Task_Detection_distance_STACK_RGN
0020b464 g     F text_garbage	00000110 check_buttons_status_function
00201e64 g     F ostext	0000013c tpl_put_preempted_proc
002035d4 g     O osconst	00000008 AlarmNavigation_action
0020c910 g     O .bss	00000001 bt_state
00203440 g     O osconst	00000018 isr_button_stop_isr_stat_desc
002039f4 g     O osvars	0000000c tpl_priority_2_fifo
002072b0 g     F text_garbage	00000028 ecrobot_get_bt_status
0020a198 g     F text_garbage	00000044 display_int
00206fa8 g     F text_garbage	00000210 ecrobot_status_monitor
00209d28 g     F text_garbage	00000144 display_char
00206eb4 g     F text_garbage	000000f4 ecrobot_poll_nxtstate
00203870 g     O osvars	00000044 isr_button_left_int_context
0020560c g       osvars	00000000 usr_stack_bottom
0020394c g     O osvars	00000008 isr_button_start_isr_desc
002057dc g       apptext	00000000 GetActiveApplicationMode
002056b0 g       apptext	00000000 ResumeAllInterrupts
00200c14 g     F ostext	000000b4 tpl_terminate_isr2_service
0020c0c4 g     O .data	00000004 _global_impure_ptr
0020326c g     F ostext	00000010 tpl_interrupt_source_9
0020341c g     O osconst	00000018 isr_button_start_isr_stat_desc
00206e90 g     F text_garbage	00000024 ecrobot_get_button_state
0020ccb8 g     O .bss	00000004 display
0020adec g     F text_garbage	00000030 nxt_lcd_init
002002b0 g     F ostext	000001c4 tpl_set_rel_alarm_service
0020ac20 g     F text_garbage	00000038 nxt_lcd_enable
00206ab8 g     F text_garbage	00000068 StartupHook
00206658 g     F text_garbage	00000014 isr_button_stop_function
0020b2c4 g     F text_garbage	000000bc nxt_spi_write
00200040 g       *ABS*	00000000 __vectors_ram_end__
0020bac4 g     O .data	00000004 distance
00205610 g       apptext	00000000 ActivateTask
0020355c g     O osconst	00000020 tpl_stat_proc_table
00000000         *UND*	00000000 __dtor_begin
00206738 g     F text_garbage	00000070 Detection_distance_function
0020c3d0 g     O .bss	00000004 exception_catch_id
00203654 g     O osvars	00000001 tpl_h_prio
00202cec g     F ostext	00000030 tpl_check_stack_footprint
00209c74 g     F text_garbage	00000020 display_update
00205660 g       apptext	00000000 GetTaskID
00201fa0 g     F ostext	0000014c tpl_put_new_proc
002056ec g       apptext	00000000 SuspendOSInterrupts
0020ac58 g     F text_garbage	00000044 nxt_lcd_set_map_control
002020ec g     F ostext	0000009c tpl_current_os_state
00205a6f g       procstack	00000000 __SEG_END_Task_Detection_contact_STACK_RGN
00202f5c g     F ostext	00000048 tpl_shutdown
00208b1c g     F text_garbage	00000080 i2c_busy
0020520c g       osvars	00000000 und_stack_bottom
00208f94 g     F text_garbage	00000048 systick_wait_ns
002032ec g     F ostext	00000010 tpl_interrupt_source_30
0020420c g       osvars	00000000 fiq_stack_bottom
0020a9d0 g     F text_garbage	000000e0 twi_start_write
00202fa4 g     F ostext	0000009c tpl_arm_subarch_irq_handler
00202a64 g     F ostext	00000078 tpl_call_terminate_isr2_service
002014e8 g     F ostext	000000d4 tpl_schedule_service
00209ce8 g     F text_garbage	00000040 display_goto_xy
0020b410 g     F text_garbage	00000054 InitButtons
00206d00 g     F text_garbage	00000058 ecrobot_init_i2c
0020329c g     F ostext	00000014 tpl_interrupt_source_15
00207c8c g     F text_garbage	0000006c sensor_adc
00200bb4 g     F ostext	00000060 tpl_resume_os_interrupts_service
00207bd4 g     F text_garbage	00000024 buttons_get
002079a0 g     F text_garbage	000000b0 nxt_avr_init
00205870 g       procstack	00000000 __SEG_START_ISR_isr_button_left_VAR_RGN
00203458 g     O osconst	0000000c isr_button_stop_isr_helper
00203370 g     O osconst	00000018 idle_task_static
0020ce48 g       *ABS*	00000000 __data_ram_end__
0020420c g       osvars	00000000 svc_stack_top
00206b20 g     F text_garbage	00000100 exception_catch_display
00209c94 g     F text_garbage	00000010 display_force_update
0020338c g     O osconst	00000018 Detection_contact_task_stat_desc
002026f0 g     F ostext	000000c0 tpl_activate_task
00000000         *UND*	00000000 __ctor_begin
00000000         *UND*	00000000 sound_play_sample
00202df4 g       ostext	00000000 tpl_primary_syscall_handler
00206c78 g       text_garbage	00000000 fiq_enable
002057c8 g       apptext	00000000 CancelAlarm
00206c20 g       text_garbage	00000000 interrupts_get_and_disable
0020bafc g     O .data	00000001 mode
00207530 g     F text_garbage	00000048 aic_mask_off
002005e8 g     F ostext	000000b4 tpl_cancel_alarm_service
0020336d g     O osconst	00000001 INVALID_TASK
002090f0 g     F text_garbage	000000a8 nxt_motor_set_speed
0020bac0 g     O .data	00000004 mutexDist
0020a420 g     F text_garbage	000000cc unset_digi1
0020cca0 g     O .bss	00000004 display_tick
00202ba8 g     F ostext	00000024 tpl_init_machine_generic
0020c914 g     O .bss	00000001 bt_frame_received
0020acb0 g     F text_garbage	00000040 nxt_lcd_set_bias_ratio
0020669c g     F text_garbage	0000009c Detection_contact_function
00209198 g     F text_garbage	00000130 nxt_motor_1kHz_process
0020c0c8 g     O .data	00000030 avr_brainwash_string
00207dbc g     F text_garbage	000000d4 nxt_avr_set_input_power
002032d8 g     F ostext	00000014 tpl_interrupt_source_18
0020aae8 g     F text_garbage	00000050 nxt_lcd_set_col
00200cc8 g     F ostext	0000001c tpl_null_it
0020b9bc g     F text_garbage	00000098 rand
00202658 g     F ostext	00000098 tpl_start_scheduling
002039d0 g     O osvars	00000018 AlarmNavigation_alarm_desc
00202548 g     F ostext	00000110 tpl_schedule_from_waiting
0020ad78 g     F text_garbage	00000064 nxt_lcd_power_up
0020221c g     F ostext	0000007c tpl_release_internal_resource
0020327c g     F ostext	00000010 tpl_interrupt_source_10
00200080 g       ostext	00000000 __ramtext_ram_start__
00208f48 g     F text_garbage	0000004c systick_wait_ms
00208fdc g     F text_garbage	00000090 systick_init
00000000         *UND*	00000000 __dtor_end
00200774 g     F ostext	00000090 tpl_clear_event_service
00201310 g     F ostext	000000b4 tpl_terminate_task_service
00203768 g     O osvars	00000004 nested_kernel_entrance_counter
002013c4 g     F ostext	00000124 tpl_chain_task_service
0020360c g     O osvars	00000004 tpl_locking_depth
0020298c g     F ostext	00000060 tpl_start_os_service
00201124 g     F ostext	0000014c tpl_release_resource_service
0020ccc0 g     O garbage	00000100 in_buf
00203134 g       ostext	00000000 tpl_primary_fiq_handler
002000dc g     F ostext	000000d0 tpl_get_alarm_base_service
00200f98 g     F ostext	0000018c tpl_get_resource_service
002035f4 g     O osconst	00000018 tpl_ready_list
00203634 g     O osvars	00000008 idle_task
00202be0 g     F ostext	00000014 tpl_release_task_lock
0020359c g     O osconst	00000010 tpl_isr_stat_table
002032c4 g     F ostext	00000014 tpl_interrupt_source_17
00203900 g     O osvars	00000008 isr_button_right_isr_desc
0020bad0 g     O .data	00000004 gauche
0020afcc g     F text_garbage	000002f8 nxt_spi_init
00205750 g       apptext	00000000 GetEvent
0020c3c0 g     O .bss	00000004 compteur
00203998 g     O osvars	00000008 isr_button_stop_isr_desc
00205804 g       apptext	00000000 ShutdownOS
002035dc g     O osconst	0000000c AlarmNavigation_static
00200a00 g     F ostext	0000005c tpl_reset_interrupt_lock_status
00205c58 g     O procstack	000001f4 Navigation_stack_zone
0020a728 g     F text_garbage	00000168 twi_reset
00204a0c g       osvars	00000000 svc_stack_bottom
00202d1c g       ostext	00000000 tpl_primary_irq_handler
002008d8 g     F ostext	000000b8 tpl_wait_event_service
00000000         *UND*	00000000 __ctor_end
002033a4 g     O osconst	00000018 Detection_distance_task_stat_desc
0020bac0 g       .data	00000000 __data_ram_start__
0020361c g     O osvars	00000004 tpl_cpt_os_task_lock
0020c3c4 g     O .bss	00000001 check_buttons_period
00206428 g     O procstack	000001f4 isr_button_stop_stack_zone
002033d4 g     O osconst	00000018 isr_button_left_isr_stat_desc
0020c3cc g     O .bss	00000004 saved_psr
0020586f g       procstack	00000000 __SEG_END_ISR_isr_button_stop_VAR_RGN
0020baf8 g     O .data	00000004 data
00202b0c g     F ostext	00000048 tpl_action_activate_task
0020a354 g     F text_garbage	000000cc unset_digi0
0020b760 g     F text_garbage	00000224 memset
0020661c g     F text_garbage	00000024 main
002030c4 g       ostext	00000000 primary_data_abort_handler
00206684 g     F text_garbage	00000018 isr_button_right_function
0020b984 g     F text_garbage	00000038 srand
0020381c g     O osvars	00000008 Detection_distance_task_desc
00201270 g     F ostext	000000a0 tpl_activate_task_service
00209b8c g     F text_garbage	000000c4 bt_send
002001ac g     F ostext	00000104 tpl_get_alarm_service
002029ec g     F ostext	00000020 tpl_shutdown_os_service
0020a16c g     F text_garbage	0000002c display_unsigned
00206c88 g     F text_garbage	00000030 ecrobot_set_motor_rev
00203144 g       ostext	00000000 tpl_arm_bootstrap_entry
00200a9c g     F ostext	00000060 tpl_resume_all_interrupts_service
00204e0c g       osvars	00000000 abt_stack_bottom
00203908 g     O osvars	00000044 isr_button_start_int_context
0020abb0 g     F text_garbage	00000030 nxt_lcd_set_pot
002090b0 g     F text_garbage	00000040 nxt_motor_set_count
002033ec g     O osconst	0000000c isr_button_left_isr_helper
00205714 g       apptext	00000000 ReleaseResource
00000000         *UND*	00000000 sound_freq_vol
0020586f g       procstack	00000000 __SEG_END_ISR_isr_button_start_VAR_RGN
00205870 g     O procstack	000001f4 Detection_contact_stack_zone
002018d4 g     F ostext	000000dc tpl_remove_time_obj
00203624 g     O osvars	00000008 res_sched_rez_desc
00200b74 g     F ostext	00000040 tpl_suspend_os_interrupts_service
00203614 g     O osvars	00000004 tpl_cpt_user_task_lock_All
0020586f g       procstack	00000000 __SEG_END_ISR_isr_button_right_VAR_RGN
00203410 g     O osconst	0000000c isr_button_right_isr_helper
00203434 g     O osconst	0000000c isr_button_start_isr_helper
00200a5c g     F ostext	00000040 tpl_suspend_all_interrupts_service
00205870 g       procstack	00000000 __SEG_START_Task_Navigation_VAR_RGN
00204e0c g       osvars	00000000 und_stack_top
00207350 g     F text_garbage	00000038 nxt_device_init
0020bf24 g     O .data	00000004 _impure_ptr
0020357c g     O osconst	00000020 tpl_dyn_proc_table
0020bab8 g       *ABS*	00000000 __ramtext_load_end__
0020906c g     F text_garbage	00000044 nxt_motor_get_count
0020520c g       osvars	00000000 usr_stack_top
002038b4 g     O osvars	00000008 isr_button_left_isr_desc
0020bacc g     O .data	00000004 periode
00208994 g     F text_garbage	00000188 i2c_init
00205778 g       apptext	00000000 GetAlarmBase
0020569c g       apptext	00000000 DisableAllInterrupts
00205870 g       procstack	00000000 __SEG_START_ISR_isr_button_right_VAR_RGN
00200040 g       *ABS*	00000000 __vectors_load_end__
00206cb8 g     F text_garbage	00000048 ecrobot_get_touch_sensor
0020308c g       ostext	00000000 primary_prefetch_abort_handler
0020a1dc g     F text_garbage	000000b0 display_init
00205638 g       apptext	00000000 ChainTask
0020ccbd g     O .bss	00000001 page
0020acf0 g     F text_garbage	00000078 nxt_lcd_force_update
002035ac g     O osconst	00000008 AlarmContact_action
00200040 g       .entry	00000000 NXT_Entry_Point
00209580 g     F text_garbage	00000118 nxt_motor_init
0020623f g       procstack	00000000 __SEG_END_ISR_isr_button_right_STACK_RGN
00206c54 g       text_garbage	00000000 fiq_get_and_disable
00201720 g     F ostext	000001b4 tpl_insert_time_obj
00205c58 g       procstack	00000000 __SEG_START_Task_Navigation_STACK_RGN
00203e0c g       osvars	00000000 irq_stack_bottom
0020bac0 g       *ABS*	00000000 __ramtext_ram_end__
00200990 g     F ostext	00000070 tpl_get_interrupt_lock_status
00205818 g       apptext	00000000 CallTerminateTask
00209ca4 g     F text_garbage	00000044 display_clear
0020ce44 g     O garbage	00000004 display_y
0020363c g     O osvars	00000018 tpl_kern
00200080 g     F ostext	0000005c tpl_raise_alarm
00205764 g       apptext	00000000 WaitEvent
00203054 g       ostext	00000000 primary_undefined_instruction_handler
00206234 g     O procstack	000001f4 isr_button_start_stack_zone
00202400 g     F ostext	00000148 tpl_schedule_from_dying
0020336c g     O osconst	00000001 INVALID_PROC
00206dc4 g     F text_garbage	0000002c ecrobot_init_sonar_sensor
0020aab0 g     F text_garbage	00000038 nxt_lcd_command
002092c8 g     F text_garbage	000001a4 nxt_motor_quad_decode
00201b04 g     F ostext	000001d0 tpl_counter_tick
00203954 g     O osvars	00000044 isr_button_stop_int_context
0020addc g     F text_garbage	00000010 nxt_lcd_power_down
0020324c g     F ostext	00000010 tpl_interrupt_source_5
0020323c g     F ostext	00000010 tpl_interrupt_source_2
00206c44 g       text_garbage	00000000 interrupts_enable
00204a0c g       osvars	00000000 abt_stack_top
0020325c g     F ostext	00000010 tpl_interrupt_source_7
00203618 g     O osvars	00000004 tpl_cpt_user_task_lock_OS
00205870 g       procstack	00000000 __SEG_START_Task_Detection_contact_VAR_RGN
00200d88 g     F ostext	00000110 tpl_central_interrupt_handler
00000000         *UND*	00000000 start
00205a64 g     O procstack	000001f4 Detection_distance_stack_zone
00202c40 g     F ostext	000000ac tpl_init_context
00203658 g     O osvars	00000004 INTERNAL_RES_SCHEDULER
0020376c g     O osvars	0000001c SystemCounter_counter_desc
00207388 g     F text_garbage	000000f0 aic_initialise
00200000 g       *ABS*	00000000 __vectors_load_start__
002032b0 g     F ostext	00000014 tpl_interrupt_source_16
00206df0 g     F text_garbage	000000a0 ecrobot_get_sonar_sensor
002088b0 g     F text_garbage	000000e4 i2c_enable
00207478 g     F text_garbage	00000070 aic_set_vector
002039ec g     O osvars	00000005 tpl_priority_1_fifo
00208f24 g     F text_garbage	00000024 systick_get_ms
0020ba54 g     F text_garbage	00000064 strlen
0020b380 g     F text_garbage	0000003c nxt_spi_set_display
0020cdc0 g     O garbage	00000080 bt_frame
00200e98 g     F ostext	00000034 tpl_central_interrupt_handler_2
002035b4 g     O osconst	0000000c AlarmContact_static
002076c0 g     F text_garbage	00000030 nxt_avr_power_down
0020ac9c g     F text_garbage	00000014 nxt_lcd_reset
002033f8 g     O osconst	00000018 isr_button_right_isr_stat_desc
00205688 g       apptext	00000000 EnableAllInterrupts
002072d8 g     F text_garbage	00000078 ecrobot_term_bt_connection
00205870 g       procstack	00000000 __SEG_START_ISR_isr_button_start_VAR_RGN
00202adc g     F ostext	00000030 tpl_action_callback
00206428 g       procstack	00000000 __SEG_START_ISR_isr_button_stop_STACK_RGN
00208ea8 g     F text_garbage	00000024 systick_low_priority_C_function
00205870 g       procstack	00000000 __SEG_START_ISR_isr_button_stop_VAR_RGN
0020666c g     F text_garbage	00000018 isr_button_left_function
0020c912 g     O .bss	00000002 bt_length
00203a0c g       osvars	00000000 irq_stack_top
002056d8 g       apptext	00000000 ResumeOSInterrupts
0020a53c g     F text_garbage	000001ec twi_isr_C_function
00207cf8 g     F text_garbage	000000c4 nxt_avr_set_motor
002057b4 g       apptext	00000000 SetAbsAlarm
00200804 g     F ostext	000000d4 tpl_get_event_service
00205840 g     F apptext	0000002c StartOS
0020661f g       procstack	00000000 __SEG_END_ISR_isr_button_stop_STACK_RGN
00207e90 g     F text_garbage	00000994 i2c_timer_isr_C_function



Disassembly of section .header:

001ffff0 <NXT_Binary_Header>:
  1ffff0:	4254584e 	.word	0x4254584e
  1ffff4:	52414e49 	.word	0x52414e49
  1ffff8:	00000059 	.word	0x00000059
  1ffffc:	0000004c 	.word	0x0000004c

Disassembly of section .vectors:

00200000 <Vec_reset>:
  200000:	e59ff018 	ldr	pc, [pc, #24]	; 200020 <Vec_fastInterruptRequest+0x4>

00200004 <Vec_undefinedInstruction>:
  200004:	e59ff018 	ldr	pc, [pc, #24]	; 200024 <Vec_fastInterruptRequest+0x8>

00200008 <Vec_softwareInterrupt>:
  200008:	e59ff018 	ldr	pc, [pc, #24]	; 200028 <Vec_fastInterruptRequest+0xc>

0020000c <Vec_prefetchAbort>:
  20000c:	e59ff018 	ldr	pc, [pc, #24]	; 20002c <Vec_fastInterruptRequest+0x10>

00200010 <Vec_dataAbort>:
  200010:	e59ff018 	ldr	pc, [pc, #24]	; 200030 <Vec_fastInterruptRequest+0x14>

00200014 <Vec_unused>:
  200014:	b8a06f60 	.word	0xb8a06f60

00200018 <Vec_interruptRequest>:
  200018:	e59ff014 	ldr	pc, [pc, #20]	; 200034 <Vec_fastInterruptRequest+0x18>

0020001c <Vec_fastInterruptRequest>:
  20001c:	e59ff014 	ldr	pc, [pc, #20]	; 200038 <Vec_fastInterruptRequest+0x1c>
  200020:	00203144 	.word	0x00203144
  200024:	00203054 	.word	0x00203054
  200028:	00202df4 	.word	0x00202df4
  20002c:	0020308c 	.word	0x0020308c
  200030:	002030c4 	.word	0x002030c4
  200034:	00202d1c 	.word	0x00202d1c
  200038:	00203134 	.word	0x00203134
  20003c:	00000000 	.word	0x00000000

Disassembly of section .entry:

00200040 <NXT_Entry_Point>:
  200040:	e92d0001 	push	{r0}
  200044:	e10f0000 	mrs	r0, CPSR
  200048:	e38000c0 	orr	r0, r0, #192	; 0xc0
  20004c:	e129f000 	msr	CPSR_fc, r0
  200050:	e8bd0001 	pop	{r0}

00200054 <Copier>:
  200054:	e0802001 	add	r2, r0, r1
  200058:	e3a01602 	mov	r1, #2097152	; 0x200000
  20005c:	e2800010 	add	r0, r0, #16
  200060:	ea000001 	b	20006c <CopierCompare>

00200064 <CopierLoop>:
  200064:	e4903004 	ldr	r3, [r0], #4
  200068:	e4813004 	str	r3, [r1], #4

0020006c <CopierCompare>:
  20006c:	e1500002 	cmp	r0, r2
  200070:	3afffffb 	bcc	200064 <CopierLoop>

00200074 <JumpToResetVector>:
  200074:	e3a0f602 	mov	pc, #2097152	; 0x200000
	...

Disassembly of section ostext:

00200080 <tpl_raise_alarm>:
  200080:	e92d4800 	push	{fp, lr}
  200084:	e28db004 	add	fp, sp, #4
  200088:	e24dd010 	sub	sp, sp, #16
  20008c:	e50b0014 	str	r0, [fp, #-20]
  200090:	e3a03000 	mov	r3, #0
  200094:	e54b3005 	strb	r3, [fp, #-5]
  200098:	e51b3014 	ldr	r3, [fp, #-20]
  20009c:	e5933000 	ldr	r3, [r3]
  2000a0:	e50b300c 	str	r3, [fp, #-12]
  2000a4:	e51b300c 	ldr	r3, [fp, #-12]
  2000a8:	e5933008 	ldr	r3, [r3, #8]
  2000ac:	e50b3010 	str	r3, [fp, #-16]
  2000b0:	e51b3010 	ldr	r3, [fp, #-16]
  2000b4:	e5933000 	ldr	r3, [r3]
  2000b8:	e51b0010 	ldr	r0, [fp, #-16]
  2000bc:	e1a0e00f 	mov	lr, pc
  2000c0:	e12fff13 	bx	r3
  2000c4:	e1a03000 	mov	r3, r0
  2000c8:	e54b3005 	strb	r3, [fp, #-5]
  2000cc:	e55b3005 	ldrb	r3, [fp, #-5]
  2000d0:	e1a00003 	mov	r0, r3
  2000d4:	e24bd004 	sub	sp, fp, #4
  2000d8:	e8bd8800 	pop	{fp, pc}

002000dc <tpl_get_alarm_base_service>:
  2000dc:	e92d4800 	push	{fp, lr}
  2000e0:	e28db004 	add	fp, sp, #4
  2000e4:	e24dd010 	sub	sp, sp, #16
  2000e8:	e1a03000 	mov	r3, r0
  2000ec:	e50b1014 	str	r1, [fp, #-20]
  2000f0:	e54b3010 	strb	r3, [fp, #-16]
  2000f4:	e3a03000 	mov	r3, #0
  2000f8:	e54b3005 	strb	r3, [fp, #-5]
  2000fc:	eb000223 	bl	200990 <tpl_get_interrupt_lock_status>
  200100:	e1a03000 	mov	r3, r0
  200104:	e3530000 	cmp	r3, #0
  200108:	0a000001 	beq	200114 <tpl_get_alarm_base_service+0x38>
  20010c:	e3a03013 	mov	r3, #19
  200110:	e54b3005 	strb	r3, [fp, #-5]
  200114:	e55b3005 	ldrb	r3, [fp, #-5]
  200118:	e3530000 	cmp	r3, #0
  20011c:	1a000004 	bne	200134 <tpl_get_alarm_base_service+0x58>
  200120:	e55b3010 	ldrb	r3, [fp, #-16]
  200124:	e3530002 	cmp	r3, #2
  200128:	9a000001 	bls	200134 <tpl_get_alarm_base_service+0x58>
  20012c:	e3a03003 	mov	r3, #3
  200130:	e54b3005 	strb	r3, [fp, #-5]
  200134:	e55b3005 	ldrb	r3, [fp, #-5]
  200138:	e3530000 	cmp	r3, #0
  20013c:	1a000015 	bne	200198 <tpl_get_alarm_base_service+0xbc>
  200140:	e55b2010 	ldrb	r2, [fp, #-16]
  200144:	e59f305c 	ldr	r3, [pc, #92]	; 2001a8 <tpl_get_alarm_base_service+0xcc>
  200148:	e7933102 	ldr	r3, [r3, r2, lsl #2]
  20014c:	e50b300c 	str	r3, [fp, #-12]
  200150:	e51b300c 	ldr	r3, [fp, #-12]
  200154:	e5933000 	ldr	r3, [r3]
  200158:	e5933000 	ldr	r3, [r3]
  20015c:	e5932000 	ldr	r2, [r3]
  200160:	e51b3014 	ldr	r3, [fp, #-20]
  200164:	e5832004 	str	r2, [r3, #4]
  200168:	e51b300c 	ldr	r3, [fp, #-12]
  20016c:	e5933000 	ldr	r3, [r3]
  200170:	e5933000 	ldr	r3, [r3]
  200174:	e5932004 	ldr	r2, [r3, #4]
  200178:	e51b3014 	ldr	r3, [fp, #-20]
  20017c:	e5832000 	str	r2, [r3]
  200180:	e51b300c 	ldr	r3, [fp, #-12]
  200184:	e5933000 	ldr	r3, [r3]
  200188:	e5933000 	ldr	r3, [r3]
  20018c:	e5932008 	ldr	r2, [r3, #8]
  200190:	e51b3014 	ldr	r3, [fp, #-20]
  200194:	e5832008 	str	r2, [r3, #8]
  200198:	e55b3005 	ldrb	r3, [fp, #-5]
  20019c:	e1a00003 	mov	r0, r3
  2001a0:	e24bd004 	sub	sp, fp, #4
  2001a4:	e8bd8800 	pop	{fp, pc}
  2001a8:	002035e8 	.word	0x002035e8

002001ac <tpl_get_alarm_service>:
  2001ac:	e92d4800 	push	{fp, lr}
  2001b0:	e28db004 	add	fp, sp, #4
  2001b4:	e24dd018 	sub	sp, sp, #24
  2001b8:	e1a03000 	mov	r3, r0
  2001bc:	e50b101c 	str	r1, [fp, #-28]
  2001c0:	e54b3018 	strb	r3, [fp, #-24]
  2001c4:	e3a03000 	mov	r3, #0
  2001c8:	e54b3005 	strb	r3, [fp, #-5]
  2001cc:	eb0001ef 	bl	200990 <tpl_get_interrupt_lock_status>
  2001d0:	e1a03000 	mov	r3, r0
  2001d4:	e3530000 	cmp	r3, #0
  2001d8:	0a000001 	beq	2001e4 <tpl_get_alarm_service+0x38>
  2001dc:	e3a03013 	mov	r3, #19
  2001e0:	e54b3005 	strb	r3, [fp, #-5]
  2001e4:	e55b3005 	ldrb	r3, [fp, #-5]
  2001e8:	e3530000 	cmp	r3, #0
  2001ec:	1a000004 	bne	200204 <tpl_get_alarm_service+0x58>
  2001f0:	e55b3018 	ldrb	r3, [fp, #-24]
  2001f4:	e3530002 	cmp	r3, #2
  2001f8:	9a000001 	bls	200204 <tpl_get_alarm_service+0x58>
  2001fc:	e3a03003 	mov	r3, #3
  200200:	e54b3005 	strb	r3, [fp, #-5]
  200204:	e55b3005 	ldrb	r3, [fp, #-5]
  200208:	e3530000 	cmp	r3, #0
  20020c:	1a000022 	bne	20029c <tpl_get_alarm_service+0xf0>
  200210:	e55b2018 	ldrb	r2, [fp, #-24]
  200214:	e59f3090 	ldr	r3, [pc, #144]	; 2002ac <tpl_get_alarm_service+0x100>
  200218:	e7933102 	ldr	r3, [r3, r2, lsl #2]
  20021c:	e50b3010 	str	r3, [fp, #-16]
  200220:	e51b3010 	ldr	r3, [fp, #-16]
  200224:	e5d33014 	ldrb	r3, [r3, #20]
  200228:	e3530001 	cmp	r3, #1
  20022c:	1a000018 	bne	200294 <tpl_get_alarm_service+0xe8>
  200230:	e51b3010 	ldr	r3, [fp, #-16]
  200234:	e5933010 	ldr	r3, [r3, #16]
  200238:	e50b300c 	str	r3, [fp, #-12]
  20023c:	e51b3010 	ldr	r3, [fp, #-16]
  200240:	e5933000 	ldr	r3, [r3]
  200244:	e5933000 	ldr	r3, [r3]
  200248:	e5933010 	ldr	r3, [r3, #16]
  20024c:	e50b3014 	str	r3, [fp, #-20]
  200250:	e51b200c 	ldr	r2, [fp, #-12]
  200254:	e51b3014 	ldr	r3, [fp, #-20]
  200258:	e1520003 	cmp	r2, r3
  20025c:	2a000006 	bcs	20027c <tpl_get_alarm_service+0xd0>
  200260:	e51b3010 	ldr	r3, [fp, #-16]
  200264:	e5933000 	ldr	r3, [r3]
  200268:	e5933000 	ldr	r3, [r3]
  20026c:	e5933004 	ldr	r3, [r3, #4]
  200270:	e51b200c 	ldr	r2, [fp, #-12]
  200274:	e0823003 	add	r3, r2, r3
  200278:	e50b300c 	str	r3, [fp, #-12]
  20027c:	e51b200c 	ldr	r2, [fp, #-12]
  200280:	e51b3014 	ldr	r3, [fp, #-20]
  200284:	e0632002 	rsb	r2, r3, r2
  200288:	e51b301c 	ldr	r3, [fp, #-28]
  20028c:	e5832000 	str	r2, [r3]
  200290:	ea000001 	b	20029c <tpl_get_alarm_service+0xf0>
  200294:	e3a03005 	mov	r3, #5
  200298:	e54b3005 	strb	r3, [fp, #-5]
  20029c:	e55b3005 	ldrb	r3, [fp, #-5]
  2002a0:	e1a00003 	mov	r0, r3
  2002a4:	e24bd004 	sub	sp, fp, #4
  2002a8:	e8bd8800 	pop	{fp, pc}
  2002ac:	002035e8 	.word	0x002035e8

002002b0 <tpl_set_rel_alarm_service>:
  2002b0:	e92d4800 	push	{fp, lr}
  2002b4:	e28db004 	add	fp, sp, #4
  2002b8:	e24dd01c 	sub	sp, sp, #28
  2002bc:	e1a03000 	mov	r3, r0
  2002c0:	e50b101c 	str	r1, [fp, #-28]
  2002c4:	e50b2020 	str	r2, [fp, #-32]
  2002c8:	e54b3018 	strb	r3, [fp, #-24]
  2002cc:	e3a03000 	mov	r3, #0
  2002d0:	e54b3005 	strb	r3, [fp, #-5]
  2002d4:	eb0001ad 	bl	200990 <tpl_get_interrupt_lock_status>
  2002d8:	e1a03000 	mov	r3, r0
  2002dc:	e3530000 	cmp	r3, #0
  2002e0:	0a000001 	beq	2002ec <tpl_set_rel_alarm_service+0x3c>
  2002e4:	e3a03013 	mov	r3, #19
  2002e8:	e54b3005 	strb	r3, [fp, #-5]
  2002ec:	e55b3005 	ldrb	r3, [fp, #-5]
  2002f0:	e3530000 	cmp	r3, #0
  2002f4:	1a000004 	bne	20030c <tpl_set_rel_alarm_service+0x5c>
  2002f8:	e55b3018 	ldrb	r3, [fp, #-24]
  2002fc:	e3530002 	cmp	r3, #2
  200300:	9a000001 	bls	20030c <tpl_set_rel_alarm_service+0x5c>
  200304:	e3a03003 	mov	r3, #3
  200308:	e54b3005 	strb	r3, [fp, #-5]
  20030c:	e55b3005 	ldrb	r3, [fp, #-5]
  200310:	e3530000 	cmp	r3, #0
  200314:	1a00000a 	bne	200344 <tpl_set_rel_alarm_service+0x94>
  200318:	e55b2018 	ldrb	r2, [fp, #-24]
  20031c:	e59f314c 	ldr	r3, [pc, #332]	; 200470 <tpl_set_rel_alarm_service+0x1c0>
  200320:	e7933102 	ldr	r3, [r3, r2, lsl #2]
  200324:	e5933000 	ldr	r3, [r3]
  200328:	e5933000 	ldr	r3, [r3]
  20032c:	e5932004 	ldr	r2, [r3, #4]
  200330:	e51b301c 	ldr	r3, [fp, #-28]
  200334:	e1520003 	cmp	r2, r3
  200338:	2a000001 	bcs	200344 <tpl_set_rel_alarm_service+0x94>
  20033c:	e3a03008 	mov	r3, #8
  200340:	e54b3005 	strb	r3, [fp, #-5]
  200344:	e55b3005 	ldrb	r3, [fp, #-5]
  200348:	e3530000 	cmp	r3, #0
  20034c:	1a000016 	bne	2003ac <tpl_set_rel_alarm_service+0xfc>
  200350:	e51b3020 	ldr	r3, [fp, #-32]
  200354:	e3530000 	cmp	r3, #0
  200358:	0a000013 	beq	2003ac <tpl_set_rel_alarm_service+0xfc>
  20035c:	e55b2018 	ldrb	r2, [fp, #-24]
  200360:	e59f3108 	ldr	r3, [pc, #264]	; 200470 <tpl_set_rel_alarm_service+0x1c0>
  200364:	e7933102 	ldr	r3, [r3, r2, lsl #2]
  200368:	e5933000 	ldr	r3, [r3]
  20036c:	e5933000 	ldr	r3, [r3]
  200370:	e5932004 	ldr	r2, [r3, #4]
  200374:	e51b3020 	ldr	r3, [fp, #-32]
  200378:	e1520003 	cmp	r2, r3
  20037c:	3a000008 	bcc	2003a4 <tpl_set_rel_alarm_service+0xf4>
  200380:	e55b2018 	ldrb	r2, [fp, #-24]
  200384:	e59f30e4 	ldr	r3, [pc, #228]	; 200470 <tpl_set_rel_alarm_service+0x1c0>
  200388:	e7933102 	ldr	r3, [r3, r2, lsl #2]
  20038c:	e5933000 	ldr	r3, [r3]
  200390:	e5933000 	ldr	r3, [r3]
  200394:	e5932008 	ldr	r2, [r3, #8]
  200398:	e51b3020 	ldr	r3, [fp, #-32]
  20039c:	e1520003 	cmp	r2, r3
  2003a0:	9a000001 	bls	2003ac <tpl_set_rel_alarm_service+0xfc>
  2003a4:	e3a03008 	mov	r3, #8
  2003a8:	e54b3005 	strb	r3, [fp, #-5]
  2003ac:	e55b3005 	ldrb	r3, [fp, #-5]
  2003b0:	e3530000 	cmp	r3, #0
  2003b4:	1a000029 	bne	200460 <tpl_set_rel_alarm_service+0x1b0>
  2003b8:	e55b2018 	ldrb	r2, [fp, #-24]
  2003bc:	e59f30ac 	ldr	r3, [pc, #172]	; 200470 <tpl_set_rel_alarm_service+0x1c0>
  2003c0:	e7933102 	ldr	r3, [r3, r2, lsl #2]
  2003c4:	e50b3010 	str	r3, [fp, #-16]
  2003c8:	e51b3010 	ldr	r3, [fp, #-16]
  2003cc:	e5d33014 	ldrb	r3, [r3, #20]
  2003d0:	e3530000 	cmp	r3, #0
  2003d4:	1a00001f 	bne	200458 <tpl_set_rel_alarm_service+0x1a8>
  2003d8:	e51b3010 	ldr	r3, [fp, #-16]
  2003dc:	e5933000 	ldr	r3, [r3]
  2003e0:	e5933000 	ldr	r3, [r3]
  2003e4:	e50b3014 	str	r3, [fp, #-20]
  2003e8:	e51b3014 	ldr	r3, [fp, #-20]
  2003ec:	e5932010 	ldr	r2, [r3, #16]
  2003f0:	e51b301c 	ldr	r3, [fp, #-28]
  2003f4:	e0823003 	add	r3, r2, r3
  2003f8:	e50b300c 	str	r3, [fp, #-12]
  2003fc:	e51b3014 	ldr	r3, [fp, #-20]
  200400:	e5932004 	ldr	r2, [r3, #4]
  200404:	e51b300c 	ldr	r3, [fp, #-12]
  200408:	e1520003 	cmp	r2, r3
  20040c:	2a000005 	bcs	200428 <tpl_set_rel_alarm_service+0x178>
  200410:	e51b3014 	ldr	r3, [fp, #-20]
  200414:	e5933004 	ldr	r3, [r3, #4]
  200418:	e1e03003 	mvn	r3, r3
  20041c:	e51b200c 	ldr	r2, [fp, #-12]
  200420:	e0823003 	add	r3, r2, r3
  200424:	e50b300c 	str	r3, [fp, #-12]
  200428:	e51b3010 	ldr	r3, [fp, #-16]
  20042c:	e51b200c 	ldr	r2, [fp, #-12]
  200430:	e5832010 	str	r2, [r3, #16]
  200434:	e51b3010 	ldr	r3, [fp, #-16]
  200438:	e51b2020 	ldr	r2, [fp, #-32]
  20043c:	e583200c 	str	r2, [r3, #12]
  200440:	e51b3010 	ldr	r3, [fp, #-16]
  200444:	e3a02001 	mov	r2, #1
  200448:	e5c32014 	strb	r2, [r3, #20]
  20044c:	e51b0010 	ldr	r0, [fp, #-16]
  200450:	eb0004b2 	bl	201720 <tpl_insert_time_obj>
  200454:	ea000001 	b	200460 <tpl_set_rel_alarm_service+0x1b0>
  200458:	e3a03007 	mov	r3, #7
  20045c:	e54b3005 	strb	r3, [fp, #-5]
  200460:	e55b3005 	ldrb	r3, [fp, #-5]
  200464:	e1a00003 	mov	r0, r3
  200468:	e24bd004 	sub	sp, fp, #4
  20046c:	e8bd8800 	pop	{fp, pc}
  200470:	002035e8 	.word	0x002035e8

00200474 <tpl_set_abs_alarm_service>:
  200474:	e92d4800 	push	{fp, lr}
  200478:	e28db004 	add	fp, sp, #4
  20047c:	e24dd014 	sub	sp, sp, #20
  200480:	e1a03000 	mov	r3, r0
  200484:	e50b1014 	str	r1, [fp, #-20]
  200488:	e50b2018 	str	r2, [fp, #-24]
  20048c:	e54b3010 	strb	r3, [fp, #-16]
  200490:	e3a03000 	mov	r3, #0
  200494:	e54b3005 	strb	r3, [fp, #-5]
  200498:	eb00013c 	bl	200990 <tpl_get_interrupt_lock_status>
  20049c:	e1a03000 	mov	r3, r0
  2004a0:	e3530000 	cmp	r3, #0
  2004a4:	0a000001 	beq	2004b0 <tpl_set_abs_alarm_service+0x3c>
  2004a8:	e3a03013 	mov	r3, #19
  2004ac:	e54b3005 	strb	r3, [fp, #-5]
  2004b0:	e55b3005 	ldrb	r3, [fp, #-5]
  2004b4:	e3530000 	cmp	r3, #0
  2004b8:	1a000004 	bne	2004d0 <tpl_set_abs_alarm_service+0x5c>
  2004bc:	e55b3010 	ldrb	r3, [fp, #-16]
  2004c0:	e3530002 	cmp	r3, #2
  2004c4:	9a000001 	bls	2004d0 <tpl_set_abs_alarm_service+0x5c>
  2004c8:	e3a03003 	mov	r3, #3
  2004cc:	e54b3005 	strb	r3, [fp, #-5]
  2004d0:	e55b3005 	ldrb	r3, [fp, #-5]
  2004d4:	e3530000 	cmp	r3, #0
  2004d8:	1a00000a 	bne	200508 <tpl_set_abs_alarm_service+0x94>
  2004dc:	e55b2010 	ldrb	r2, [fp, #-16]
  2004e0:	e59f30fc 	ldr	r3, [pc, #252]	; 2005e4 <tpl_set_abs_alarm_service+0x170>
  2004e4:	e7933102 	ldr	r3, [r3, r2, lsl #2]
  2004e8:	e5933000 	ldr	r3, [r3]
  2004ec:	e5933000 	ldr	r3, [r3]
  2004f0:	e5932004 	ldr	r2, [r3, #4]
  2004f4:	e51b3014 	ldr	r3, [fp, #-20]
  2004f8:	e1520003 	cmp	r2, r3
  2004fc:	2a000001 	bcs	200508 <tpl_set_abs_alarm_service+0x94>
  200500:	e3a03008 	mov	r3, #8
  200504:	e54b3005 	strb	r3, [fp, #-5]
  200508:	e55b3005 	ldrb	r3, [fp, #-5]
  20050c:	e3530000 	cmp	r3, #0
  200510:	1a000016 	bne	200570 <tpl_set_abs_alarm_service+0xfc>
  200514:	e51b3018 	ldr	r3, [fp, #-24]
  200518:	e3530000 	cmp	r3, #0
  20051c:	0a000013 	beq	200570 <tpl_set_abs_alarm_service+0xfc>
  200520:	e55b2010 	ldrb	r2, [fp, #-16]
  200524:	e59f30b8 	ldr	r3, [pc, #184]	; 2005e4 <tpl_set_abs_alarm_service+0x170>
  200528:	e7933102 	ldr	r3, [r3, r2, lsl #2]
  20052c:	e5933000 	ldr	r3, [r3]
  200530:	e5933000 	ldr	r3, [r3]
  200534:	e5932004 	ldr	r2, [r3, #4]
  200538:	e51b3018 	ldr	r3, [fp, #-24]
  20053c:	e1520003 	cmp	r2, r3
  200540:	3a000008 	bcc	200568 <tpl_set_abs_alarm_service+0xf4>
  200544:	e55b2010 	ldrb	r2, [fp, #-16]
  200548:	e59f3094 	ldr	r3, [pc, #148]	; 2005e4 <tpl_set_abs_alarm_service+0x170>
  20054c:	e7933102 	ldr	r3, [r3, r2, lsl #2]
  200550:	e5933000 	ldr	r3, [r3]
  200554:	e5933000 	ldr	r3, [r3]
  200558:	e5932008 	ldr	r2, [r3, #8]
  20055c:	e51b3018 	ldr	r3, [fp, #-24]
  200560:	e1520003 	cmp	r2, r3
  200564:	9a000001 	bls	200570 <tpl_set_abs_alarm_service+0xfc>
  200568:	e3a03008 	mov	r3, #8
  20056c:	e54b3005 	strb	r3, [fp, #-5]
  200570:	e55b3005 	ldrb	r3, [fp, #-5]
  200574:	e3530000 	cmp	r3, #0
  200578:	1a000015 	bne	2005d4 <tpl_set_abs_alarm_service+0x160>
  20057c:	e55b2010 	ldrb	r2, [fp, #-16]
  200580:	e59f305c 	ldr	r3, [pc, #92]	; 2005e4 <tpl_set_abs_alarm_service+0x170>
  200584:	e7933102 	ldr	r3, [r3, r2, lsl #2]
  200588:	e50b300c 	str	r3, [fp, #-12]
  20058c:	e51b300c 	ldr	r3, [fp, #-12]
  200590:	e5d33014 	ldrb	r3, [r3, #20]
  200594:	e3530000 	cmp	r3, #0
  200598:	1a00000b 	bne	2005cc <tpl_set_abs_alarm_service+0x158>
  20059c:	e51b300c 	ldr	r3, [fp, #-12]
  2005a0:	e51b2014 	ldr	r2, [fp, #-20]
  2005a4:	e5832010 	str	r2, [r3, #16]
  2005a8:	e51b300c 	ldr	r3, [fp, #-12]
  2005ac:	e51b2018 	ldr	r2, [fp, #-24]
  2005b0:	e583200c 	str	r2, [r3, #12]
  2005b4:	e51b300c 	ldr	r3, [fp, #-12]
  2005b8:	e3a02001 	mov	r2, #1
  2005bc:	e5c32014 	strb	r2, [r3, #20]
  2005c0:	e51b000c 	ldr	r0, [fp, #-12]
  2005c4:	eb000455 	bl	201720 <tpl_insert_time_obj>
  2005c8:	ea000001 	b	2005d4 <tpl_set_abs_alarm_service+0x160>
  2005cc:	e3a03007 	mov	r3, #7
  2005d0:	e54b3005 	strb	r3, [fp, #-5]
  2005d4:	e55b3005 	ldrb	r3, [fp, #-5]
  2005d8:	e1a00003 	mov	r0, r3
  2005dc:	e24bd004 	sub	sp, fp, #4
  2005e0:	e8bd8800 	pop	{fp, pc}
  2005e4:	002035e8 	.word	0x002035e8

002005e8 <tpl_cancel_alarm_service>:
  2005e8:	e92d4800 	push	{fp, lr}
  2005ec:	e28db004 	add	fp, sp, #4
  2005f0:	e24dd00c 	sub	sp, sp, #12
  2005f4:	e1a03000 	mov	r3, r0
  2005f8:	e54b3010 	strb	r3, [fp, #-16]
  2005fc:	e3a03000 	mov	r3, #0
  200600:	e54b3005 	strb	r3, [fp, #-5]
  200604:	eb0000e1 	bl	200990 <tpl_get_interrupt_lock_status>
  200608:	e1a03000 	mov	r3, r0
  20060c:	e3530000 	cmp	r3, #0
  200610:	0a000001 	beq	20061c <tpl_cancel_alarm_service+0x34>
  200614:	e3a03013 	mov	r3, #19
  200618:	e54b3005 	strb	r3, [fp, #-5]
  20061c:	e55b3005 	ldrb	r3, [fp, #-5]
  200620:	e3530000 	cmp	r3, #0
  200624:	1a000004 	bne	20063c <tpl_cancel_alarm_service+0x54>
  200628:	e55b3010 	ldrb	r3, [fp, #-16]
  20062c:	e3530002 	cmp	r3, #2
  200630:	9a000001 	bls	20063c <tpl_cancel_alarm_service+0x54>
  200634:	e3a03003 	mov	r3, #3
  200638:	e54b3005 	strb	r3, [fp, #-5]
  20063c:	e55b3005 	ldrb	r3, [fp, #-5]
  200640:	e3530000 	cmp	r3, #0
  200644:	1a00000f 	bne	200688 <tpl_cancel_alarm_service+0xa0>
  200648:	e55b2010 	ldrb	r2, [fp, #-16]
  20064c:	e59f3044 	ldr	r3, [pc, #68]	; 200698 <tpl_cancel_alarm_service+0xb0>
  200650:	e7933102 	ldr	r3, [r3, r2, lsl #2]
  200654:	e50b300c 	str	r3, [fp, #-12]
  200658:	e51b300c 	ldr	r3, [fp, #-12]
  20065c:	e5d33014 	ldrb	r3, [r3, #20]
  200660:	e3530001 	cmp	r3, #1
  200664:	1a000005 	bne	200680 <tpl_cancel_alarm_service+0x98>
  200668:	e51b000c 	ldr	r0, [fp, #-12]
  20066c:	eb000498 	bl	2018d4 <tpl_remove_time_obj>
  200670:	e51b300c 	ldr	r3, [fp, #-12]
  200674:	e3a02000 	mov	r2, #0
  200678:	e5c32014 	strb	r2, [r3, #20]
  20067c:	ea000001 	b	200688 <tpl_cancel_alarm_service+0xa0>
  200680:	e3a03005 	mov	r3, #5
  200684:	e54b3005 	strb	r3, [fp, #-5]
  200688:	e55b3005 	ldrb	r3, [fp, #-5]
  20068c:	e1a00003 	mov	r0, r3
  200690:	e24bd004 	sub	sp, fp, #4
  200694:	e8bd8800 	pop	{fp, pc}
  200698:	002035e8 	.word	0x002035e8

0020069c <tpl_set_event_service>:
  20069c:	e92d4800 	push	{fp, lr}
  2006a0:	e28db004 	add	fp, sp, #4
  2006a4:	e24dd00c 	sub	sp, sp, #12
  2006a8:	e1a02000 	mov	r2, r0
  2006ac:	e1a03001 	mov	r3, r1
  2006b0:	e54b200c 	strb	r2, [fp, #-12]
  2006b4:	e54b3010 	strb	r3, [fp, #-16]
  2006b8:	e3a03000 	mov	r3, #0
  2006bc:	e54b3005 	strb	r3, [fp, #-5]
  2006c0:	eb0000b2 	bl	200990 <tpl_get_interrupt_lock_status>
  2006c4:	e1a03000 	mov	r3, r0
  2006c8:	e3530000 	cmp	r3, #0
  2006cc:	0a000001 	beq	2006d8 <tpl_set_event_service+0x3c>
  2006d0:	e3a03013 	mov	r3, #19
  2006d4:	e54b3005 	strb	r3, [fp, #-5]
  2006d8:	e55b3005 	ldrb	r3, [fp, #-5]
  2006dc:	e3530000 	cmp	r3, #0
  2006e0:	1a000007 	bne	200704 <tpl_set_event_service+0x68>
  2006e4:	e15b30dc 	ldrsb	r3, [fp, #-12]
  2006e8:	e3530002 	cmp	r3, #2
  2006ec:	ca000002 	bgt	2006fc <tpl_set_event_service+0x60>
  2006f0:	e15b30dc 	ldrsb	r3, [fp, #-12]
  2006f4:	e3530000 	cmp	r3, #0
  2006f8:	aa000001 	bge	200704 <tpl_set_event_service+0x68>
  2006fc:	e3a03003 	mov	r3, #3
  200700:	e54b3005 	strb	r3, [fp, #-5]
  200704:	e55b3005 	ldrb	r3, [fp, #-5]
  200708:	e3530000 	cmp	r3, #0
  20070c:	1a000007 	bne	200730 <tpl_set_event_service+0x94>
  200710:	e15b20dc 	ldrsb	r2, [fp, #-12]
  200714:	e59f3050 	ldr	r3, [pc, #80]	; 20076c <tpl_set_event_service+0xd0>
  200718:	e7933102 	ldr	r3, [r3, r2, lsl #2]
  20071c:	e5d33017 	ldrb	r3, [r3, #23]
  200720:	e3530001 	cmp	r3, #1
  200724:	0a000001 	beq	200730 <tpl_set_event_service+0x94>
  200728:	e3a03001 	mov	r3, #1
  20072c:	e54b3005 	strb	r3, [fp, #-5]
  200730:	e55b3005 	ldrb	r3, [fp, #-5]
  200734:	e3530000 	cmp	r3, #0
  200738:	1a000007 	bne	20075c <tpl_set_event_service+0xc0>
  20073c:	e15b20dc 	ldrsb	r2, [fp, #-12]
  200740:	e59f3028 	ldr	r3, [pc, #40]	; 200770 <tpl_set_event_service+0xd4>
  200744:	e7933102 	ldr	r3, [r3, r2, lsl #2]
  200748:	e5d33006 	ldrb	r3, [r3, #6]
  20074c:	e3530000 	cmp	r3, #0
  200750:	1a000001 	bne	20075c <tpl_set_event_service+0xc0>
  200754:	e3a03007 	mov	r3, #7
  200758:	e54b3005 	strb	r3, [fp, #-5]
  20075c:	e55b3005 	ldrb	r3, [fp, #-5]
  200760:	e1a00003 	mov	r0, r3
  200764:	e24bd004 	sub	sp, fp, #4
  200768:	e8bd8800 	pop	{fp, pc}
  20076c:	0020355c 	.word	0x0020355c
  200770:	0020357c 	.word	0x0020357c

00200774 <tpl_clear_event_service>:
  200774:	e92d4800 	push	{fp, lr}
  200778:	e28db004 	add	fp, sp, #4
  20077c:	e24dd008 	sub	sp, sp, #8
  200780:	e1a03000 	mov	r3, r0
  200784:	e54b300c 	strb	r3, [fp, #-12]
  200788:	e3a03000 	mov	r3, #0
  20078c:	e54b3005 	strb	r3, [fp, #-5]
  200790:	eb00007e 	bl	200990 <tpl_get_interrupt_lock_status>
  200794:	e1a03000 	mov	r3, r0
  200798:	e3530000 	cmp	r3, #0
  20079c:	0a000001 	beq	2007a8 <tpl_clear_event_service+0x34>
  2007a0:	e3a03013 	mov	r3, #19
  2007a4:	e54b3005 	strb	r3, [fp, #-5]
  2007a8:	e55b3005 	ldrb	r3, [fp, #-5]
  2007ac:	e3530000 	cmp	r3, #0
  2007b0:	1a000005 	bne	2007cc <tpl_clear_event_service+0x58>
  2007b4:	eb00064c 	bl	2020ec <tpl_current_os_state>
  2007b8:	e1a03000 	mov	r3, r0
  2007bc:	e3530001 	cmp	r3, #1
  2007c0:	0a000001 	beq	2007cc <tpl_clear_event_service+0x58>
  2007c4:	e3a03002 	mov	r3, #2
  2007c8:	e54b3005 	strb	r3, [fp, #-5]
  2007cc:	e55b3005 	ldrb	r3, [fp, #-5]
  2007d0:	e3530000 	cmp	r3, #0
  2007d4:	1a000005 	bne	2007f0 <tpl_clear_event_service+0x7c>
  2007d8:	e59f3020 	ldr	r3, [pc, #32]	; 200800 <tpl_clear_event_service+0x8c>
  2007dc:	e5933010 	ldr	r3, [r3, #16]
  2007e0:	e3530000 	cmp	r3, #0
  2007e4:	ba000001 	blt	2007f0 <tpl_clear_event_service+0x7c>
  2007e8:	e3a03001 	mov	r3, #1
  2007ec:	e54b3005 	strb	r3, [fp, #-5]
  2007f0:	e55b3005 	ldrb	r3, [fp, #-5]
  2007f4:	e1a00003 	mov	r0, r3
  2007f8:	e24bd004 	sub	sp, fp, #4
  2007fc:	e8bd8800 	pop	{fp, pc}
  200800:	0020363c 	.word	0x0020363c

00200804 <tpl_get_event_service>:
  200804:	e92d4800 	push	{fp, lr}
  200808:	e28db004 	add	fp, sp, #4
  20080c:	e24dd00c 	sub	sp, sp, #12
  200810:	e1a03000 	mov	r3, r0
  200814:	e50b1010 	str	r1, [fp, #-16]
  200818:	e54b300c 	strb	r3, [fp, #-12]
  20081c:	e3a03000 	mov	r3, #0
  200820:	e54b3005 	strb	r3, [fp, #-5]
  200824:	eb000059 	bl	200990 <tpl_get_interrupt_lock_status>
  200828:	e1a03000 	mov	r3, r0
  20082c:	e3530000 	cmp	r3, #0
  200830:	0a000001 	beq	20083c <tpl_get_event_service+0x38>
  200834:	e3a03013 	mov	r3, #19
  200838:	e54b3005 	strb	r3, [fp, #-5]
  20083c:	e55b3005 	ldrb	r3, [fp, #-5]
  200840:	e3530000 	cmp	r3, #0
  200844:	1a000007 	bne	200868 <tpl_get_event_service+0x64>
  200848:	e15b30dc 	ldrsb	r3, [fp, #-12]
  20084c:	e3530002 	cmp	r3, #2
  200850:	ca000002 	bgt	200860 <tpl_get_event_service+0x5c>
  200854:	e15b30dc 	ldrsb	r3, [fp, #-12]
  200858:	e3530000 	cmp	r3, #0
  20085c:	aa000001 	bge	200868 <tpl_get_event_service+0x64>
  200860:	e3a03003 	mov	r3, #3
  200864:	e54b3005 	strb	r3, [fp, #-5]
  200868:	e55b3005 	ldrb	r3, [fp, #-5]
  20086c:	e3530000 	cmp	r3, #0
  200870:	1a000007 	bne	200894 <tpl_get_event_service+0x90>
  200874:	e15b20dc 	ldrsb	r2, [fp, #-12]
  200878:	e59f3050 	ldr	r3, [pc, #80]	; 2008d0 <tpl_get_event_service+0xcc>
  20087c:	e7933102 	ldr	r3, [r3, r2, lsl #2]
  200880:	e5d33017 	ldrb	r3, [r3, #23]
  200884:	e3530001 	cmp	r3, #1
  200888:	0a000001 	beq	200894 <tpl_get_event_service+0x90>
  20088c:	e3a03001 	mov	r3, #1
  200890:	e54b3005 	strb	r3, [fp, #-5]
  200894:	e55b3005 	ldrb	r3, [fp, #-5]
  200898:	e3530000 	cmp	r3, #0
  20089c:	1a000007 	bne	2008c0 <tpl_get_event_service+0xbc>
  2008a0:	e15b20dc 	ldrsb	r2, [fp, #-12]
  2008a4:	e59f3028 	ldr	r3, [pc, #40]	; 2008d4 <tpl_get_event_service+0xd0>
  2008a8:	e7933102 	ldr	r3, [r3, r2, lsl #2]
  2008ac:	e5d33006 	ldrb	r3, [r3, #6]
  2008b0:	e3530000 	cmp	r3, #0
  2008b4:	1a000001 	bne	2008c0 <tpl_get_event_service+0xbc>
  2008b8:	e3a03007 	mov	r3, #7
  2008bc:	e54b3005 	strb	r3, [fp, #-5]
  2008c0:	e55b3005 	ldrb	r3, [fp, #-5]
  2008c4:	e1a00003 	mov	r0, r3
  2008c8:	e24bd004 	sub	sp, fp, #4
  2008cc:	e8bd8800 	pop	{fp, pc}
  2008d0:	0020355c 	.word	0x0020355c
  2008d4:	0020357c 	.word	0x0020357c

002008d8 <tpl_wait_event_service>:
  2008d8:	e92d4800 	push	{fp, lr}
  2008dc:	e28db004 	add	fp, sp, #4
  2008e0:	e24dd008 	sub	sp, sp, #8
  2008e4:	e1a03000 	mov	r3, r0
  2008e8:	e54b300c 	strb	r3, [fp, #-12]
  2008ec:	e3a03000 	mov	r3, #0
  2008f0:	e54b3005 	strb	r3, [fp, #-5]
  2008f4:	eb000025 	bl	200990 <tpl_get_interrupt_lock_status>
  2008f8:	e1a03000 	mov	r3, r0
  2008fc:	e3530000 	cmp	r3, #0
  200900:	0a000001 	beq	20090c <tpl_wait_event_service+0x34>
  200904:	e3a03013 	mov	r3, #19
  200908:	e54b3005 	strb	r3, [fp, #-5]
  20090c:	e55b3005 	ldrb	r3, [fp, #-5]
  200910:	e3530000 	cmp	r3, #0
  200914:	1a000005 	bne	200930 <tpl_wait_event_service+0x58>
  200918:	eb0005f3 	bl	2020ec <tpl_current_os_state>
  20091c:	e1a03000 	mov	r3, r0
  200920:	e3530001 	cmp	r3, #1
  200924:	0a000001 	beq	200930 <tpl_wait_event_service+0x58>
  200928:	e3a03002 	mov	r3, #2
  20092c:	e54b3005 	strb	r3, [fp, #-5]
  200930:	e55b3005 	ldrb	r3, [fp, #-5]
  200934:	e3530000 	cmp	r3, #0
  200938:	1a000005 	bne	200954 <tpl_wait_event_service+0x7c>
  20093c:	e59f3048 	ldr	r3, [pc, #72]	; 20098c <tpl_wait_event_service+0xb4>
  200940:	e5933010 	ldr	r3, [r3, #16]
  200944:	e3530000 	cmp	r3, #0
  200948:	ba000001 	blt	200954 <tpl_wait_event_service+0x7c>
  20094c:	e3a03001 	mov	r3, #1
  200950:	e54b3005 	strb	r3, [fp, #-5]
  200954:	e55b3005 	ldrb	r3, [fp, #-5]
  200958:	e3530000 	cmp	r3, #0
  20095c:	1a000006 	bne	20097c <tpl_wait_event_service+0xa4>
  200960:	e59f3024 	ldr	r3, [pc, #36]	; 20098c <tpl_wait_event_service+0xb4>
  200964:	e593300c 	ldr	r3, [r3, #12]
  200968:	e5933000 	ldr	r3, [r3]
  20096c:	e3530000 	cmp	r3, #0
  200970:	0a000001 	beq	20097c <tpl_wait_event_service+0xa4>
  200974:	e3a03006 	mov	r3, #6
  200978:	e54b3005 	strb	r3, [fp, #-5]
  20097c:	e55b3005 	ldrb	r3, [fp, #-5]
  200980:	e1a00003 	mov	r0, r3
  200984:	e24bd004 	sub	sp, fp, #4
  200988:	e8bd8800 	pop	{fp, pc}
  20098c:	0020363c 	.word	0x0020363c

00200990 <tpl_get_interrupt_lock_status>:
  200990:	e52db004 	push	{fp}		; (str fp, [sp, #-4]!)
  200994:	e28db000 	add	fp, sp, #0
  200998:	e24dd004 	sub	sp, sp, #4
  20099c:	e59f3050 	ldr	r3, [pc, #80]	; 2009f4 <tpl_get_interrupt_lock_status+0x64>
  2009a0:	e5d33000 	ldrb	r3, [r3]
  2009a4:	e3530001 	cmp	r3, #1
  2009a8:	0a000007 	beq	2009cc <tpl_get_interrupt_lock_status+0x3c>
  2009ac:	e59f3044 	ldr	r3, [pc, #68]	; 2009f8 <tpl_get_interrupt_lock_status+0x68>
  2009b0:	e5933000 	ldr	r3, [r3]
  2009b4:	e3530000 	cmp	r3, #0
  2009b8:	1a000003 	bne	2009cc <tpl_get_interrupt_lock_status+0x3c>
  2009bc:	e59f3038 	ldr	r3, [pc, #56]	; 2009fc <tpl_get_interrupt_lock_status+0x6c>
  2009c0:	e5933000 	ldr	r3, [r3]
  2009c4:	e3530000 	cmp	r3, #0
  2009c8:	0a000002 	beq	2009d8 <tpl_get_interrupt_lock_status+0x48>
  2009cc:	e3a03001 	mov	r3, #1
  2009d0:	e54b3001 	strb	r3, [fp, #-1]
  2009d4:	ea000001 	b	2009e0 <tpl_get_interrupt_lock_status+0x50>
  2009d8:	e3a03000 	mov	r3, #0
  2009dc:	e54b3001 	strb	r3, [fp, #-1]
  2009e0:	e55b3001 	ldrb	r3, [fp, #-1]
  2009e4:	e1a00003 	mov	r0, r3
  2009e8:	e28bd000 	add	sp, fp, #0
  2009ec:	e8bd0800 	pop	{fp}
  2009f0:	e12fff1e 	bx	lr
  2009f4:	00203610 	.word	0x00203610
  2009f8:	00203618 	.word	0x00203618
  2009fc:	00203614 	.word	0x00203614

00200a00 <tpl_reset_interrupt_lock_status>:
  200a00:	e52db004 	push	{fp}		; (str fp, [sp, #-4]!)
  200a04:	e28db000 	add	fp, sp, #0
  200a08:	e59f3038 	ldr	r3, [pc, #56]	; 200a48 <tpl_reset_interrupt_lock_status+0x48>
  200a0c:	e3a02000 	mov	r2, #0
  200a10:	e5c32000 	strb	r2, [r3]
  200a14:	e59f3030 	ldr	r3, [pc, #48]	; 200a4c <tpl_reset_interrupt_lock_status+0x4c>
  200a18:	e3a02000 	mov	r2, #0
  200a1c:	e5832000 	str	r2, [r3]
  200a20:	e59f3028 	ldr	r3, [pc, #40]	; 200a50 <tpl_reset_interrupt_lock_status+0x50>
  200a24:	e3a02000 	mov	r2, #0
  200a28:	e5832000 	str	r2, [r3]
  200a2c:	e59f3020 	ldr	r3, [pc, #32]	; 200a54 <tpl_reset_interrupt_lock_status+0x54>
  200a30:	e5932000 	ldr	r2, [r3]
  200a34:	e59f301c 	ldr	r3, [pc, #28]	; 200a58 <tpl_reset_interrupt_lock_status+0x58>
  200a38:	e5832000 	str	r2, [r3]
  200a3c:	e28bd000 	add	sp, fp, #0
  200a40:	e8bd0800 	pop	{fp}
  200a44:	e12fff1e 	bx	lr
  200a48:	00203610 	.word	0x00203610
  200a4c:	00203614 	.word	0x00203614
  200a50:	00203618 	.word	0x00203618
  200a54:	0020361c 	.word	0x0020361c
  200a58:	0020360c 	.word	0x0020360c

00200a5c <tpl_suspend_all_interrupts_service>:
  200a5c:	e92d4800 	push	{fp, lr}
  200a60:	e28db004 	add	fp, sp, #4
  200a64:	eb00086a 	bl	202c14 <tpl_disable_interrupts>
  200a68:	e59f3024 	ldr	r3, [pc, #36]	; 200a94 <tpl_suspend_all_interrupts_service+0x38>
  200a6c:	e5933000 	ldr	r3, [r3]
  200a70:	e2832001 	add	r2, r3, #1
  200a74:	e59f3018 	ldr	r3, [pc, #24]	; 200a94 <tpl_suspend_all_interrupts_service+0x38>
  200a78:	e5832000 	str	r2, [r3]
  200a7c:	e59f3014 	ldr	r3, [pc, #20]	; 200a98 <tpl_suspend_all_interrupts_service+0x3c>
  200a80:	e5933000 	ldr	r3, [r3]
  200a84:	e2832001 	add	r2, r3, #1
  200a88:	e59f3008 	ldr	r3, [pc, #8]	; 200a98 <tpl_suspend_all_interrupts_service+0x3c>
  200a8c:	e5832000 	str	r2, [r3]
  200a90:	e8bd8800 	pop	{fp, pc}
  200a94:	0020360c 	.word	0x0020360c
  200a98:	00203614 	.word	0x00203614

00200a9c <tpl_resume_all_interrupts_service>:
  200a9c:	e92d4800 	push	{fp, lr}
  200aa0:	e28db004 	add	fp, sp, #4
  200aa4:	e59f3048 	ldr	r3, [pc, #72]	; 200af4 <tpl_resume_all_interrupts_service+0x58>
  200aa8:	e5933000 	ldr	r3, [r3]
  200aac:	e3530000 	cmp	r3, #0
  200ab0:	0a00000e 	beq	200af0 <tpl_resume_all_interrupts_service+0x54>
  200ab4:	e59f303c 	ldr	r3, [pc, #60]	; 200af8 <tpl_resume_all_interrupts_service+0x5c>
  200ab8:	e5933000 	ldr	r3, [r3]
  200abc:	e2432001 	sub	r2, r3, #1
  200ac0:	e59f3030 	ldr	r3, [pc, #48]	; 200af8 <tpl_resume_all_interrupts_service+0x5c>
  200ac4:	e5832000 	str	r2, [r3]
  200ac8:	e59f3024 	ldr	r3, [pc, #36]	; 200af4 <tpl_resume_all_interrupts_service+0x58>
  200acc:	e5933000 	ldr	r3, [r3]
  200ad0:	e2432001 	sub	r2, r3, #1
  200ad4:	e59f3018 	ldr	r3, [pc, #24]	; 200af4 <tpl_resume_all_interrupts_service+0x58>
  200ad8:	e5832000 	str	r2, [r3]
  200adc:	e59f3014 	ldr	r3, [pc, #20]	; 200af8 <tpl_resume_all_interrupts_service+0x5c>
  200ae0:	e5933000 	ldr	r3, [r3]
  200ae4:	e3530000 	cmp	r3, #0
  200ae8:	1a000000 	bne	200af0 <tpl_resume_all_interrupts_service+0x54>
  200aec:	eb000840 	bl	202bf4 <tpl_enable_interrupts>
  200af0:	e8bd8800 	pop	{fp, pc}
  200af4:	00203614 	.word	0x00203614
  200af8:	0020360c 	.word	0x0020360c

00200afc <tpl_disable_all_interrupts_service>:
  200afc:	e92d4800 	push	{fp, lr}
  200b00:	e28db004 	add	fp, sp, #4
  200b04:	e59f302c 	ldr	r3, [pc, #44]	; 200b38 <tpl_disable_all_interrupts_service+0x3c>
  200b08:	e5933000 	ldr	r3, [r3]
  200b0c:	e3530000 	cmp	r3, #0
  200b10:	1a000007 	bne	200b34 <tpl_disable_all_interrupts_service+0x38>
  200b14:	e59f3020 	ldr	r3, [pc, #32]	; 200b3c <tpl_disable_all_interrupts_service+0x40>
  200b18:	e5933000 	ldr	r3, [r3]
  200b1c:	e3530000 	cmp	r3, #0
  200b20:	1a000003 	bne	200b34 <tpl_disable_all_interrupts_service+0x38>
  200b24:	eb00083a 	bl	202c14 <tpl_disable_interrupts>
  200b28:	e59f3010 	ldr	r3, [pc, #16]	; 200b40 <tpl_disable_all_interrupts_service+0x44>
  200b2c:	e3a02001 	mov	r2, #1
  200b30:	e5c32000 	strb	r2, [r3]
  200b34:	e8bd8800 	pop	{fp, pc}
  200b38:	00203614 	.word	0x00203614
  200b3c:	00203618 	.word	0x00203618
  200b40:	00203610 	.word	0x00203610

00200b44 <tpl_enable_all_interrupts_service>:
  200b44:	e92d4800 	push	{fp, lr}
  200b48:	e28db004 	add	fp, sp, #4
  200b4c:	e59f301c 	ldr	r3, [pc, #28]	; 200b70 <tpl_enable_all_interrupts_service+0x2c>
  200b50:	e5d33000 	ldrb	r3, [r3]
  200b54:	e3530000 	cmp	r3, #0
  200b58:	0a000003 	beq	200b6c <tpl_enable_all_interrupts_service+0x28>
  200b5c:	e59f300c 	ldr	r3, [pc, #12]	; 200b70 <tpl_enable_all_interrupts_service+0x2c>
  200b60:	e3a02000 	mov	r2, #0
  200b64:	e5c32000 	strb	r2, [r3]
  200b68:	eb000821 	bl	202bf4 <tpl_enable_interrupts>
  200b6c:	e8bd8800 	pop	{fp, pc}
  200b70:	00203610 	.word	0x00203610

00200b74 <tpl_suspend_os_interrupts_service>:
  200b74:	e92d4800 	push	{fp, lr}
  200b78:	e28db004 	add	fp, sp, #4
  200b7c:	eb000824 	bl	202c14 <tpl_disable_interrupts>
  200b80:	e59f3024 	ldr	r3, [pc, #36]	; 200bac <tpl_suspend_os_interrupts_service+0x38>
  200b84:	e5933000 	ldr	r3, [r3]
  200b88:	e2832001 	add	r2, r3, #1
  200b8c:	e59f3018 	ldr	r3, [pc, #24]	; 200bac <tpl_suspend_os_interrupts_service+0x38>
  200b90:	e5832000 	str	r2, [r3]
  200b94:	e59f3014 	ldr	r3, [pc, #20]	; 200bb0 <tpl_suspend_os_interrupts_service+0x3c>
  200b98:	e5933000 	ldr	r3, [r3]
  200b9c:	e2832001 	add	r2, r3, #1
  200ba0:	e59f3008 	ldr	r3, [pc, #8]	; 200bb0 <tpl_suspend_os_interrupts_service+0x3c>
  200ba4:	e5832000 	str	r2, [r3]
  200ba8:	e8bd8800 	pop	{fp, pc}
  200bac:	0020360c 	.word	0x0020360c
  200bb0:	00203618 	.word	0x00203618

00200bb4 <tpl_resume_os_interrupts_service>:
  200bb4:	e92d4800 	push	{fp, lr}
  200bb8:	e28db004 	add	fp, sp, #4
  200bbc:	e59f3048 	ldr	r3, [pc, #72]	; 200c0c <tpl_resume_os_interrupts_service+0x58>
  200bc0:	e5933000 	ldr	r3, [r3]
  200bc4:	e3530000 	cmp	r3, #0
  200bc8:	0a00000e 	beq	200c08 <tpl_resume_os_interrupts_service+0x54>
  200bcc:	e59f303c 	ldr	r3, [pc, #60]	; 200c10 <tpl_resume_os_interrupts_service+0x5c>
  200bd0:	e5933000 	ldr	r3, [r3]
  200bd4:	e2432001 	sub	r2, r3, #1
  200bd8:	e59f3030 	ldr	r3, [pc, #48]	; 200c10 <tpl_resume_os_interrupts_service+0x5c>
  200bdc:	e5832000 	str	r2, [r3]
  200be0:	e59f3024 	ldr	r3, [pc, #36]	; 200c0c <tpl_resume_os_interrupts_service+0x58>
  200be4:	e5933000 	ldr	r3, [r3]
  200be8:	e2432001 	sub	r2, r3, #1
  200bec:	e59f3018 	ldr	r3, [pc, #24]	; 200c0c <tpl_resume_os_interrupts_service+0x58>
  200bf0:	e5832000 	str	r2, [r3]
  200bf4:	e59f3014 	ldr	r3, [pc, #20]	; 200c10 <tpl_resume_os_interrupts_service+0x5c>
  200bf8:	e5933000 	ldr	r3, [r3]
  200bfc:	e3530000 	cmp	r3, #0
  200c00:	1a000000 	bne	200c08 <tpl_resume_os_interrupts_service+0x54>
  200c04:	eb0007fa 	bl	202bf4 <tpl_enable_interrupts>
  200c08:	e8bd8800 	pop	{fp, pc}
  200c0c:	00203618 	.word	0x00203618
  200c10:	0020360c 	.word	0x0020360c

00200c14 <tpl_terminate_isr2_service>:
  200c14:	e92d4800 	push	{fp, lr}
  200c18:	e28db004 	add	fp, sp, #4
  200c1c:	e24dd004 	sub	sp, sp, #4
  200c20:	e3a03000 	mov	r3, #0
  200c24:	e54b3005 	strb	r3, [fp, #-5]
  200c28:	ebffff58 	bl	200990 <tpl_get_interrupt_lock_status>
  200c2c:	e1a03000 	mov	r3, r0
  200c30:	e3530000 	cmp	r3, #0
  200c34:	0a000001 	beq	200c40 <tpl_terminate_isr2_service+0x2c>
  200c38:	e3a03013 	mov	r3, #19
  200c3c:	e54b3005 	strb	r3, [fp, #-5]
  200c40:	e55b3005 	ldrb	r3, [fp, #-5]
  200c44:	e3530000 	cmp	r3, #0
  200c48:	1a000005 	bne	200c64 <tpl_terminate_isr2_service+0x50>
  200c4c:	eb000526 	bl	2020ec <tpl_current_os_state>
  200c50:	e1a03000 	mov	r3, r0
  200c54:	e3530003 	cmp	r3, #3
  200c58:	0a000001 	beq	200c64 <tpl_terminate_isr2_service+0x50>
  200c5c:	e3a03002 	mov	r3, #2
  200c60:	e54b3005 	strb	r3, [fp, #-5]
  200c64:	e55b3005 	ldrb	r3, [fp, #-5]
  200c68:	e3530000 	cmp	r3, #0
  200c6c:	1a000006 	bne	200c8c <tpl_terminate_isr2_service+0x78>
  200c70:	e59f304c 	ldr	r3, [pc, #76]	; 200cc4 <tpl_terminate_isr2_service+0xb0>
  200c74:	e593300c 	ldr	r3, [r3, #12]
  200c78:	e5933000 	ldr	r3, [r3]
  200c7c:	e3530000 	cmp	r3, #0
  200c80:	0a000001 	beq	200c8c <tpl_terminate_isr2_service+0x78>
  200c84:	e3a03006 	mov	r3, #6
  200c88:	e54b3005 	strb	r3, [fp, #-5]
  200c8c:	e55b3005 	ldrb	r3, [fp, #-5]
  200c90:	e3530000 	cmp	r3, #0
  200c94:	1a000006 	bne	200cb4 <tpl_terminate_isr2_service+0xa0>
  200c98:	e59f3024 	ldr	r3, [pc, #36]	; 200cc4 <tpl_terminate_isr2_service+0xb0>
  200c9c:	e593300c 	ldr	r3, [r3, #12]
  200ca0:	e5d32004 	ldrb	r2, [r3, #4]
  200ca4:	e2422001 	sub	r2, r2, #1
  200ca8:	e20220ff 	and	r2, r2, #255	; 0xff
  200cac:	e5c32004 	strb	r2, [r3, #4]
  200cb0:	eb0005d2 	bl	202400 <tpl_schedule_from_dying>
  200cb4:	e55b3005 	ldrb	r3, [fp, #-5]
  200cb8:	e1a00003 	mov	r0, r3
  200cbc:	e24bd004 	sub	sp, fp, #4
  200cc0:	e8bd8800 	pop	{fp, pc}
  200cc4:	0020363c 	.word	0x0020363c

00200cc8 <tpl_null_it>:
  200cc8:	e52db004 	push	{fp}		; (str fp, [sp, #-4]!)
  200ccc:	e28db000 	add	fp, sp, #0
  200cd0:	e24dd004 	sub	sp, sp, #4
  200cd4:	e50b0004 	str	r0, [fp, #-4]
  200cd8:	e28bd000 	add	sp, fp, #0
  200cdc:	e8bd0800 	pop	{fp}
  200ce0:	e12fff1e 	bx	lr

00200ce4 <tpl_activate_isr>:
  200ce4:	e92d4800 	push	{fp, lr}
  200ce8:	e28db004 	add	fp, sp, #4
  200cec:	e24dd008 	sub	sp, sp, #8
  200cf0:	e1a03000 	mov	r3, r0
  200cf4:	e54b300c 	strb	r3, [fp, #-12]
  200cf8:	e15b20dc 	ldrsb	r2, [fp, #-12]
  200cfc:	e59f307c 	ldr	r3, [pc, #124]	; 200d80 <tpl_activate_isr+0x9c>
  200d00:	e7933102 	ldr	r3, [r3, r2, lsl #2]
  200d04:	e50b3008 	str	r3, [fp, #-8]
  200d08:	e51b3008 	ldr	r3, [fp, #-8]
  200d0c:	e5d32004 	ldrb	r2, [r3, #4]
  200d10:	e15b10dc 	ldrsb	r1, [fp, #-12]
  200d14:	e59f3068 	ldr	r3, [pc, #104]	; 200d84 <tpl_activate_isr+0xa0>
  200d18:	e7933101 	ldr	r3, [r3, r1, lsl #2]
  200d1c:	e5d33016 	ldrb	r3, [r3, #22]
  200d20:	e1520003 	cmp	r2, r3
  200d24:	2a000013 	bcs	200d78 <tpl_activate_isr+0x94>
  200d28:	e51b3008 	ldr	r3, [fp, #-8]
  200d2c:	e5d33004 	ldrb	r3, [r3, #4]
  200d30:	e3530000 	cmp	r3, #0
  200d34:	1a000006 	bne	200d54 <tpl_activate_isr+0x70>
  200d38:	e51b3008 	ldr	r3, [fp, #-8]
  200d3c:	e5d33006 	ldrb	r3, [r3, #6]
  200d40:	e3530000 	cmp	r3, #0
  200d44:	1a000002 	bne	200d54 <tpl_activate_isr+0x70>
  200d48:	e51b3008 	ldr	r3, [fp, #-8]
  200d4c:	e3a02005 	mov	r2, #5
  200d50:	e5c32006 	strb	r2, [r3, #6]
  200d54:	e15b30dc 	ldrsb	r3, [fp, #-12]
  200d58:	e1a00003 	mov	r0, r3
  200d5c:	eb00048f 	bl	201fa0 <tpl_put_new_proc>
  200d60:	e51b3008 	ldr	r3, [fp, #-8]
  200d64:	e5d33004 	ldrb	r3, [r3, #4]
  200d68:	e2833001 	add	r3, r3, #1
  200d6c:	e20320ff 	and	r2, r3, #255	; 0xff
  200d70:	e51b3008 	ldr	r3, [fp, #-8]
  200d74:	e5c32004 	strb	r2, [r3, #4]
  200d78:	e24bd004 	sub	sp, fp, #4
  200d7c:	e8bd8800 	pop	{fp, pc}
  200d80:	0020357c 	.word	0x0020357c
  200d84:	0020355c 	.word	0x0020355c

00200d88 <tpl_central_interrupt_handler>:
  200d88:	e92d4800 	push	{fp, lr}
  200d8c:	e28db004 	add	fp, sp, #4
  200d90:	e24dd008 	sub	sp, sp, #8
  200d94:	e1a03000 	mov	r3, r0
  200d98:	e14b30bc 	strh	r3, [fp, #-12]
  200d9c:	e15b30bc 	ldrh	r3, [fp, #-12]
  200da0:	e3530002 	cmp	r3, #2
  200da4:	9a000037 	bls	200e88 <tpl_central_interrupt_handler+0x100>
  200da8:	e15b30bc 	ldrh	r3, [fp, #-12]
  200dac:	e3530006 	cmp	r3, #6
  200db0:	8a000034 	bhi	200e88 <tpl_central_interrupt_handler+0x100>
  200db4:	e59f30d4 	ldr	r3, [pc, #212]	; 200e90 <tpl_central_interrupt_handler+0x108>
  200db8:	e5933000 	ldr	r3, [r3]
  200dbc:	e2832001 	add	r2, r3, #1
  200dc0:	e59f30c8 	ldr	r3, [pc, #200]	; 200e90 <tpl_central_interrupt_handler+0x108>
  200dc4:	e5832000 	str	r2, [r3]
  200dc8:	e15b30bc 	ldrh	r3, [fp, #-12]
  200dcc:	e2432003 	sub	r2, r3, #3
  200dd0:	e59f30bc 	ldr	r3, [pc, #188]	; 200e94 <tpl_central_interrupt_handler+0x10c>
  200dd4:	e7933102 	ldr	r3, [r3, r2, lsl #2]
  200dd8:	e50b3008 	str	r3, [fp, #-8]
  200ddc:	e51b3008 	ldr	r3, [fp, #-8]
  200de0:	e3530000 	cmp	r3, #0
  200de4:	0a00001d 	beq	200e60 <tpl_central_interrupt_handler+0xd8>
  200de8:	e51b3008 	ldr	r3, [fp, #-8]
  200dec:	e5933004 	ldr	r3, [r3, #4]
  200df0:	e3530000 	cmp	r3, #0
  200df4:	1a000016 	bne	200e54 <tpl_central_interrupt_handler+0xcc>
  200df8:	e51b3008 	ldr	r3, [fp, #-8]
  200dfc:	e5d33008 	ldrb	r3, [r3, #8]
  200e00:	e1a03c03 	lsl	r3, r3, #24
  200e04:	e1a03c43 	asr	r3, r3, #24
  200e08:	e1a00003 	mov	r0, r3
  200e0c:	ebffffb4 	bl	200ce4 <tpl_activate_isr>
  200e10:	ea000012 	b	200e60 <tpl_central_interrupt_handler+0xd8>
  200e14:	e51b3008 	ldr	r3, [fp, #-8]
  200e18:	e5933000 	ldr	r3, [r3]
  200e1c:	e1a0e00f 	mov	lr, pc
  200e20:	e12fff13 	bx	r3
  200e24:	e1a03000 	mov	r3, r0
  200e28:	e3530001 	cmp	r3, #1
  200e2c:	1a000005 	bne	200e48 <tpl_central_interrupt_handler+0xc0>
  200e30:	e51b3008 	ldr	r3, [fp, #-8]
  200e34:	e5d33008 	ldrb	r3, [r3, #8]
  200e38:	e1a03c03 	lsl	r3, r3, #24
  200e3c:	e1a03c43 	asr	r3, r3, #24
  200e40:	e1a00003 	mov	r0, r3
  200e44:	ebffffa6 	bl	200ce4 <tpl_activate_isr>
  200e48:	e51b3008 	ldr	r3, [fp, #-8]
  200e4c:	e5933004 	ldr	r3, [r3, #4]
  200e50:	e50b3008 	str	r3, [fp, #-8]
  200e54:	e51b3008 	ldr	r3, [fp, #-8]
  200e58:	e3530000 	cmp	r3, #0
  200e5c:	1affffec 	bne	200e14 <tpl_central_interrupt_handler+0x8c>
  200e60:	e59f3028 	ldr	r3, [pc, #40]	; 200e90 <tpl_central_interrupt_handler+0x108>
  200e64:	e5933000 	ldr	r3, [r3]
  200e68:	e2432001 	sub	r2, r3, #1
  200e6c:	e59f301c 	ldr	r3, [pc, #28]	; 200e90 <tpl_central_interrupt_handler+0x108>
  200e70:	e5832000 	str	r2, [r3]
  200e74:	e59f3014 	ldr	r3, [pc, #20]	; 200e90 <tpl_central_interrupt_handler+0x108>
  200e78:	e5933000 	ldr	r3, [r3]
  200e7c:	e3530000 	cmp	r3, #0
  200e80:	1a000000 	bne	200e88 <tpl_central_interrupt_handler+0x100>
  200e84:	eb000503 	bl	202298 <tpl_schedule_from_running>
  200e88:	e24bd004 	sub	sp, fp, #4
  200e8c:	e8bd8800 	pop	{fp, pc}
  200e90:	00203620 	.word	0x00203620
  200e94:	0020359c 	.word	0x0020359c

00200e98 <tpl_central_interrupt_handler_2>:
  200e98:	e92d4800 	push	{fp, lr}
  200e9c:	e28db004 	add	fp, sp, #4
  200ea0:	e24dd008 	sub	sp, sp, #8
  200ea4:	e50b000c 	str	r0, [fp, #-12]
  200ea8:	e51b300c 	ldr	r3, [fp, #-12]
  200eac:	e50b3008 	str	r3, [fp, #-8]
  200eb0:	e51b3008 	ldr	r3, [fp, #-8]
  200eb4:	e1a03803 	lsl	r3, r3, #16
  200eb8:	e1a03823 	lsr	r3, r3, #16
  200ebc:	e1a00003 	mov	r0, r3
  200ec0:	ebffffb0 	bl	200d88 <tpl_central_interrupt_handler>
  200ec4:	e24bd004 	sub	sp, fp, #4
  200ec8:	e8bd8800 	pop	{fp, pc}

00200ecc <tpl_release_all_resources>:
  200ecc:	e52db004 	push	{fp}		; (str fp, [sp, #-4]!)
  200ed0:	e28db000 	add	fp, sp, #0
  200ed4:	e24dd010 	sub	sp, sp, #16
  200ed8:	e1a03000 	mov	r3, r0
  200edc:	e54b3010 	strb	r3, [fp, #-16]
  200ee0:	e15b21d0 	ldrsb	r2, [fp, #-16]
  200ee4:	e59f30a4 	ldr	r3, [pc, #164]	; 200f90 <tpl_release_all_resources+0xc4>
  200ee8:	e7933102 	ldr	r3, [r3, r2, lsl #2]
  200eec:	e5933000 	ldr	r3, [r3]
  200ef0:	e50b3004 	str	r3, [fp, #-4]
  200ef4:	e51b3004 	ldr	r3, [fp, #-4]
  200ef8:	e3530000 	cmp	r3, #0
  200efc:	0a000020 	beq	200f84 <tpl_release_all_resources+0xb8>
  200f00:	e15b21d0 	ldrsb	r2, [fp, #-16]
  200f04:	e59f3084 	ldr	r3, [pc, #132]	; 200f90 <tpl_release_all_resources+0xc4>
  200f08:	e7933102 	ldr	r3, [r3, r2, lsl #2]
  200f0c:	e3a02000 	mov	r2, #0
  200f10:	e5832000 	str	r2, [r3]
  200f14:	e51b3004 	ldr	r3, [fp, #-4]
  200f18:	e5933004 	ldr	r3, [r3, #4]
  200f1c:	e50b3008 	str	r3, [fp, #-8]
  200f20:	e59f306c 	ldr	r3, [pc, #108]	; 200f94 <tpl_release_all_resources+0xc8>
  200f24:	e5d32000 	ldrb	r2, [r3]
  200f28:	e51b3004 	ldr	r3, [fp, #-4]
  200f2c:	e5c32002 	strb	r2, [r3, #2]
  200f30:	e51b3004 	ldr	r3, [fp, #-4]
  200f34:	e3a02000 	mov	r2, #0
  200f38:	e5832004 	str	r2, [r3, #4]
  200f3c:	e51b3008 	ldr	r3, [fp, #-8]
  200f40:	e50b3004 	str	r3, [fp, #-4]
  200f44:	ea00000b 	b	200f78 <tpl_release_all_resources+0xac>
  200f48:	e51b3004 	ldr	r3, [fp, #-4]
  200f4c:	e5933004 	ldr	r3, [r3, #4]
  200f50:	e50b300c 	str	r3, [fp, #-12]
  200f54:	e59f3038 	ldr	r3, [pc, #56]	; 200f94 <tpl_release_all_resources+0xc8>
  200f58:	e5d32000 	ldrb	r2, [r3]
  200f5c:	e51b3004 	ldr	r3, [fp, #-4]
  200f60:	e5c32002 	strb	r2, [r3, #2]
  200f64:	e51b3004 	ldr	r3, [fp, #-4]
  200f68:	e3a02000 	mov	r2, #0
  200f6c:	e5832004 	str	r2, [r3, #4]
  200f70:	e51b300c 	ldr	r3, [fp, #-12]
  200f74:	e50b3004 	str	r3, [fp, #-4]
  200f78:	e51b3004 	ldr	r3, [fp, #-4]
  200f7c:	e3530000 	cmp	r3, #0
  200f80:	1afffff0 	bne	200f48 <tpl_release_all_resources+0x7c>
  200f84:	e28bd000 	add	sp, fp, #0
  200f88:	e8bd0800 	pop	{fp}
  200f8c:	e12fff1e 	bx	lr
  200f90:	0020357c 	.word	0x0020357c
  200f94:	0020336d 	.word	0x0020336d

00200f98 <tpl_get_resource_service>:
  200f98:	e92d4800 	push	{fp, lr}
  200f9c:	e28db004 	add	fp, sp, #4
  200fa0:	e24dd00c 	sub	sp, sp, #12
  200fa4:	e1a03000 	mov	r3, r0
  200fa8:	e54b3010 	strb	r3, [fp, #-16]
  200fac:	e3a03000 	mov	r3, #0
  200fb0:	e54b3005 	strb	r3, [fp, #-5]
  200fb4:	ebfffe75 	bl	200990 <tpl_get_interrupt_lock_status>
  200fb8:	e1a03000 	mov	r3, r0
  200fbc:	e3530000 	cmp	r3, #0
  200fc0:	0a000001 	beq	200fcc <tpl_get_resource_service+0x34>
  200fc4:	e3a03013 	mov	r3, #19
  200fc8:	e54b3005 	strb	r3, [fp, #-5]
  200fcc:	e55b3005 	ldrb	r3, [fp, #-5]
  200fd0:	e3530000 	cmp	r3, #0
  200fd4:	1a000004 	bne	200fec <tpl_get_resource_service+0x54>
  200fd8:	e55b3010 	ldrb	r3, [fp, #-16]
  200fdc:	e3530000 	cmp	r3, #0
  200fe0:	0a000001 	beq	200fec <tpl_get_resource_service+0x54>
  200fe4:	e3a03003 	mov	r3, #3
  200fe8:	e54b3005 	strb	r3, [fp, #-5]
  200fec:	e55b3005 	ldrb	r3, [fp, #-5]
  200ff0:	e3530000 	cmp	r3, #0
  200ff4:	1a000043 	bne	201108 <tpl_get_resource_service+0x170>
  200ff8:	e55b2010 	ldrb	r2, [fp, #-16]
  200ffc:	e59f3114 	ldr	r3, [pc, #276]	; 201118 <tpl_get_resource_service+0x180>
  201000:	e7933102 	ldr	r3, [r3, r2, lsl #2]
  201004:	e50b300c 	str	r3, [fp, #-12]
  201008:	e55b3005 	ldrb	r3, [fp, #-5]
  20100c:	e3530000 	cmp	r3, #0
  201010:	1a000016 	bne	201070 <tpl_get_resource_service+0xd8>
  201014:	e51b300c 	ldr	r3, [fp, #-12]
  201018:	e5d32002 	ldrb	r2, [r3, #2]
  20101c:	e59f30f8 	ldr	r3, [pc, #248]	; 20111c <tpl_get_resource_service+0x184>
  201020:	e5d33000 	ldrb	r3, [r3]
  201024:	e1a02c02 	lsl	r2, r2, #24
  201028:	e1a02c42 	asr	r2, r2, #24
  20102c:	e1a03c03 	lsl	r3, r3, #24
  201030:	e1a03c43 	asr	r3, r3, #24
  201034:	e1520003 	cmp	r2, r3
  201038:	1a00000a 	bne	201068 <tpl_get_resource_service+0xd0>
  20103c:	e59f30dc 	ldr	r3, [pc, #220]	; 201120 <tpl_get_resource_service+0x188>
  201040:	e5933004 	ldr	r3, [r3, #4]
  201044:	e5d32015 	ldrb	r2, [r3, #21]
  201048:	e51b300c 	ldr	r3, [fp, #-12]
  20104c:	e5d33000 	ldrb	r3, [r3]
  201050:	e1a02c02 	lsl	r2, r2, #24
  201054:	e1a02c42 	asr	r2, r2, #24
  201058:	e1a03c03 	lsl	r3, r3, #24
  20105c:	e1a03c43 	asr	r3, r3, #24
  201060:	e1520003 	cmp	r2, r3
  201064:	da000001 	ble	201070 <tpl_get_resource_service+0xd8>
  201068:	e3a03001 	mov	r3, #1
  20106c:	e54b3005 	strb	r3, [fp, #-5]
  201070:	e55b3005 	ldrb	r3, [fp, #-5]
  201074:	e3530000 	cmp	r3, #0
  201078:	1a000022 	bne	201108 <tpl_get_resource_service+0x170>
  20107c:	e59f309c 	ldr	r3, [pc, #156]	; 201120 <tpl_get_resource_service+0x188>
  201080:	e5933010 	ldr	r3, [r3, #16]
  201084:	e20320ff 	and	r2, r3, #255	; 0xff
  201088:	e51b300c 	ldr	r3, [fp, #-12]
  20108c:	e5c32002 	strb	r2, [r3, #2]
  201090:	e59f3088 	ldr	r3, [pc, #136]	; 201120 <tpl_get_resource_service+0x188>
  201094:	e593300c 	ldr	r3, [r3, #12]
  201098:	e5932000 	ldr	r2, [r3]
  20109c:	e51b300c 	ldr	r3, [fp, #-12]
  2010a0:	e5832004 	str	r2, [r3, #4]
  2010a4:	e59f3074 	ldr	r3, [pc, #116]	; 201120 <tpl_get_resource_service+0x188>
  2010a8:	e593300c 	ldr	r3, [r3, #12]
  2010ac:	e51b200c 	ldr	r2, [fp, #-12]
  2010b0:	e5832000 	str	r2, [r3]
  2010b4:	e59f3064 	ldr	r3, [pc, #100]	; 201120 <tpl_get_resource_service+0x188>
  2010b8:	e593300c 	ldr	r3, [r3, #12]
  2010bc:	e5d32005 	ldrb	r2, [r3, #5]
  2010c0:	e51b300c 	ldr	r3, [fp, #-12]
  2010c4:	e5c32001 	strb	r2, [r3, #1]
  2010c8:	e59f3050 	ldr	r3, [pc, #80]	; 201120 <tpl_get_resource_service+0x188>
  2010cc:	e593300c 	ldr	r3, [r3, #12]
  2010d0:	e5d32005 	ldrb	r2, [r3, #5]
  2010d4:	e51b300c 	ldr	r3, [fp, #-12]
  2010d8:	e5d33000 	ldrb	r3, [r3]
  2010dc:	e1a02c02 	lsl	r2, r2, #24
  2010e0:	e1a02c42 	asr	r2, r2, #24
  2010e4:	e1a03c03 	lsl	r3, r3, #24
  2010e8:	e1a03c43 	asr	r3, r3, #24
  2010ec:	e1520003 	cmp	r2, r3
  2010f0:	aa000004 	bge	201108 <tpl_get_resource_service+0x170>
  2010f4:	e59f3024 	ldr	r3, [pc, #36]	; 201120 <tpl_get_resource_service+0x188>
  2010f8:	e593300c 	ldr	r3, [r3, #12]
  2010fc:	e51b200c 	ldr	r2, [fp, #-12]
  201100:	e5d22000 	ldrb	r2, [r2]
  201104:	e5c32005 	strb	r2, [r3, #5]
  201108:	e55b3005 	ldrb	r3, [fp, #-5]
  20110c:	e1a00003 	mov	r0, r3
  201110:	e24bd004 	sub	sp, fp, #4
  201114:	e8bd8800 	pop	{fp, pc}
  201118:	00203388 	.word	0x00203388
  20111c:	0020336d 	.word	0x0020336d
  201120:	0020363c 	.word	0x0020363c

00201124 <tpl_release_resource_service>:
  201124:	e92d4800 	push	{fp, lr}
  201128:	e28db004 	add	fp, sp, #4
  20112c:	e24dd00c 	sub	sp, sp, #12
  201130:	e1a03000 	mov	r3, r0
  201134:	e54b3010 	strb	r3, [fp, #-16]
  201138:	e3a03000 	mov	r3, #0
  20113c:	e54b3005 	strb	r3, [fp, #-5]
  201140:	ebfffe12 	bl	200990 <tpl_get_interrupt_lock_status>
  201144:	e1a03000 	mov	r3, r0
  201148:	e3530000 	cmp	r3, #0
  20114c:	0a000001 	beq	201158 <tpl_release_resource_service+0x34>
  201150:	e3a03013 	mov	r3, #19
  201154:	e54b3005 	strb	r3, [fp, #-5]
  201158:	e55b3005 	ldrb	r3, [fp, #-5]
  20115c:	e3530000 	cmp	r3, #0
  201160:	1a000004 	bne	201178 <tpl_release_resource_service+0x54>
  201164:	e55b3010 	ldrb	r3, [fp, #-16]
  201168:	e3530000 	cmp	r3, #0
  20116c:	0a000001 	beq	201178 <tpl_release_resource_service+0x54>
  201170:	e3a03003 	mov	r3, #3
  201174:	e54b3005 	strb	r3, [fp, #-5]
  201178:	e55b3005 	ldrb	r3, [fp, #-5]
  20117c:	e3530000 	cmp	r3, #0
  201180:	1a000033 	bne	201254 <tpl_release_resource_service+0x130>
  201184:	e55b2010 	ldrb	r2, [fp, #-16]
  201188:	e59f30d4 	ldr	r3, [pc, #212]	; 201264 <tpl_release_resource_service+0x140>
  20118c:	e7933102 	ldr	r3, [r3, r2, lsl #2]
  201190:	e50b300c 	str	r3, [fp, #-12]
  201194:	e55b3005 	ldrb	r3, [fp, #-5]
  201198:	e3530000 	cmp	r3, #0
  20119c:	1a00000c 	bne	2011d4 <tpl_release_resource_service+0xb0>
  2011a0:	e59f30c0 	ldr	r3, [pc, #192]	; 201268 <tpl_release_resource_service+0x144>
  2011a4:	e5933004 	ldr	r3, [r3, #4]
  2011a8:	e5d32015 	ldrb	r2, [r3, #21]
  2011ac:	e51b300c 	ldr	r3, [fp, #-12]
  2011b0:	e5d33000 	ldrb	r3, [r3]
  2011b4:	e1a02c02 	lsl	r2, r2, #24
  2011b8:	e1a02c42 	asr	r2, r2, #24
  2011bc:	e1a03c03 	lsl	r3, r3, #24
  2011c0:	e1a03c43 	asr	r3, r3, #24
  2011c4:	e1520003 	cmp	r2, r3
  2011c8:	da000001 	ble	2011d4 <tpl_release_resource_service+0xb0>
  2011cc:	e3a03001 	mov	r3, #1
  2011d0:	e54b3005 	strb	r3, [fp, #-5]
  2011d4:	e55b3005 	ldrb	r3, [fp, #-5]
  2011d8:	e3530000 	cmp	r3, #0
  2011dc:	1a000007 	bne	201200 <tpl_release_resource_service+0xdc>
  2011e0:	e59f3080 	ldr	r3, [pc, #128]	; 201268 <tpl_release_resource_service+0x144>
  2011e4:	e593300c 	ldr	r3, [r3, #12]
  2011e8:	e5932000 	ldr	r2, [r3]
  2011ec:	e51b300c 	ldr	r3, [fp, #-12]
  2011f0:	e1520003 	cmp	r2, r3
  2011f4:	0a000001 	beq	201200 <tpl_release_resource_service+0xdc>
  2011f8:	e3a03005 	mov	r3, #5
  2011fc:	e54b3005 	strb	r3, [fp, #-5]
  201200:	e55b3005 	ldrb	r3, [fp, #-5]
  201204:	e3530000 	cmp	r3, #0
  201208:	1a000011 	bne	201254 <tpl_release_resource_service+0x130>
  20120c:	e59f3054 	ldr	r3, [pc, #84]	; 201268 <tpl_release_resource_service+0x144>
  201210:	e593300c 	ldr	r3, [r3, #12]
  201214:	e51b200c 	ldr	r2, [fp, #-12]
  201218:	e5d22001 	ldrb	r2, [r2, #1]
  20121c:	e5c32005 	strb	r2, [r3, #5]
  201220:	e59f3040 	ldr	r3, [pc, #64]	; 201268 <tpl_release_resource_service+0x144>
  201224:	e593300c 	ldr	r3, [r3, #12]
  201228:	e51b200c 	ldr	r2, [fp, #-12]
  20122c:	e5922004 	ldr	r2, [r2, #4]
  201230:	e5832000 	str	r2, [r3]
  201234:	e51b300c 	ldr	r3, [fp, #-12]
  201238:	e3a02000 	mov	r2, #0
  20123c:	e5832004 	str	r2, [r3, #4]
  201240:	e59f3024 	ldr	r3, [pc, #36]	; 20126c <tpl_release_resource_service+0x148>
  201244:	e5d32000 	ldrb	r2, [r3]
  201248:	e51b300c 	ldr	r3, [fp, #-12]
  20124c:	e5c32002 	strb	r2, [r3, #2]
  201250:	eb000410 	bl	202298 <tpl_schedule_from_running>
  201254:	e55b3005 	ldrb	r3, [fp, #-5]
  201258:	e1a00003 	mov	r0, r3
  20125c:	e24bd004 	sub	sp, fp, #4
  201260:	e8bd8800 	pop	{fp, pc}
  201264:	00203388 	.word	0x00203388
  201268:	0020363c 	.word	0x0020363c
  20126c:	0020336d 	.word	0x0020336d

00201270 <tpl_activate_task_service>:
  201270:	e92d4800 	push	{fp, lr}
  201274:	e28db004 	add	fp, sp, #4
  201278:	e24dd008 	sub	sp, sp, #8
  20127c:	e1a03000 	mov	r3, r0
  201280:	e54b300c 	strb	r3, [fp, #-12]
  201284:	e3a03000 	mov	r3, #0
  201288:	e54b3005 	strb	r3, [fp, #-5]
  20128c:	ebfffdbf 	bl	200990 <tpl_get_interrupt_lock_status>
  201290:	e1a03000 	mov	r3, r0
  201294:	e3530000 	cmp	r3, #0
  201298:	0a000001 	beq	2012a4 <tpl_activate_task_service+0x34>
  20129c:	e3a03013 	mov	r3, #19
  2012a0:	e54b3005 	strb	r3, [fp, #-5]
  2012a4:	e55b3005 	ldrb	r3, [fp, #-5]
  2012a8:	e3530000 	cmp	r3, #0
  2012ac:	1a000007 	bne	2012d0 <tpl_activate_task_service+0x60>
  2012b0:	e15b30dc 	ldrsb	r3, [fp, #-12]
  2012b4:	e3530002 	cmp	r3, #2
  2012b8:	ca000002 	bgt	2012c8 <tpl_activate_task_service+0x58>
  2012bc:	e15b30dc 	ldrsb	r3, [fp, #-12]
  2012c0:	e3530000 	cmp	r3, #0
  2012c4:	aa000001 	bge	2012d0 <tpl_activate_task_service+0x60>
  2012c8:	e3a03003 	mov	r3, #3
  2012cc:	e54b3005 	strb	r3, [fp, #-5]
  2012d0:	e55b3005 	ldrb	r3, [fp, #-5]
  2012d4:	e3530000 	cmp	r3, #0
  2012d8:	1a000008 	bne	201300 <tpl_activate_task_service+0x90>
  2012dc:	e15b30dc 	ldrsb	r3, [fp, #-12]
  2012e0:	e1a00003 	mov	r0, r3
  2012e4:	eb000501 	bl	2026f0 <tpl_activate_task>
  2012e8:	e1a03000 	mov	r3, r0
  2012ec:	e54b3005 	strb	r3, [fp, #-5]
  2012f0:	e55b3005 	ldrb	r3, [fp, #-5]
  2012f4:	e3530020 	cmp	r3, #32
  2012f8:	1a000000 	bne	201300 <tpl_activate_task_service+0x90>
  2012fc:	eb0003e5 	bl	202298 <tpl_schedule_from_running>
  201300:	e55b3005 	ldrb	r3, [fp, #-5]
  201304:	e1a00003 	mov	r0, r3
  201308:	e24bd004 	sub	sp, fp, #4
  20130c:	e8bd8800 	pop	{fp, pc}

00201310 <tpl_terminate_task_service>:
  201310:	e92d4800 	push	{fp, lr}
  201314:	e28db004 	add	fp, sp, #4
  201318:	e24dd004 	sub	sp, sp, #4
  20131c:	e3a03000 	mov	r3, #0
  201320:	e54b3005 	strb	r3, [fp, #-5]
  201324:	ebfffd99 	bl	200990 <tpl_get_interrupt_lock_status>
  201328:	e1a03000 	mov	r3, r0
  20132c:	e3530000 	cmp	r3, #0
  201330:	0a000001 	beq	20133c <tpl_terminate_task_service+0x2c>
  201334:	e3a03013 	mov	r3, #19
  201338:	e54b3005 	strb	r3, [fp, #-5]
  20133c:	e55b3005 	ldrb	r3, [fp, #-5]
  201340:	e3530000 	cmp	r3, #0
  201344:	1a000005 	bne	201360 <tpl_terminate_task_service+0x50>
  201348:	eb000367 	bl	2020ec <tpl_current_os_state>
  20134c:	e1a03000 	mov	r3, r0
  201350:	e3530001 	cmp	r3, #1
  201354:	0a000001 	beq	201360 <tpl_terminate_task_service+0x50>
  201358:	e3a03002 	mov	r3, #2
  20135c:	e54b3005 	strb	r3, [fp, #-5]
  201360:	e55b3005 	ldrb	r3, [fp, #-5]
  201364:	e3530000 	cmp	r3, #0
  201368:	1a000006 	bne	201388 <tpl_terminate_task_service+0x78>
  20136c:	e59f304c 	ldr	r3, [pc, #76]	; 2013c0 <tpl_terminate_task_service+0xb0>
  201370:	e593300c 	ldr	r3, [r3, #12]
  201374:	e5933000 	ldr	r3, [r3]
  201378:	e3530000 	cmp	r3, #0
  20137c:	0a000001 	beq	201388 <tpl_terminate_task_service+0x78>
  201380:	e3a03006 	mov	r3, #6
  201384:	e54b3005 	strb	r3, [fp, #-5]
  201388:	e55b3005 	ldrb	r3, [fp, #-5]
  20138c:	e3530000 	cmp	r3, #0
  201390:	1a000006 	bne	2013b0 <tpl_terminate_task_service+0xa0>
  201394:	e59f3024 	ldr	r3, [pc, #36]	; 2013c0 <tpl_terminate_task_service+0xb0>
  201398:	e593300c 	ldr	r3, [r3, #12]
  20139c:	e5d32004 	ldrb	r2, [r3, #4]
  2013a0:	e2422001 	sub	r2, r2, #1
  2013a4:	e20220ff 	and	r2, r2, #255	; 0xff
  2013a8:	e5c32004 	strb	r2, [r3, #4]
  2013ac:	eb000413 	bl	202400 <tpl_schedule_from_dying>
  2013b0:	e55b3005 	ldrb	r3, [fp, #-5]
  2013b4:	e1a00003 	mov	r0, r3
  2013b8:	e24bd004 	sub	sp, fp, #4
  2013bc:	e8bd8800 	pop	{fp, pc}
  2013c0:	0020363c 	.word	0x0020363c

002013c4 <tpl_chain_task_service>:
  2013c4:	e92d4800 	push	{fp, lr}
  2013c8:	e28db004 	add	fp, sp, #4
  2013cc:	e24dd008 	sub	sp, sp, #8
  2013d0:	e1a03000 	mov	r3, r0
  2013d4:	e54b300c 	strb	r3, [fp, #-12]
  2013d8:	e3a03000 	mov	r3, #0
  2013dc:	e54b3005 	strb	r3, [fp, #-5]
  2013e0:	ebfffd6a 	bl	200990 <tpl_get_interrupt_lock_status>
  2013e4:	e1a03000 	mov	r3, r0
  2013e8:	e3530000 	cmp	r3, #0
  2013ec:	0a000001 	beq	2013f8 <tpl_chain_task_service+0x34>
  2013f0:	e3a03013 	mov	r3, #19
  2013f4:	e54b3005 	strb	r3, [fp, #-5]
  2013f8:	e55b3005 	ldrb	r3, [fp, #-5]
  2013fc:	e3530000 	cmp	r3, #0
  201400:	1a000005 	bne	20141c <tpl_chain_task_service+0x58>
  201404:	eb000338 	bl	2020ec <tpl_current_os_state>
  201408:	e1a03000 	mov	r3, r0
  20140c:	e3530001 	cmp	r3, #1
  201410:	0a000001 	beq	20141c <tpl_chain_task_service+0x58>
  201414:	e3a03002 	mov	r3, #2
  201418:	e54b3005 	strb	r3, [fp, #-5]
  20141c:	e55b3005 	ldrb	r3, [fp, #-5]
  201420:	e3530000 	cmp	r3, #0
  201424:	1a000007 	bne	201448 <tpl_chain_task_service+0x84>
  201428:	e15b30dc 	ldrsb	r3, [fp, #-12]
  20142c:	e3530002 	cmp	r3, #2
  201430:	ca000002 	bgt	201440 <tpl_chain_task_service+0x7c>
  201434:	e15b30dc 	ldrsb	r3, [fp, #-12]
  201438:	e3530000 	cmp	r3, #0
  20143c:	aa000001 	bge	201448 <tpl_chain_task_service+0x84>
  201440:	e3a03003 	mov	r3, #3
  201444:	e54b3005 	strb	r3, [fp, #-5]
  201448:	e55b3005 	ldrb	r3, [fp, #-5]
  20144c:	e3530000 	cmp	r3, #0
  201450:	1a000006 	bne	201470 <tpl_chain_task_service+0xac>
  201454:	e59f3088 	ldr	r3, [pc, #136]	; 2014e4 <tpl_chain_task_service+0x120>
  201458:	e593300c 	ldr	r3, [r3, #12]
  20145c:	e5933000 	ldr	r3, [r3]
  201460:	e3530000 	cmp	r3, #0
  201464:	0a000001 	beq	201470 <tpl_chain_task_service+0xac>
  201468:	e3a03006 	mov	r3, #6
  20146c:	e54b3005 	strb	r3, [fp, #-5]
  201470:	e55b3005 	ldrb	r3, [fp, #-5]
  201474:	e3530000 	cmp	r3, #0
  201478:	1a000015 	bne	2014d4 <tpl_chain_task_service+0x110>
  20147c:	e59f3060 	ldr	r3, [pc, #96]	; 2014e4 <tpl_chain_task_service+0x120>
  201480:	e593300c 	ldr	r3, [r3, #12]
  201484:	e5d32004 	ldrb	r2, [r3, #4]
  201488:	e2422001 	sub	r2, r2, #1
  20148c:	e20220ff 	and	r2, r2, #255	; 0xff
  201490:	e5c32004 	strb	r2, [r3, #4]
  201494:	e15b30dc 	ldrsb	r3, [fp, #-12]
  201498:	e1a00003 	mov	r0, r3
  20149c:	eb000493 	bl	2026f0 <tpl_activate_task>
  2014a0:	e1a03000 	mov	r3, r0
  2014a4:	e54b3005 	strb	r3, [fp, #-5]
  2014a8:	e55b3005 	ldrb	r3, [fp, #-5]
  2014ac:	e3530020 	cmp	r3, #32
  2014b0:	1a000001 	bne	2014bc <tpl_chain_task_service+0xf8>
  2014b4:	eb0003d1 	bl	202400 <tpl_schedule_from_dying>
  2014b8:	ea000005 	b	2014d4 <tpl_chain_task_service+0x110>
  2014bc:	e59f3020 	ldr	r3, [pc, #32]	; 2014e4 <tpl_chain_task_service+0x120>
  2014c0:	e593300c 	ldr	r3, [r3, #12]
  2014c4:	e5d32004 	ldrb	r2, [r3, #4]
  2014c8:	e2822001 	add	r2, r2, #1
  2014cc:	e20220ff 	and	r2, r2, #255	; 0xff
  2014d0:	e5c32004 	strb	r2, [r3, #4]
  2014d4:	e55b3005 	ldrb	r3, [fp, #-5]
  2014d8:	e1a00003 	mov	r0, r3
  2014dc:	e24bd004 	sub	sp, fp, #4
  2014e0:	e8bd8800 	pop	{fp, pc}
  2014e4:	0020363c 	.word	0x0020363c

002014e8 <tpl_schedule_service>:
  2014e8:	e92d4800 	push	{fp, lr}
  2014ec:	e28db004 	add	fp, sp, #4
  2014f0:	e24dd004 	sub	sp, sp, #4
  2014f4:	e3a03000 	mov	r3, #0
  2014f8:	e54b3005 	strb	r3, [fp, #-5]
  2014fc:	ebfffd23 	bl	200990 <tpl_get_interrupt_lock_status>
  201500:	e1a03000 	mov	r3, r0
  201504:	e3530000 	cmp	r3, #0
  201508:	0a000001 	beq	201514 <tpl_schedule_service+0x2c>
  20150c:	e3a03013 	mov	r3, #19
  201510:	e54b3005 	strb	r3, [fp, #-5]
  201514:	e55b3005 	ldrb	r3, [fp, #-5]
  201518:	e3530000 	cmp	r3, #0
  20151c:	1a000005 	bne	201538 <tpl_schedule_service+0x50>
  201520:	eb0002f1 	bl	2020ec <tpl_current_os_state>
  201524:	e1a03000 	mov	r3, r0
  201528:	e3530001 	cmp	r3, #1
  20152c:	0a000001 	beq	201538 <tpl_schedule_service+0x50>
  201530:	e3a03002 	mov	r3, #2
  201534:	e54b3005 	strb	r3, [fp, #-5]
  201538:	e55b3005 	ldrb	r3, [fp, #-5]
  20153c:	e3530000 	cmp	r3, #0
  201540:	1a000006 	bne	201560 <tpl_schedule_service+0x78>
  201544:	e59f306c 	ldr	r3, [pc, #108]	; 2015b8 <tpl_schedule_service+0xd0>
  201548:	e593300c 	ldr	r3, [r3, #12]
  20154c:	e5933000 	ldr	r3, [r3]
  201550:	e3530000 	cmp	r3, #0
  201554:	0a000001 	beq	201560 <tpl_schedule_service+0x78>
  201558:	e3a03006 	mov	r3, #6
  20155c:	e54b3005 	strb	r3, [fp, #-5]
  201560:	e55b3005 	ldrb	r3, [fp, #-5]
  201564:	e3530000 	cmp	r3, #0
  201568:	1a00000e 	bne	2015a8 <tpl_schedule_service+0xc0>
  20156c:	e59f3044 	ldr	r3, [pc, #68]	; 2015b8 <tpl_schedule_service+0xd0>
  201570:	e5933010 	ldr	r3, [r3, #16]
  201574:	e20330ff 	and	r3, r3, #255	; 0xff
  201578:	e1a03c03 	lsl	r3, r3, #24
  20157c:	e1a03c43 	asr	r3, r3, #24
  201580:	e1a00003 	mov	r0, r3
  201584:	eb000324 	bl	20221c <tpl_release_internal_resource>
  201588:	eb000342 	bl	202298 <tpl_schedule_from_running>
  20158c:	e59f3024 	ldr	r3, [pc, #36]	; 2015b8 <tpl_schedule_service+0xd0>
  201590:	e5933010 	ldr	r3, [r3, #16]
  201594:	e20330ff 	and	r3, r3, #255	; 0xff
  201598:	e1a03c03 	lsl	r3, r3, #24
  20159c:	e1a03c43 	asr	r3, r3, #24
  2015a0:	e1a00003 	mov	r0, r3
  2015a4:	eb0002f7 	bl	202188 <tpl_get_internal_resource>
  2015a8:	e55b3005 	ldrb	r3, [fp, #-5]
  2015ac:	e1a00003 	mov	r0, r3
  2015b0:	e24bd004 	sub	sp, fp, #4
  2015b4:	e8bd8800 	pop	{fp, pc}
  2015b8:	0020363c 	.word	0x0020363c

002015bc <tpl_get_task_id_service>:
  2015bc:	e92d4800 	push	{fp, lr}
  2015c0:	e28db004 	add	fp, sp, #4
  2015c4:	e24dd008 	sub	sp, sp, #8
  2015c8:	e50b000c 	str	r0, [fp, #-12]
  2015cc:	e3a03000 	mov	r3, #0
  2015d0:	e54b3005 	strb	r3, [fp, #-5]
  2015d4:	ebfffced 	bl	200990 <tpl_get_interrupt_lock_status>
  2015d8:	e1a03000 	mov	r3, r0
  2015dc:	e3530000 	cmp	r3, #0
  2015e0:	0a000001 	beq	2015ec <tpl_get_task_id_service+0x30>
  2015e4:	e3a03013 	mov	r3, #19
  2015e8:	e54b3005 	strb	r3, [fp, #-5]
  2015ec:	e55b3005 	ldrb	r3, [fp, #-5]
  2015f0:	e3530000 	cmp	r3, #0
  2015f4:	1a000011 	bne	201640 <tpl_get_task_id_service+0x84>
  2015f8:	e59f3050 	ldr	r3, [pc, #80]	; 201650 <tpl_get_task_id_service+0x94>
  2015fc:	e5933010 	ldr	r3, [r3, #16]
  201600:	e3530000 	cmp	r3, #0
  201604:	ba000009 	blt	201630 <tpl_get_task_id_service+0x74>
  201608:	e59f3040 	ldr	r3, [pc, #64]	; 201650 <tpl_get_task_id_service+0x94>
  20160c:	e5933010 	ldr	r3, [r3, #16]
  201610:	e3530002 	cmp	r3, #2
  201614:	ca000005 	bgt	201630 <tpl_get_task_id_service+0x74>
  201618:	e59f3030 	ldr	r3, [pc, #48]	; 201650 <tpl_get_task_id_service+0x94>
  20161c:	e5933010 	ldr	r3, [r3, #16]
  201620:	e20320ff 	and	r2, r3, #255	; 0xff
  201624:	e51b300c 	ldr	r3, [fp, #-12]
  201628:	e5c32000 	strb	r2, [r3]
  20162c:	ea000003 	b	201640 <tpl_get_task_id_service+0x84>
  201630:	e59f301c 	ldr	r3, [pc, #28]	; 201654 <tpl_get_task_id_service+0x98>
  201634:	e5d32000 	ldrb	r2, [r3]
  201638:	e51b300c 	ldr	r3, [fp, #-12]
  20163c:	e5c32000 	strb	r2, [r3]
  201640:	e55b3005 	ldrb	r3, [fp, #-5]
  201644:	e1a00003 	mov	r0, r3
  201648:	e24bd004 	sub	sp, fp, #4
  20164c:	e8bd8800 	pop	{fp, pc}
  201650:	0020363c 	.word	0x0020363c
  201654:	0020336d 	.word	0x0020336d

00201658 <tpl_get_task_state_service>:
  201658:	e92d4800 	push	{fp, lr}
  20165c:	e28db004 	add	fp, sp, #4
  201660:	e24dd00c 	sub	sp, sp, #12
  201664:	e1a03000 	mov	r3, r0
  201668:	e50b1010 	str	r1, [fp, #-16]
  20166c:	e54b300c 	strb	r3, [fp, #-12]
  201670:	e3a03000 	mov	r3, #0
  201674:	e54b3005 	strb	r3, [fp, #-5]
  201678:	ebfffcc4 	bl	200990 <tpl_get_interrupt_lock_status>
  20167c:	e1a03000 	mov	r3, r0
  201680:	e3530000 	cmp	r3, #0
  201684:	0a000001 	beq	201690 <tpl_get_task_state_service+0x38>
  201688:	e3a03013 	mov	r3, #19
  20168c:	e54b3005 	strb	r3, [fp, #-5]
  201690:	e55b3005 	ldrb	r3, [fp, #-5]
  201694:	e3530000 	cmp	r3, #0
  201698:	1a000007 	bne	2016bc <tpl_get_task_state_service+0x64>
  20169c:	e15b30dc 	ldrsb	r3, [fp, #-12]
  2016a0:	e3530002 	cmp	r3, #2
  2016a4:	ca000002 	bgt	2016b4 <tpl_get_task_state_service+0x5c>
  2016a8:	e15b30dc 	ldrsb	r3, [fp, #-12]
  2016ac:	e3530000 	cmp	r3, #0
  2016b0:	aa000001 	bge	2016bc <tpl_get_task_state_service+0x64>
  2016b4:	e3a03003 	mov	r3, #3
  2016b8:	e54b3005 	strb	r3, [fp, #-5]
  2016bc:	e55b3005 	ldrb	r3, [fp, #-5]
  2016c0:	e3530000 	cmp	r3, #0
  2016c4:	1a000007 	bne	2016e8 <tpl_get_task_state_service+0x90>
  2016c8:	e15b20dc 	ldrsb	r2, [fp, #-12]
  2016cc:	e59f3024 	ldr	r3, [pc, #36]	; 2016f8 <tpl_get_task_state_service+0xa0>
  2016d0:	e7933102 	ldr	r3, [r3, r2, lsl #2]
  2016d4:	e5d33006 	ldrb	r3, [r3, #6]
  2016d8:	e2033003 	and	r3, r3, #3
  2016dc:	e20320ff 	and	r2, r3, #255	; 0xff
  2016e0:	e51b3010 	ldr	r3, [fp, #-16]
  2016e4:	e5c32000 	strb	r2, [r3]
  2016e8:	e55b3005 	ldrb	r3, [fp, #-5]
  2016ec:	e1a00003 	mov	r0, r3
  2016f0:	e24bd004 	sub	sp, fp, #4
  2016f4:	e8bd8800 	pop	{fp, pc}
  2016f8:	0020357c 	.word	0x0020357c

002016fc <tpl_enable_counters>:
  2016fc:	e52db004 	push	{fp}		; (str fp, [sp, #-4]!)
  201700:	e28db000 	add	fp, sp, #0
  201704:	e59f3010 	ldr	r3, [pc, #16]	; 20171c <tpl_enable_counters+0x20>
  201708:	e3a02001 	mov	r2, #1
  20170c:	e5c32000 	strb	r2, [r3]
  201710:	e28bd000 	add	sp, fp, #0
  201714:	e8bd0800 	pop	{fp}
  201718:	e12fff1e 	bx	lr
  20171c:	0020362c 	.word	0x0020362c

00201720 <tpl_insert_time_obj>:
  201720:	e52db004 	push	{fp}		; (str fp, [sp, #-4]!)
  201724:	e28db000 	add	fp, sp, #0
  201728:	e24dd010 	sub	sp, sp, #16
  20172c:	e50b0010 	str	r0, [fp, #-16]
  201730:	e51b3010 	ldr	r3, [fp, #-16]
  201734:	e5933000 	ldr	r3, [r3]
  201738:	e5933000 	ldr	r3, [r3]
  20173c:	e50b300c 	str	r3, [fp, #-12]
  201740:	e51b300c 	ldr	r3, [fp, #-12]
  201744:	e5933014 	ldr	r3, [r3, #20]
  201748:	e50b3004 	str	r3, [fp, #-4]
  20174c:	e3a03000 	mov	r3, #0
  201750:	e50b3008 	str	r3, [fp, #-8]
  201754:	e51b3004 	ldr	r3, [fp, #-4]
  201758:	e3530000 	cmp	r3, #0
  20175c:	1a000012 	bne	2017ac <tpl_insert_time_obj+0x8c>
  201760:	e51b300c 	ldr	r3, [fp, #-12]
  201764:	e51b2010 	ldr	r2, [fp, #-16]
  201768:	e5832014 	str	r2, [r3, #20]
  20176c:	e51b300c 	ldr	r3, [fp, #-12]
  201770:	e51b2010 	ldr	r2, [fp, #-16]
  201774:	e5832018 	str	r2, [r3, #24]
  201778:	e51b3010 	ldr	r3, [fp, #-16]
  20177c:	e3a02000 	mov	r2, #0
  201780:	e5832008 	str	r2, [r3, #8]
  201784:	e51b3010 	ldr	r3, [fp, #-16]
  201788:	e5932008 	ldr	r2, [r3, #8]
  20178c:	e51b3010 	ldr	r3, [fp, #-16]
  201790:	e5832004 	str	r2, [r3, #4]
  201794:	ea00004b 	b	2018c8 <tpl_insert_time_obj+0x1a8>
  201798:	e51b3004 	ldr	r3, [fp, #-4]
  20179c:	e50b3008 	str	r3, [fp, #-8]
  2017a0:	e51b3004 	ldr	r3, [fp, #-4]
  2017a4:	e5933004 	ldr	r3, [r3, #4]
  2017a8:	e50b3004 	str	r3, [fp, #-4]
  2017ac:	e51b3004 	ldr	r3, [fp, #-4]
  2017b0:	e3530000 	cmp	r3, #0
  2017b4:	0a000005 	beq	2017d0 <tpl_insert_time_obj+0xb0>
  2017b8:	e51b3004 	ldr	r3, [fp, #-4]
  2017bc:	e5932010 	ldr	r2, [r3, #16]
  2017c0:	e51b3010 	ldr	r3, [fp, #-16]
  2017c4:	e5933010 	ldr	r3, [r3, #16]
  2017c8:	e1520003 	cmp	r2, r3
  2017cc:	9afffff1 	bls	201798 <tpl_insert_time_obj+0x78>
  2017d0:	e51b3010 	ldr	r3, [fp, #-16]
  2017d4:	e51b2004 	ldr	r2, [fp, #-4]
  2017d8:	e5832004 	str	r2, [r3, #4]
  2017dc:	e51b3010 	ldr	r3, [fp, #-16]
  2017e0:	e51b2008 	ldr	r2, [fp, #-8]
  2017e4:	e5832008 	str	r2, [r3, #8]
  2017e8:	e51b3004 	ldr	r3, [fp, #-4]
  2017ec:	e3530000 	cmp	r3, #0
  2017f0:	0a000002 	beq	201800 <tpl_insert_time_obj+0xe0>
  2017f4:	e51b3004 	ldr	r3, [fp, #-4]
  2017f8:	e51b2010 	ldr	r2, [fp, #-16]
  2017fc:	e5832008 	str	r2, [r3, #8]
  201800:	e51b3008 	ldr	r3, [fp, #-8]
  201804:	e3530000 	cmp	r3, #0
  201808:	0a000003 	beq	20181c <tpl_insert_time_obj+0xfc>
  20180c:	e51b3008 	ldr	r3, [fp, #-8]
  201810:	e51b2010 	ldr	r2, [fp, #-16]
  201814:	e5832004 	str	r2, [r3, #4]
  201818:	ea000002 	b	201828 <tpl_insert_time_obj+0x108>
  20181c:	e51b300c 	ldr	r3, [fp, #-12]
  201820:	e51b2010 	ldr	r2, [fp, #-16]
  201824:	e5832014 	str	r2, [r3, #20]
  201828:	e51b300c 	ldr	r3, [fp, #-12]
  20182c:	e5933018 	ldr	r3, [r3, #24]
  201830:	e5932010 	ldr	r2, [r3, #16]
  201834:	e51b300c 	ldr	r3, [fp, #-12]
  201838:	e5933010 	ldr	r3, [r3, #16]
  20183c:	e1520003 	cmp	r2, r3
  201840:	2a000010 	bcs	201888 <tpl_insert_time_obj+0x168>
  201844:	e51b3010 	ldr	r3, [fp, #-16]
  201848:	e5932010 	ldr	r2, [r3, #16]
  20184c:	e51b300c 	ldr	r3, [fp, #-12]
  201850:	e5933010 	ldr	r3, [r3, #16]
  201854:	e1520003 	cmp	r2, r3
  201858:	8a000006 	bhi	201878 <tpl_insert_time_obj+0x158>
  20185c:	e51b3010 	ldr	r3, [fp, #-16]
  201860:	e5932010 	ldr	r2, [r3, #16]
  201864:	e51b300c 	ldr	r3, [fp, #-12]
  201868:	e5933018 	ldr	r3, [r3, #24]
  20186c:	e5933010 	ldr	r3, [r3, #16]
  201870:	e1520003 	cmp	r2, r3
  201874:	2a000013 	bcs	2018c8 <tpl_insert_time_obj+0x1a8>
  201878:	e51b300c 	ldr	r3, [fp, #-12]
  20187c:	e51b2010 	ldr	r2, [fp, #-16]
  201880:	e5832018 	str	r2, [r3, #24]
  201884:	ea00000f 	b	2018c8 <tpl_insert_time_obj+0x1a8>
  201888:	e51b3010 	ldr	r3, [fp, #-16]
  20188c:	e5932010 	ldr	r2, [r3, #16]
  201890:	e51b300c 	ldr	r3, [fp, #-12]
  201894:	e5933010 	ldr	r3, [r3, #16]
  201898:	e1520003 	cmp	r2, r3
  20189c:	9a000009 	bls	2018c8 <tpl_insert_time_obj+0x1a8>
  2018a0:	e51b3010 	ldr	r3, [fp, #-16]
  2018a4:	e5932010 	ldr	r2, [r3, #16]
  2018a8:	e51b300c 	ldr	r3, [fp, #-12]
  2018ac:	e5933018 	ldr	r3, [r3, #24]
  2018b0:	e5933010 	ldr	r3, [r3, #16]
  2018b4:	e1520003 	cmp	r2, r3
  2018b8:	2a000002 	bcs	2018c8 <tpl_insert_time_obj+0x1a8>
  2018bc:	e51b300c 	ldr	r3, [fp, #-12]
  2018c0:	e51b2010 	ldr	r2, [fp, #-16]
  2018c4:	e5832018 	str	r2, [r3, #24]
  2018c8:	e28bd000 	add	sp, fp, #0
  2018cc:	e8bd0800 	pop	{fp}
  2018d0:	e12fff1e 	bx	lr

002018d4 <tpl_remove_time_obj>:
  2018d4:	e52db004 	push	{fp}		; (str fp, [sp, #-4]!)
  2018d8:	e28db000 	add	fp, sp, #0
  2018dc:	e24dd008 	sub	sp, sp, #8
  2018e0:	e50b0008 	str	r0, [fp, #-8]
  2018e4:	e51b3008 	ldr	r3, [fp, #-8]
  2018e8:	e5933000 	ldr	r3, [r3]
  2018ec:	e5933000 	ldr	r3, [r3]
  2018f0:	e50b3004 	str	r3, [fp, #-4]
  2018f4:	e51b3004 	ldr	r3, [fp, #-4]
  2018f8:	e5932014 	ldr	r2, [r3, #20]
  2018fc:	e51b3008 	ldr	r3, [fp, #-8]
  201900:	e1520003 	cmp	r2, r3
  201904:	1a000003 	bne	201918 <tpl_remove_time_obj+0x44>
  201908:	e51b3008 	ldr	r3, [fp, #-8]
  20190c:	e5932004 	ldr	r2, [r3, #4]
  201910:	e51b3004 	ldr	r3, [fp, #-4]
  201914:	e5832014 	str	r2, [r3, #20]
  201918:	e51b3004 	ldr	r3, [fp, #-4]
  20191c:	e5932018 	ldr	r2, [r3, #24]
  201920:	e51b3008 	ldr	r3, [fp, #-8]
  201924:	e1520003 	cmp	r2, r3
  201928:	1a000003 	bne	20193c <tpl_remove_time_obj+0x68>
  20192c:	e51b3008 	ldr	r3, [fp, #-8]
  201930:	e5932004 	ldr	r2, [r3, #4]
  201934:	e51b3004 	ldr	r3, [fp, #-4]
  201938:	e5832018 	str	r2, [r3, #24]
  20193c:	e51b3008 	ldr	r3, [fp, #-8]
  201940:	e5933004 	ldr	r3, [r3, #4]
  201944:	e3530000 	cmp	r3, #0
  201948:	0a000004 	beq	201960 <tpl_remove_time_obj+0x8c>
  20194c:	e51b3008 	ldr	r3, [fp, #-8]
  201950:	e5933004 	ldr	r3, [r3, #4]
  201954:	e51b2008 	ldr	r2, [fp, #-8]
  201958:	e5922008 	ldr	r2, [r2, #8]
  20195c:	e5832008 	str	r2, [r3, #8]
  201960:	e51b3008 	ldr	r3, [fp, #-8]
  201964:	e5933008 	ldr	r3, [r3, #8]
  201968:	e3530000 	cmp	r3, #0
  20196c:	0a000004 	beq	201984 <tpl_remove_time_obj+0xb0>
  201970:	e51b3008 	ldr	r3, [fp, #-8]
  201974:	e5933008 	ldr	r3, [r3, #8]
  201978:	e51b2008 	ldr	r2, [fp, #-8]
  20197c:	e5922004 	ldr	r2, [r2, #4]
  201980:	e5832004 	str	r2, [r3, #4]
  201984:	e51b3004 	ldr	r3, [fp, #-4]
  201988:	e5933018 	ldr	r3, [r3, #24]
  20198c:	e3530000 	cmp	r3, #0
  201990:	1a000003 	bne	2019a4 <tpl_remove_time_obj+0xd0>
  201994:	e51b3004 	ldr	r3, [fp, #-4]
  201998:	e5932014 	ldr	r2, [r3, #20]
  20199c:	e51b3004 	ldr	r3, [fp, #-4]
  2019a0:	e5832018 	str	r2, [r3, #24]
  2019a4:	e28bd000 	add	sp, fp, #0
  2019a8:	e8bd0800 	pop	{fp}
  2019ac:	e12fff1e 	bx	lr

002019b0 <tpl_remove_timeobj_set>:
  2019b0:	e52db004 	push	{fp}		; (str fp, [sp, #-4]!)
  2019b4:	e28db000 	add	fp, sp, #0
  2019b8:	e24dd020 	sub	sp, sp, #32
  2019bc:	e50b0020 	str	r0, [fp, #-32]
  2019c0:	e51b3020 	ldr	r3, [fp, #-32]
  2019c4:	e5933018 	ldr	r3, [r3, #24]
  2019c8:	e50b300c 	str	r3, [fp, #-12]
  2019cc:	e3a03000 	mov	r3, #0
  2019d0:	e50b3004 	str	r3, [fp, #-4]
  2019d4:	e51b300c 	ldr	r3, [fp, #-12]
  2019d8:	e3530000 	cmp	r3, #0
  2019dc:	0a000043 	beq	201af0 <tpl_remove_timeobj_set+0x140>
  2019e0:	e51b300c 	ldr	r3, [fp, #-12]
  2019e4:	e50b3008 	str	r3, [fp, #-8]
  2019e8:	e51b300c 	ldr	r3, [fp, #-12]
  2019ec:	e5933010 	ldr	r3, [r3, #16]
  2019f0:	e50b3010 	str	r3, [fp, #-16]
  2019f4:	e3a03000 	mov	r3, #0
  2019f8:	e54b3011 	strb	r3, [fp, #-17]
  2019fc:	e3a03001 	mov	r3, #1
  201a00:	e54b3011 	strb	r3, [fp, #-17]
  201a04:	e51b3008 	ldr	r3, [fp, #-8]
  201a08:	e50b3018 	str	r3, [fp, #-24]
  201a0c:	e51b3008 	ldr	r3, [fp, #-8]
  201a10:	e5933004 	ldr	r3, [r3, #4]
  201a14:	e50b3008 	str	r3, [fp, #-8]
  201a18:	e51b3008 	ldr	r3, [fp, #-8]
  201a1c:	e3530000 	cmp	r3, #0
  201a20:	0a000004 	beq	201a38 <tpl_remove_timeobj_set+0x88>
  201a24:	e51b3008 	ldr	r3, [fp, #-8]
  201a28:	e5932010 	ldr	r2, [r3, #16]
  201a2c:	e51b3010 	ldr	r3, [fp, #-16]
  201a30:	e1520003 	cmp	r2, r3
  201a34:	0afffff0 	beq	2019fc <tpl_remove_timeobj_set+0x4c>
  201a38:	e51b300c 	ldr	r3, [fp, #-12]
  201a3c:	e5933008 	ldr	r3, [r3, #8]
  201a40:	e50b3008 	str	r3, [fp, #-8]
  201a44:	e51b3018 	ldr	r3, [fp, #-24]
  201a48:	e5933004 	ldr	r3, [r3, #4]
  201a4c:	e50b301c 	str	r3, [fp, #-28]
  201a50:	e51b3008 	ldr	r3, [fp, #-8]
  201a54:	e3530000 	cmp	r3, #0
  201a58:	0a000002 	beq	201a68 <tpl_remove_timeobj_set+0xb8>
  201a5c:	e51b3008 	ldr	r3, [fp, #-8]
  201a60:	e51b201c 	ldr	r2, [fp, #-28]
  201a64:	e5832004 	str	r2, [r3, #4]
  201a68:	e51b301c 	ldr	r3, [fp, #-28]
  201a6c:	e3530000 	cmp	r3, #0
  201a70:	0a000002 	beq	201a80 <tpl_remove_timeobj_set+0xd0>
  201a74:	e51b301c 	ldr	r3, [fp, #-28]
  201a78:	e51b2008 	ldr	r2, [fp, #-8]
  201a7c:	e5832008 	str	r2, [r3, #8]
  201a80:	e51b3020 	ldr	r3, [fp, #-32]
  201a84:	e5932014 	ldr	r2, [r3, #20]
  201a88:	e51b300c 	ldr	r3, [fp, #-12]
  201a8c:	e1520003 	cmp	r2, r3
  201a90:	1a000002 	bne	201aa0 <tpl_remove_timeobj_set+0xf0>
  201a94:	e51b3020 	ldr	r3, [fp, #-32]
  201a98:	e51b201c 	ldr	r2, [fp, #-28]
  201a9c:	e5832014 	str	r2, [r3, #20]
  201aa0:	e55b3011 	ldrb	r3, [fp, #-17]
  201aa4:	e3530001 	cmp	r3, #1
  201aa8:	1a000002 	bne	201ab8 <tpl_remove_timeobj_set+0x108>
  201aac:	e51b3020 	ldr	r3, [fp, #-32]
  201ab0:	e5933018 	ldr	r3, [r3, #24]
  201ab4:	e50b3004 	str	r3, [fp, #-4]
  201ab8:	e51b301c 	ldr	r3, [fp, #-28]
  201abc:	e3530000 	cmp	r3, #0
  201ac0:	0a000003 	beq	201ad4 <tpl_remove_timeobj_set+0x124>
  201ac4:	e51b3020 	ldr	r3, [fp, #-32]
  201ac8:	e51b201c 	ldr	r2, [fp, #-28]
  201acc:	e5832018 	str	r2, [r3, #24]
  201ad0:	ea000003 	b	201ae4 <tpl_remove_timeobj_set+0x134>
  201ad4:	e51b3020 	ldr	r3, [fp, #-32]
  201ad8:	e5932014 	ldr	r2, [r3, #20]
  201adc:	e51b3020 	ldr	r3, [fp, #-32]
  201ae0:	e5832018 	str	r2, [r3, #24]
  201ae4:	e51b3018 	ldr	r3, [fp, #-24]
  201ae8:	e3a02000 	mov	r2, #0
  201aec:	e5832004 	str	r2, [r3, #4]
  201af0:	e51b3004 	ldr	r3, [fp, #-4]
  201af4:	e1a00003 	mov	r0, r3
  201af8:	e28bd000 	add	sp, fp, #0
  201afc:	e8bd0800 	pop	{fp}
  201b00:	e12fff1e 	bx	lr

00201b04 <tpl_counter_tick>:
  201b04:	e92d4800 	push	{fp, lr}
  201b08:	e28db004 	add	fp, sp, #4
  201b0c:	e24dd020 	sub	sp, sp, #32
  201b10:	e50b0024 	str	r0, [fp, #-36]	; 0x24
  201b14:	e3a03000 	mov	r3, #0
  201b18:	e54b3011 	strb	r3, [fp, #-17]
  201b1c:	e59f31ac 	ldr	r3, [pc, #428]	; 201cd0 <tpl_counter_tick+0x1cc>
  201b20:	e5d33000 	ldrb	r3, [r3]
  201b24:	e3530000 	cmp	r3, #0
  201b28:	0a000064 	beq	201cc0 <tpl_counter_tick+0x1bc>
  201b2c:	e51b3024 	ldr	r3, [fp, #-36]	; 0x24
  201b30:	e593300c 	ldr	r3, [r3, #12]
  201b34:	e2832001 	add	r2, r3, #1
  201b38:	e51b3024 	ldr	r3, [fp, #-36]	; 0x24
  201b3c:	e583200c 	str	r2, [r3, #12]
  201b40:	e51b3024 	ldr	r3, [fp, #-36]	; 0x24
  201b44:	e593200c 	ldr	r2, [r3, #12]
  201b48:	e51b3024 	ldr	r3, [fp, #-36]	; 0x24
  201b4c:	e5933000 	ldr	r3, [r3]
  201b50:	e1520003 	cmp	r2, r3
  201b54:	1a000059 	bne	201cc0 <tpl_counter_tick+0x1bc>
  201b58:	e51b3024 	ldr	r3, [fp, #-36]	; 0x24
  201b5c:	e5933010 	ldr	r3, [r3, #16]
  201b60:	e50b300c 	str	r3, [fp, #-12]
  201b64:	e51b300c 	ldr	r3, [fp, #-12]
  201b68:	e2833001 	add	r3, r3, #1
  201b6c:	e50b300c 	str	r3, [fp, #-12]
  201b70:	e51b3024 	ldr	r3, [fp, #-36]	; 0x24
  201b74:	e5932004 	ldr	r2, [r3, #4]
  201b78:	e51b300c 	ldr	r3, [fp, #-12]
  201b7c:	e1520003 	cmp	r2, r3
  201b80:	2a000001 	bcs	201b8c <tpl_counter_tick+0x88>
  201b84:	e3a03000 	mov	r3, #0
  201b88:	e50b300c 	str	r3, [fp, #-12]
  201b8c:	e51b3024 	ldr	r3, [fp, #-36]	; 0x24
  201b90:	e51b200c 	ldr	r2, [fp, #-12]
  201b94:	e5832010 	str	r2, [r3, #16]
  201b98:	e51b3024 	ldr	r3, [fp, #-36]	; 0x24
  201b9c:	e3a02000 	mov	r2, #0
  201ba0:	e583200c 	str	r2, [r3, #12]
  201ba4:	e51b3024 	ldr	r3, [fp, #-36]	; 0x24
  201ba8:	e5933018 	ldr	r3, [r3, #24]
  201bac:	e50b3008 	str	r3, [fp, #-8]
  201bb0:	e51b3008 	ldr	r3, [fp, #-8]
  201bb4:	e3530000 	cmp	r3, #0
  201bb8:	0a000040 	beq	201cc0 <tpl_counter_tick+0x1bc>
  201bbc:	e51b3008 	ldr	r3, [fp, #-8]
  201bc0:	e5932010 	ldr	r2, [r3, #16]
  201bc4:	e51b300c 	ldr	r3, [fp, #-12]
  201bc8:	e1520003 	cmp	r2, r3
  201bcc:	1a00003b 	bne	201cc0 <tpl_counter_tick+0x1bc>
  201bd0:	e51b0024 	ldr	r0, [fp, #-36]	; 0x24
  201bd4:	ebffff75 	bl	2019b0 <tpl_remove_timeobj_set>
  201bd8:	e50b0018 	str	r0, [fp, #-24]
  201bdc:	e51b3018 	ldr	r3, [fp, #-24]
  201be0:	e3530000 	cmp	r3, #0
  201be4:	0a000035 	beq	201cc0 <tpl_counter_tick+0x1bc>
  201be8:	e51b3018 	ldr	r3, [fp, #-24]
  201bec:	e50b3008 	str	r3, [fp, #-8]
  201bf0:	e51b3008 	ldr	r3, [fp, #-8]
  201bf4:	e5933004 	ldr	r3, [r3, #4]
  201bf8:	e50b301c 	str	r3, [fp, #-28]
  201bfc:	e51b3008 	ldr	r3, [fp, #-8]
  201c00:	e5933000 	ldr	r3, [r3]
  201c04:	e5933004 	ldr	r3, [r3, #4]
  201c08:	e50b3020 	str	r3, [fp, #-32]
  201c0c:	e51b3020 	ldr	r3, [fp, #-32]
  201c10:	e51b0008 	ldr	r0, [fp, #-8]
  201c14:	e1a0e00f 	mov	lr, pc
  201c18:	e12fff13 	bx	r3
  201c1c:	e1a03000 	mov	r3, r0
  201c20:	e3c3301f 	bic	r3, r3, #31
  201c24:	e20320ff 	and	r2, r3, #255	; 0xff
  201c28:	e55b3011 	ldrb	r3, [fp, #-17]
  201c2c:	e1823003 	orr	r3, r2, r3
  201c30:	e54b3011 	strb	r3, [fp, #-17]
  201c34:	e51b3008 	ldr	r3, [fp, #-8]
  201c38:	e593300c 	ldr	r3, [r3, #12]
  201c3c:	e3530000 	cmp	r3, #0
  201c40:	0a000016 	beq	201ca0 <tpl_counter_tick+0x19c>
  201c44:	e51b3008 	ldr	r3, [fp, #-8]
  201c48:	e5932010 	ldr	r2, [r3, #16]
  201c4c:	e51b3008 	ldr	r3, [fp, #-8]
  201c50:	e593300c 	ldr	r3, [r3, #12]
  201c54:	e0823003 	add	r3, r2, r3
  201c58:	e50b3010 	str	r3, [fp, #-16]
  201c5c:	e51b3024 	ldr	r3, [fp, #-36]	; 0x24
  201c60:	e5932004 	ldr	r2, [r3, #4]
  201c64:	e51b3010 	ldr	r3, [fp, #-16]
  201c68:	e1520003 	cmp	r2, r3
  201c6c:	2a000005 	bcs	201c88 <tpl_counter_tick+0x184>
  201c70:	e51b3024 	ldr	r3, [fp, #-36]	; 0x24
  201c74:	e5933004 	ldr	r3, [r3, #4]
  201c78:	e1e03003 	mvn	r3, r3
  201c7c:	e51b2010 	ldr	r2, [fp, #-16]
  201c80:	e0823003 	add	r3, r2, r3
  201c84:	e50b3010 	str	r3, [fp, #-16]
  201c88:	e51b3008 	ldr	r3, [fp, #-8]
  201c8c:	e51b2010 	ldr	r2, [fp, #-16]
  201c90:	e5832010 	str	r2, [r3, #16]
  201c94:	e51b0008 	ldr	r0, [fp, #-8]
  201c98:	ebfffea0 	bl	201720 <tpl_insert_time_obj>
  201c9c:	ea000002 	b	201cac <tpl_counter_tick+0x1a8>
  201ca0:	e51b3008 	ldr	r3, [fp, #-8]
  201ca4:	e3a02000 	mov	r2, #0
  201ca8:	e5c32014 	strb	r2, [r3, #20]
  201cac:	e51b301c 	ldr	r3, [fp, #-28]
  201cb0:	e50b3008 	str	r3, [fp, #-8]
  201cb4:	e51b3008 	ldr	r3, [fp, #-8]
  201cb8:	e3530000 	cmp	r3, #0
  201cbc:	1affffcb 	bne	201bf0 <tpl_counter_tick+0xec>
  201cc0:	e55b3011 	ldrb	r3, [fp, #-17]
  201cc4:	e1a00003 	mov	r0, r3
  201cc8:	e24bd004 	sub	sp, fp, #4
  201ccc:	e8bd8800 	pop	{fp, pc}
  201cd0:	0020362c 	.word	0x0020362c

00201cd4 <tpl_get_proc>:
  201cd4:	e52db004 	push	{fp}		; (str fp, [sp, #-4]!)
  201cd8:	e28db000 	add	fp, sp, #0
  201cdc:	e24dd00c 	sub	sp, sp, #12
  201ce0:	e59f3170 	ldr	r3, [pc, #368]	; 201e58 <tpl_get_proc+0x184>
  201ce4:	e5d33000 	ldrb	r3, [r3]
  201ce8:	e1a03c03 	lsl	r3, r3, #24
  201cec:	e1a02c43 	asr	r2, r3, #24
  201cf0:	e59f3164 	ldr	r3, [pc, #356]	; 201e5c <tpl_get_proc+0x188>
  201cf4:	e7933182 	ldr	r3, [r3, r2, lsl #3]
  201cf8:	e50b3008 	str	r3, [fp, #-8]
  201cfc:	e59f3154 	ldr	r3, [pc, #340]	; 201e58 <tpl_get_proc+0x184>
  201d00:	e5d33000 	ldrb	r3, [r3]
  201d04:	e1a03c03 	lsl	r3, r3, #24
  201d08:	e1a02c43 	asr	r2, r3, #24
  201d0c:	e59f314c 	ldr	r3, [pc, #332]	; 201e60 <tpl_get_proc+0x18c>
  201d10:	e7d33102 	ldrb	r3, [r3, r2, lsl #2]
  201d14:	e54b3001 	strb	r3, [fp, #-1]
  201d18:	e55b3001 	ldrb	r3, [fp, #-1]
  201d1c:	e51b2008 	ldr	r2, [fp, #-8]
  201d20:	e0823003 	add	r3, r2, r3
  201d24:	e5d33000 	ldrb	r3, [r3]
  201d28:	e54b3009 	strb	r3, [fp, #-9]
  201d2c:	e55b3001 	ldrb	r3, [fp, #-1]
  201d30:	e2833001 	add	r3, r3, #1
  201d34:	e54b3001 	strb	r3, [fp, #-1]
  201d38:	e59f3118 	ldr	r3, [pc, #280]	; 201e58 <tpl_get_proc+0x184>
  201d3c:	e5d33000 	ldrb	r3, [r3]
  201d40:	e1a03c03 	lsl	r3, r3, #24
  201d44:	e1a02c43 	asr	r2, r3, #24
  201d48:	e59f110c 	ldr	r1, [pc, #268]	; 201e5c <tpl_get_proc+0x188>
  201d4c:	e3a03004 	mov	r3, #4
  201d50:	e1a02182 	lsl	r2, r2, #3
  201d54:	e0812002 	add	r2, r1, r2
  201d58:	e0823003 	add	r3, r2, r3
  201d5c:	e5d33000 	ldrb	r3, [r3]
  201d60:	e55b2001 	ldrb	r2, [fp, #-1]
  201d64:	e1520003 	cmp	r2, r3
  201d68:	3a000001 	bcc	201d74 <tpl_get_proc+0xa0>
  201d6c:	e3a03000 	mov	r3, #0
  201d70:	e54b3001 	strb	r3, [fp, #-1]
  201d74:	e59f30dc 	ldr	r3, [pc, #220]	; 201e58 <tpl_get_proc+0x184>
  201d78:	e5d33000 	ldrb	r3, [r3]
  201d7c:	e1a03c03 	lsl	r3, r3, #24
  201d80:	e1a02c43 	asr	r2, r3, #24
  201d84:	e59f30d4 	ldr	r3, [pc, #212]	; 201e60 <tpl_get_proc+0x18c>
  201d88:	e55b1001 	ldrb	r1, [fp, #-1]
  201d8c:	e7c31102 	strb	r1, [r3, r2, lsl #2]
  201d90:	e59f30c0 	ldr	r3, [pc, #192]	; 201e58 <tpl_get_proc+0x184>
  201d94:	e5d33000 	ldrb	r3, [r3]
  201d98:	e1a03c03 	lsl	r3, r3, #24
  201d9c:	e1a03c43 	asr	r3, r3, #24
  201da0:	e59f00b8 	ldr	r0, [pc, #184]	; 201e60 <tpl_get_proc+0x18c>
  201da4:	e3a02001 	mov	r2, #1
  201da8:	e1a01103 	lsl	r1, r3, #2
  201dac:	e0801001 	add	r1, r0, r1
  201db0:	e0812002 	add	r2, r1, r2
  201db4:	e5d22000 	ldrb	r2, [r2]
  201db8:	e2422001 	sub	r2, r2, #1
  201dbc:	e20220ff 	and	r2, r2, #255	; 0xff
  201dc0:	e59f0098 	ldr	r0, [pc, #152]	; 201e60 <tpl_get_proc+0x18c>
  201dc4:	e3a01001 	mov	r1, #1
  201dc8:	e1a03103 	lsl	r3, r3, #2
  201dcc:	e0803003 	add	r3, r0, r3
  201dd0:	e0833001 	add	r3, r3, r1
  201dd4:	e5c32000 	strb	r2, [r3]
  201dd8:	ea000005 	b	201df4 <tpl_get_proc+0x120>
  201ddc:	e59f3074 	ldr	r3, [pc, #116]	; 201e58 <tpl_get_proc+0x184>
  201de0:	e5d33000 	ldrb	r3, [r3]
  201de4:	e2433001 	sub	r3, r3, #1
  201de8:	e20320ff 	and	r2, r3, #255	; 0xff
  201dec:	e59f3064 	ldr	r3, [pc, #100]	; 201e58 <tpl_get_proc+0x184>
  201df0:	e5c32000 	strb	r2, [r3]
  201df4:	e59f305c 	ldr	r3, [pc, #92]	; 201e58 <tpl_get_proc+0x184>
  201df8:	e5d33000 	ldrb	r3, [r3]
  201dfc:	e1a03c03 	lsl	r3, r3, #24
  201e00:	e1a03c43 	asr	r3, r3, #24
  201e04:	e3530000 	cmp	r3, #0
  201e08:	ba00000b 	blt	201e3c <tpl_get_proc+0x168>
  201e0c:	e59f3044 	ldr	r3, [pc, #68]	; 201e58 <tpl_get_proc+0x184>
  201e10:	e5d33000 	ldrb	r3, [r3]
  201e14:	e1a03c03 	lsl	r3, r3, #24
  201e18:	e1a02c43 	asr	r2, r3, #24
  201e1c:	e59f103c 	ldr	r1, [pc, #60]	; 201e60 <tpl_get_proc+0x18c>
  201e20:	e3a03001 	mov	r3, #1
  201e24:	e1a02102 	lsl	r2, r2, #2
  201e28:	e0812002 	add	r2, r1, r2
  201e2c:	e0823003 	add	r3, r2, r3
  201e30:	e5d33000 	ldrb	r3, [r3]
  201e34:	e3530000 	cmp	r3, #0
  201e38:	0affffe7 	beq	201ddc <tpl_get_proc+0x108>
  201e3c:	e55b3009 	ldrb	r3, [fp, #-9]
  201e40:	e1a03c03 	lsl	r3, r3, #24
  201e44:	e1a03c43 	asr	r3, r3, #24
  201e48:	e1a00003 	mov	r0, r3
  201e4c:	e28bd000 	add	sp, fp, #0
  201e50:	e8bd0800 	pop	{fp}
  201e54:	e12fff1e 	bx	lr
  201e58:	00203654 	.word	0x00203654
  201e5c:	002035f4 	.word	0x002035f4
  201e60:	00203a00 	.word	0x00203a00

00201e64 <tpl_put_preempted_proc>:
  201e64:	e52db004 	push	{fp}		; (str fp, [sp, #-4]!)
  201e68:	e28db000 	add	fp, sp, #0
  201e6c:	e24dd00c 	sub	sp, sp, #12
  201e70:	e1a03000 	mov	r3, r0
  201e74:	e54b300c 	strb	r3, [fp, #-12]
  201e78:	e15b20dc 	ldrsb	r2, [fp, #-12]
  201e7c:	e59f310c 	ldr	r3, [pc, #268]	; 201f90 <tpl_put_preempted_proc+0x12c>
  201e80:	e7933102 	ldr	r3, [r3, r2, lsl #2]
  201e84:	e5d33005 	ldrb	r3, [r3, #5]
  201e88:	e54b3002 	strb	r3, [fp, #-2]
  201e8c:	e15b20d2 	ldrsb	r2, [fp, #-2]
  201e90:	e59f30fc 	ldr	r3, [pc, #252]	; 201f94 <tpl_put_preempted_proc+0x130>
  201e94:	e7d33102 	ldrb	r3, [r3, r2, lsl #2]
  201e98:	e2433001 	sub	r3, r3, #1
  201e9c:	e54b3001 	strb	r3, [fp, #-1]
  201ea0:	e15b20d2 	ldrsb	r2, [fp, #-2]
  201ea4:	e59f10ec 	ldr	r1, [pc, #236]	; 201f98 <tpl_put_preempted_proc+0x134>
  201ea8:	e3a03004 	mov	r3, #4
  201eac:	e1a02182 	lsl	r2, r2, #3
  201eb0:	e0812002 	add	r2, r1, r2
  201eb4:	e0823003 	add	r3, r2, r3
  201eb8:	e5d33000 	ldrb	r3, [r3]
  201ebc:	e55b2001 	ldrb	r2, [fp, #-1]
  201ec0:	e1520003 	cmp	r2, r3
  201ec4:	3a000008 	bcc	201eec <tpl_put_preempted_proc+0x88>
  201ec8:	e15b20d2 	ldrsb	r2, [fp, #-2]
  201ecc:	e59f10c4 	ldr	r1, [pc, #196]	; 201f98 <tpl_put_preempted_proc+0x134>
  201ed0:	e3a03004 	mov	r3, #4
  201ed4:	e1a02182 	lsl	r2, r2, #3
  201ed8:	e0812002 	add	r2, r1, r2
  201edc:	e0823003 	add	r3, r2, r3
  201ee0:	e5d33000 	ldrb	r3, [r3]
  201ee4:	e2433001 	sub	r3, r3, #1
  201ee8:	e54b3001 	strb	r3, [fp, #-1]
  201eec:	e15b20d2 	ldrsb	r2, [fp, #-2]
  201ef0:	e59f309c 	ldr	r3, [pc, #156]	; 201f94 <tpl_put_preempted_proc+0x130>
  201ef4:	e55b1001 	ldrb	r1, [fp, #-1]
  201ef8:	e7c31102 	strb	r1, [r3, r2, lsl #2]
  201efc:	e15b20d2 	ldrsb	r2, [fp, #-2]
  201f00:	e59f3090 	ldr	r3, [pc, #144]	; 201f98 <tpl_put_preempted_proc+0x134>
  201f04:	e7933182 	ldr	r3, [r3, r2, lsl #3]
  201f08:	e50b3008 	str	r3, [fp, #-8]
  201f0c:	e55b3001 	ldrb	r3, [fp, #-1]
  201f10:	e51b2008 	ldr	r2, [fp, #-8]
  201f14:	e0823003 	add	r3, r2, r3
  201f18:	e55b200c 	ldrb	r2, [fp, #-12]
  201f1c:	e5c32000 	strb	r2, [r3]
  201f20:	e15b30d2 	ldrsb	r3, [fp, #-2]
  201f24:	e59f0068 	ldr	r0, [pc, #104]	; 201f94 <tpl_put_preempted_proc+0x130>
  201f28:	e3a02001 	mov	r2, #1
  201f2c:	e1a01103 	lsl	r1, r3, #2
  201f30:	e0801001 	add	r1, r0, r1
  201f34:	e0812002 	add	r2, r1, r2
  201f38:	e5d22000 	ldrb	r2, [r2]
  201f3c:	e2822001 	add	r2, r2, #1
  201f40:	e20220ff 	and	r2, r2, #255	; 0xff
  201f44:	e59f0048 	ldr	r0, [pc, #72]	; 201f94 <tpl_put_preempted_proc+0x130>
  201f48:	e3a01001 	mov	r1, #1
  201f4c:	e1a03103 	lsl	r3, r3, #2
  201f50:	e0803003 	add	r3, r0, r3
  201f54:	e0833001 	add	r3, r3, r1
  201f58:	e5c32000 	strb	r2, [r3]
  201f5c:	e59f3038 	ldr	r3, [pc, #56]	; 201f9c <tpl_put_preempted_proc+0x138>
  201f60:	e5d33000 	ldrb	r3, [r3]
  201f64:	e15b20d2 	ldrsb	r2, [fp, #-2]
  201f68:	e1a03c03 	lsl	r3, r3, #24
  201f6c:	e1a03c43 	asr	r3, r3, #24
  201f70:	e1520003 	cmp	r2, r3
  201f74:	da000002 	ble	201f84 <tpl_put_preempted_proc+0x120>
  201f78:	e59f301c 	ldr	r3, [pc, #28]	; 201f9c <tpl_put_preempted_proc+0x138>
  201f7c:	e55b2002 	ldrb	r2, [fp, #-2]
  201f80:	e5c32000 	strb	r2, [r3]
  201f84:	e28bd000 	add	sp, fp, #0
  201f88:	e8bd0800 	pop	{fp}
  201f8c:	e12fff1e 	bx	lr
  201f90:	0020357c 	.word	0x0020357c
  201f94:	00203a00 	.word	0x00203a00
  201f98:	002035f4 	.word	0x002035f4
  201f9c:	00203654 	.word	0x00203654

00201fa0 <tpl_put_new_proc>:
  201fa0:	e52db004 	push	{fp}		; (str fp, [sp, #-4]!)
  201fa4:	e28db000 	add	fp, sp, #0
  201fa8:	e24dd00c 	sub	sp, sp, #12
  201fac:	e1a03000 	mov	r3, r0
  201fb0:	e54b300c 	strb	r3, [fp, #-12]
  201fb4:	e15b20dc 	ldrsb	r2, [fp, #-12]
  201fb8:	e59f311c 	ldr	r3, [pc, #284]	; 2020dc <tpl_put_new_proc+0x13c>
  201fbc:	e7933102 	ldr	r3, [r3, r2, lsl #2]
  201fc0:	e5d33015 	ldrb	r3, [r3, #21]
  201fc4:	e54b3002 	strb	r3, [fp, #-2]
  201fc8:	e15b20d2 	ldrsb	r2, [fp, #-2]
  201fcc:	e59f310c 	ldr	r3, [pc, #268]	; 2020e0 <tpl_put_new_proc+0x140>
  201fd0:	e7d32102 	ldrb	r2, [r3, r2, lsl #2]
  201fd4:	e15b10d2 	ldrsb	r1, [fp, #-2]
  201fd8:	e59f0100 	ldr	r0, [pc, #256]	; 2020e0 <tpl_put_new_proc+0x140>
  201fdc:	e3a03001 	mov	r3, #1
  201fe0:	e1a01101 	lsl	r1, r1, #2
  201fe4:	e0801001 	add	r1, r0, r1
  201fe8:	e0813003 	add	r3, r1, r3
  201fec:	e5d33000 	ldrb	r3, [r3]
  201ff0:	e0823003 	add	r3, r2, r3
  201ff4:	e54b3001 	strb	r3, [fp, #-1]
  201ff8:	e15b20d2 	ldrsb	r2, [fp, #-2]
  201ffc:	e59f10e0 	ldr	r1, [pc, #224]	; 2020e4 <tpl_put_new_proc+0x144>
  202000:	e3a03004 	mov	r3, #4
  202004:	e1a02182 	lsl	r2, r2, #3
  202008:	e0812002 	add	r2, r1, r2
  20200c:	e0823003 	add	r3, r2, r3
  202010:	e5d33000 	ldrb	r3, [r3]
  202014:	e55b2001 	ldrb	r2, [fp, #-1]
  202018:	e1520003 	cmp	r2, r3
  20201c:	3a000009 	bcc	202048 <tpl_put_new_proc+0xa8>
  202020:	e15b20d2 	ldrsb	r2, [fp, #-2]
  202024:	e59f10b8 	ldr	r1, [pc, #184]	; 2020e4 <tpl_put_new_proc+0x144>
  202028:	e3a03004 	mov	r3, #4
  20202c:	e1a02182 	lsl	r2, r2, #3
  202030:	e0812002 	add	r2, r1, r2
  202034:	e0823003 	add	r3, r2, r3
  202038:	e5d33000 	ldrb	r3, [r3]
  20203c:	e55b2001 	ldrb	r2, [fp, #-1]
  202040:	e0633002 	rsb	r3, r3, r2
  202044:	e54b3001 	strb	r3, [fp, #-1]
  202048:	e15b20d2 	ldrsb	r2, [fp, #-2]
  20204c:	e59f3090 	ldr	r3, [pc, #144]	; 2020e4 <tpl_put_new_proc+0x144>
  202050:	e7933182 	ldr	r3, [r3, r2, lsl #3]
  202054:	e50b3008 	str	r3, [fp, #-8]
  202058:	e55b3001 	ldrb	r3, [fp, #-1]
  20205c:	e51b2008 	ldr	r2, [fp, #-8]
  202060:	e0823003 	add	r3, r2, r3
  202064:	e55b200c 	ldrb	r2, [fp, #-12]
  202068:	e5c32000 	strb	r2, [r3]
  20206c:	e15b30d2 	ldrsb	r3, [fp, #-2]
  202070:	e59f0068 	ldr	r0, [pc, #104]	; 2020e0 <tpl_put_new_proc+0x140>
  202074:	e3a02001 	mov	r2, #1
  202078:	e1a01103 	lsl	r1, r3, #2
  20207c:	e0801001 	add	r1, r0, r1
  202080:	e0812002 	add	r2, r1, r2
  202084:	e5d22000 	ldrb	r2, [r2]
  202088:	e2822001 	add	r2, r2, #1
  20208c:	e20220ff 	and	r2, r2, #255	; 0xff
  202090:	e59f0048 	ldr	r0, [pc, #72]	; 2020e0 <tpl_put_new_proc+0x140>
  202094:	e3a01001 	mov	r1, #1
  202098:	e1a03103 	lsl	r3, r3, #2
  20209c:	e0803003 	add	r3, r0, r3
  2020a0:	e0833001 	add	r3, r3, r1
  2020a4:	e5c32000 	strb	r2, [r3]
  2020a8:	e59f3038 	ldr	r3, [pc, #56]	; 2020e8 <tpl_put_new_proc+0x148>
  2020ac:	e5d33000 	ldrb	r3, [r3]
  2020b0:	e15b20d2 	ldrsb	r2, [fp, #-2]
  2020b4:	e1a03c03 	lsl	r3, r3, #24
  2020b8:	e1a03c43 	asr	r3, r3, #24
  2020bc:	e1520003 	cmp	r2, r3
  2020c0:	da000002 	ble	2020d0 <tpl_put_new_proc+0x130>
  2020c4:	e59f301c 	ldr	r3, [pc, #28]	; 2020e8 <tpl_put_new_proc+0x148>
  2020c8:	e55b2002 	ldrb	r2, [fp, #-2]
  2020cc:	e5c32000 	strb	r2, [r3]
  2020d0:	e28bd000 	add	sp, fp, #0
  2020d4:	e8bd0800 	pop	{fp}
  2020d8:	e12fff1e 	bx	lr
  2020dc:	0020355c 	.word	0x0020355c
  2020e0:	00203a00 	.word	0x00203a00
  2020e4:	002035f4 	.word	0x002035f4
  2020e8:	00203654 	.word	0x00203654

002020ec <tpl_current_os_state>:
  2020ec:	e52db004 	push	{fp}		; (str fp, [sp, #-4]!)
  2020f0:	e28db000 	add	fp, sp, #0
  2020f4:	e24dd004 	sub	sp, sp, #4
  2020f8:	e3a03004 	mov	r3, #4
  2020fc:	e54b3001 	strb	r3, [fp, #-1]
  202100:	e59f3078 	ldr	r3, [pc, #120]	; 202180 <tpl_current_os_state+0x94>
  202104:	e5933010 	ldr	r3, [r3, #16]
  202108:	e3730002 	cmn	r3, #2
  20210c:	1a000002 	bne	20211c <tpl_current_os_state+0x30>
  202110:	e3a03000 	mov	r3, #0
  202114:	e54b3001 	strb	r3, [fp, #-1]
  202118:	ea000013 	b	20216c <tpl_current_os_state+0x80>
  20211c:	e59f305c 	ldr	r3, [pc, #92]	; 202180 <tpl_current_os_state+0x94>
  202120:	e5932010 	ldr	r2, [r3, #16]
  202124:	e59f3058 	ldr	r3, [pc, #88]	; 202184 <tpl_current_os_state+0x98>
  202128:	e5d33000 	ldrb	r3, [r3]
  20212c:	e1a03c03 	lsl	r3, r3, #24
  202130:	e1a03c43 	asr	r3, r3, #24
  202134:	e1520003 	cmp	r2, r3
  202138:	1a000002 	bne	202148 <tpl_current_os_state+0x5c>
  20213c:	e3a03002 	mov	r3, #2
  202140:	e54b3001 	strb	r3, [fp, #-1]
  202144:	ea000008 	b	20216c <tpl_current_os_state+0x80>
  202148:	e59f3030 	ldr	r3, [pc, #48]	; 202180 <tpl_current_os_state+0x94>
  20214c:	e5933010 	ldr	r3, [r3, #16]
  202150:	e3530002 	cmp	r3, #2
  202154:	da000002 	ble	202164 <tpl_current_os_state+0x78>
  202158:	e3a03003 	mov	r3, #3
  20215c:	e54b3001 	strb	r3, [fp, #-1]
  202160:	ea000001 	b	20216c <tpl_current_os_state+0x80>
  202164:	e3a03001 	mov	r3, #1
  202168:	e54b3001 	strb	r3, [fp, #-1]
  20216c:	e55b3001 	ldrb	r3, [fp, #-1]
  202170:	e1a00003 	mov	r0, r3
  202174:	e28bd000 	add	sp, fp, #0
  202178:	e8bd0800 	pop	{fp}
  20217c:	e12fff1e 	bx	lr
  202180:	0020363c 	.word	0x0020363c
  202184:	0020336d 	.word	0x0020336d

00202188 <tpl_get_internal_resource>:
  202188:	e52db004 	push	{fp}		; (str fp, [sp, #-4]!)
  20218c:	e28db000 	add	fp, sp, #0
  202190:	e24dd008 	sub	sp, sp, #8
  202194:	e1a03000 	mov	r3, r0
  202198:	e54b3008 	strb	r3, [fp, #-8]
  20219c:	e15b20d8 	ldrsb	r2, [fp, #-8]
  2021a0:	e59f306c 	ldr	r3, [pc, #108]	; 202214 <tpl_get_internal_resource+0x8c>
  2021a4:	e7933102 	ldr	r3, [r3, r2, lsl #2]
  2021a8:	e5933010 	ldr	r3, [r3, #16]
  2021ac:	e50b3004 	str	r3, [fp, #-4]
  2021b0:	e51b3004 	ldr	r3, [fp, #-4]
  2021b4:	e3530000 	cmp	r3, #0
  2021b8:	0a000012 	beq	202208 <tpl_get_internal_resource+0x80>
  2021bc:	e51b3004 	ldr	r3, [fp, #-4]
  2021c0:	e5d33002 	ldrb	r3, [r3, #2]
  2021c4:	e3530000 	cmp	r3, #0
  2021c8:	1a00000e 	bne	202208 <tpl_get_internal_resource+0x80>
  2021cc:	e51b3004 	ldr	r3, [fp, #-4]
  2021d0:	e3a02001 	mov	r2, #1
  2021d4:	e5c32002 	strb	r2, [r3, #2]
  2021d8:	e15b20d8 	ldrsb	r2, [fp, #-8]
  2021dc:	e59f3034 	ldr	r3, [pc, #52]	; 202218 <tpl_get_internal_resource+0x90>
  2021e0:	e7933102 	ldr	r3, [r3, r2, lsl #2]
  2021e4:	e5d32005 	ldrb	r2, [r3, #5]
  2021e8:	e51b3004 	ldr	r3, [fp, #-4]
  2021ec:	e5c32001 	strb	r2, [r3, #1]
  2021f0:	e15b20d8 	ldrsb	r2, [fp, #-8]
  2021f4:	e59f301c 	ldr	r3, [pc, #28]	; 202218 <tpl_get_internal_resource+0x90>
  2021f8:	e7933102 	ldr	r3, [r3, r2, lsl #2]
  2021fc:	e51b2004 	ldr	r2, [fp, #-4]
  202200:	e5d22000 	ldrb	r2, [r2]
  202204:	e5c32005 	strb	r2, [r3, #5]
  202208:	e28bd000 	add	sp, fp, #0
  20220c:	e8bd0800 	pop	{fp}
  202210:	e12fff1e 	bx	lr
  202214:	0020355c 	.word	0x0020355c
  202218:	0020357c 	.word	0x0020357c

0020221c <tpl_release_internal_resource>:
  20221c:	e52db004 	push	{fp}		; (str fp, [sp, #-4]!)
  202220:	e28db000 	add	fp, sp, #0
  202224:	e24dd008 	sub	sp, sp, #8
  202228:	e1a03000 	mov	r3, r0
  20222c:	e54b3008 	strb	r3, [fp, #-8]
  202230:	e15b20d8 	ldrsb	r2, [fp, #-8]
  202234:	e59f3054 	ldr	r3, [pc, #84]	; 202290 <tpl_release_internal_resource+0x74>
  202238:	e7933102 	ldr	r3, [r3, r2, lsl #2]
  20223c:	e5933010 	ldr	r3, [r3, #16]
  202240:	e50b3004 	str	r3, [fp, #-4]
  202244:	e51b3004 	ldr	r3, [fp, #-4]
  202248:	e3530000 	cmp	r3, #0
  20224c:	0a00000c 	beq	202284 <tpl_release_internal_resource+0x68>
  202250:	e51b3004 	ldr	r3, [fp, #-4]
  202254:	e5d33002 	ldrb	r3, [r3, #2]
  202258:	e3530001 	cmp	r3, #1
  20225c:	1a000008 	bne	202284 <tpl_release_internal_resource+0x68>
  202260:	e51b3004 	ldr	r3, [fp, #-4]
  202264:	e3a02000 	mov	r2, #0
  202268:	e5c32002 	strb	r2, [r3, #2]
  20226c:	e15b20d8 	ldrsb	r2, [fp, #-8]
  202270:	e59f301c 	ldr	r3, [pc, #28]	; 202294 <tpl_release_internal_resource+0x78>
  202274:	e7933102 	ldr	r3, [r3, r2, lsl #2]
  202278:	e51b2004 	ldr	r2, [fp, #-4]
  20227c:	e5d22001 	ldrb	r2, [r2, #1]
  202280:	e5c32005 	strb	r2, [r3, #5]
  202284:	e28bd000 	add	sp, fp, #0
  202288:	e8bd0800 	pop	{fp}
  20228c:	e12fff1e 	bx	lr
  202290:	0020355c 	.word	0x0020355c
  202294:	0020357c 	.word	0x0020357c

00202298 <tpl_schedule_from_running>:
  202298:	e92d4800 	push	{fp, lr}
  20229c:	e28db004 	add	fp, sp, #4
  2022a0:	e24dd004 	sub	sp, sp, #4
  2022a4:	e3a03000 	mov	r3, #0
  2022a8:	e54b3005 	strb	r3, [fp, #-5]
  2022ac:	e59f313c 	ldr	r3, [pc, #316]	; 2023f0 <tpl_schedule_from_running+0x158>
  2022b0:	e593300c 	ldr	r3, [r3, #12]
  2022b4:	e5d32005 	ldrb	r2, [r3, #5]
  2022b8:	e59f3134 	ldr	r3, [pc, #308]	; 2023f4 <tpl_schedule_from_running+0x15c>
  2022bc:	e5d33000 	ldrb	r3, [r3]
  2022c0:	e1a02c02 	lsl	r2, r2, #24
  2022c4:	e1a02c42 	asr	r2, r2, #24
  2022c8:	e1a03c03 	lsl	r3, r3, #24
  2022cc:	e1a03c43 	asr	r3, r3, #24
  2022d0:	e1520003 	cmp	r2, r3
  2022d4:	aa000040 	bge	2023dc <tpl_schedule_from_running+0x144>
  2022d8:	eb0011f1 	bl	206aa4 <PostTaskHook>
  2022dc:	e59f310c 	ldr	r3, [pc, #268]	; 2023f0 <tpl_schedule_from_running+0x158>
  2022e0:	e593300c 	ldr	r3, [r3, #12]
  2022e4:	e3a02001 	mov	r2, #1
  2022e8:	e5c32006 	strb	r2, [r3, #6]
  2022ec:	e59f30fc 	ldr	r3, [pc, #252]	; 2023f0 <tpl_schedule_from_running+0x158>
  2022f0:	e5933010 	ldr	r3, [r3, #16]
  2022f4:	e20330ff 	and	r3, r3, #255	; 0xff
  2022f8:	e1a03c03 	lsl	r3, r3, #24
  2022fc:	e1a03c43 	asr	r3, r3, #24
  202300:	e1a00003 	mov	r0, r3
  202304:	ebfffed6 	bl	201e64 <tpl_put_preempted_proc>
  202308:	e59f30e0 	ldr	r3, [pc, #224]	; 2023f0 <tpl_schedule_from_running+0x158>
  20230c:	e593200c 	ldr	r2, [r3, #12]
  202310:	e59f30d8 	ldr	r3, [pc, #216]	; 2023f0 <tpl_schedule_from_running+0x158>
  202314:	e5832008 	str	r2, [r3, #8]
  202318:	e59f30d0 	ldr	r3, [pc, #208]	; 2023f0 <tpl_schedule_from_running+0x158>
  20231c:	e5932004 	ldr	r2, [r3, #4]
  202320:	e59f30c8 	ldr	r3, [pc, #200]	; 2023f0 <tpl_schedule_from_running+0x158>
  202324:	e5832000 	str	r2, [r3]
  202328:	ebfffe69 	bl	201cd4 <tpl_get_proc>
  20232c:	e1a03000 	mov	r3, r0
  202330:	e20330ff 	and	r3, r3, #255	; 0xff
  202334:	e1a03c03 	lsl	r3, r3, #24
  202338:	e1a02c43 	asr	r2, r3, #24
  20233c:	e59f30ac 	ldr	r3, [pc, #172]	; 2023f0 <tpl_schedule_from_running+0x158>
  202340:	e5832010 	str	r2, [r3, #16]
  202344:	e59f30a4 	ldr	r3, [pc, #164]	; 2023f0 <tpl_schedule_from_running+0x158>
  202348:	e5932010 	ldr	r2, [r3, #16]
  20234c:	e59f30a4 	ldr	r3, [pc, #164]	; 2023f8 <tpl_schedule_from_running+0x160>
  202350:	e7932102 	ldr	r2, [r3, r2, lsl #2]
  202354:	e59f3094 	ldr	r3, [pc, #148]	; 2023f0 <tpl_schedule_from_running+0x158>
  202358:	e583200c 	str	r2, [r3, #12]
  20235c:	e59f308c 	ldr	r3, [pc, #140]	; 2023f0 <tpl_schedule_from_running+0x158>
  202360:	e5932010 	ldr	r2, [r3, #16]
  202364:	e59f3090 	ldr	r3, [pc, #144]	; 2023fc <tpl_schedule_from_running+0x164>
  202368:	e7932102 	ldr	r2, [r3, r2, lsl #2]
  20236c:	e59f307c 	ldr	r3, [pc, #124]	; 2023f0 <tpl_schedule_from_running+0x158>
  202370:	e5832004 	str	r2, [r3, #4]
  202374:	e59f3074 	ldr	r3, [pc, #116]	; 2023f0 <tpl_schedule_from_running+0x158>
  202378:	e593300c 	ldr	r3, [r3, #12]
  20237c:	e5d33006 	ldrb	r3, [r3, #6]
  202380:	e3530005 	cmp	r3, #5
  202384:	1a000006 	bne	2023a4 <tpl_schedule_from_running+0x10c>
  202388:	e59f3060 	ldr	r3, [pc, #96]	; 2023f0 <tpl_schedule_from_running+0x158>
  20238c:	e5933010 	ldr	r3, [r3, #16]
  202390:	e20330ff 	and	r3, r3, #255	; 0xff
  202394:	e1a03c03 	lsl	r3, r3, #24
  202398:	e1a03c43 	asr	r3, r3, #24
  20239c:	e1a00003 	mov	r0, r3
  2023a0:	eb000110 	bl	2027e8 <tpl_init_proc>
  2023a4:	e59f3044 	ldr	r3, [pc, #68]	; 2023f0 <tpl_schedule_from_running+0x158>
  2023a8:	e593300c 	ldr	r3, [r3, #12]
  2023ac:	e3a02002 	mov	r2, #2
  2023b0:	e5c32006 	strb	r2, [r3, #6]
  2023b4:	e59f3034 	ldr	r3, [pc, #52]	; 2023f0 <tpl_schedule_from_running+0x158>
  2023b8:	e5933010 	ldr	r3, [r3, #16]
  2023bc:	e20330ff 	and	r3, r3, #255	; 0xff
  2023c0:	e1a03c03 	lsl	r3, r3, #24
  2023c4:	e1a03c43 	asr	r3, r3, #24
  2023c8:	e1a00003 	mov	r0, r3
  2023cc:	ebffff6d 	bl	202188 <tpl_get_internal_resource>
  2023d0:	eb001198 	bl	206a38 <PreTaskHook>
  2023d4:	e3a03003 	mov	r3, #3
  2023d8:	e54b3005 	strb	r3, [fp, #-5]
  2023dc:	e59f300c 	ldr	r3, [pc, #12]	; 2023f0 <tpl_schedule_from_running+0x158>
  2023e0:	e55b2005 	ldrb	r2, [fp, #-5]
  2023e4:	e5c32014 	strb	r2, [r3, #20]
  2023e8:	e24bd004 	sub	sp, fp, #4
  2023ec:	e8bd8800 	pop	{fp, pc}
  2023f0:	0020363c 	.word	0x0020363c
  2023f4:	00203654 	.word	0x00203654
  2023f8:	0020357c 	.word	0x0020357c
  2023fc:	0020355c 	.word	0x0020355c

00202400 <tpl_schedule_from_dying>:
  202400:	e92d4800 	push	{fp, lr}
  202404:	e28db004 	add	fp, sp, #4
  202408:	eb0011a5 	bl	206aa4 <PostTaskHook>
  20240c:	e59f3128 	ldr	r3, [pc, #296]	; 20253c <tpl_schedule_from_dying+0x13c>
  202410:	e5933010 	ldr	r3, [r3, #16]
  202414:	e20330ff 	and	r3, r3, #255	; 0xff
  202418:	e1a03c03 	lsl	r3, r3, #24
  20241c:	e1a03c43 	asr	r3, r3, #24
  202420:	e1a00003 	mov	r0, r3
  202424:	ebffff7c 	bl	20221c <tpl_release_internal_resource>
  202428:	e59f310c 	ldr	r3, [pc, #268]	; 20253c <tpl_schedule_from_dying+0x13c>
  20242c:	e593300c 	ldr	r3, [r3, #12]
  202430:	e5d33004 	ldrb	r3, [r3, #4]
  202434:	e3530000 	cmp	r3, #0
  202438:	0a000004 	beq	202450 <tpl_schedule_from_dying+0x50>
  20243c:	e59f30f8 	ldr	r3, [pc, #248]	; 20253c <tpl_schedule_from_dying+0x13c>
  202440:	e593300c 	ldr	r3, [r3, #12]
  202444:	e3a02005 	mov	r2, #5
  202448:	e5c32006 	strb	r2, [r3, #6]
  20244c:	ea000003 	b	202460 <tpl_schedule_from_dying+0x60>
  202450:	e59f30e4 	ldr	r3, [pc, #228]	; 20253c <tpl_schedule_from_dying+0x13c>
  202454:	e593300c 	ldr	r3, [r3, #12]
  202458:	e3a02000 	mov	r2, #0
  20245c:	e5c32006 	strb	r2, [r3, #6]
  202460:	e59f30d4 	ldr	r3, [pc, #212]	; 20253c <tpl_schedule_from_dying+0x13c>
  202464:	e593200c 	ldr	r2, [r3, #12]
  202468:	e59f30cc 	ldr	r3, [pc, #204]	; 20253c <tpl_schedule_from_dying+0x13c>
  20246c:	e5832008 	str	r2, [r3, #8]
  202470:	e59f30c4 	ldr	r3, [pc, #196]	; 20253c <tpl_schedule_from_dying+0x13c>
  202474:	e5932004 	ldr	r2, [r3, #4]
  202478:	e59f30bc 	ldr	r3, [pc, #188]	; 20253c <tpl_schedule_from_dying+0x13c>
  20247c:	e5832000 	str	r2, [r3]
  202480:	ebfffe13 	bl	201cd4 <tpl_get_proc>
  202484:	e1a03000 	mov	r3, r0
  202488:	e20330ff 	and	r3, r3, #255	; 0xff
  20248c:	e1a03c03 	lsl	r3, r3, #24
  202490:	e1a02c43 	asr	r2, r3, #24
  202494:	e59f30a0 	ldr	r3, [pc, #160]	; 20253c <tpl_schedule_from_dying+0x13c>
  202498:	e5832010 	str	r2, [r3, #16]
  20249c:	e59f3098 	ldr	r3, [pc, #152]	; 20253c <tpl_schedule_from_dying+0x13c>
  2024a0:	e5932010 	ldr	r2, [r3, #16]
  2024a4:	e59f3094 	ldr	r3, [pc, #148]	; 202540 <tpl_schedule_from_dying+0x140>
  2024a8:	e7932102 	ldr	r2, [r3, r2, lsl #2]
  2024ac:	e59f3088 	ldr	r3, [pc, #136]	; 20253c <tpl_schedule_from_dying+0x13c>
  2024b0:	e583200c 	str	r2, [r3, #12]
  2024b4:	e59f3080 	ldr	r3, [pc, #128]	; 20253c <tpl_schedule_from_dying+0x13c>
  2024b8:	e5932010 	ldr	r2, [r3, #16]
  2024bc:	e59f3080 	ldr	r3, [pc, #128]	; 202544 <tpl_schedule_from_dying+0x144>
  2024c0:	e7932102 	ldr	r2, [r3, r2, lsl #2]
  2024c4:	e59f3070 	ldr	r3, [pc, #112]	; 20253c <tpl_schedule_from_dying+0x13c>
  2024c8:	e5832004 	str	r2, [r3, #4]
  2024cc:	e59f3068 	ldr	r3, [pc, #104]	; 20253c <tpl_schedule_from_dying+0x13c>
  2024d0:	e593300c 	ldr	r3, [r3, #12]
  2024d4:	e5d33006 	ldrb	r3, [r3, #6]
  2024d8:	e3530005 	cmp	r3, #5
  2024dc:	1a000006 	bne	2024fc <tpl_schedule_from_dying+0xfc>
  2024e0:	e59f3054 	ldr	r3, [pc, #84]	; 20253c <tpl_schedule_from_dying+0x13c>
  2024e4:	e5933010 	ldr	r3, [r3, #16]
  2024e8:	e20330ff 	and	r3, r3, #255	; 0xff
  2024ec:	e1a03c03 	lsl	r3, r3, #24
  2024f0:	e1a03c43 	asr	r3, r3, #24
  2024f4:	e1a00003 	mov	r0, r3
  2024f8:	eb0000ba 	bl	2027e8 <tpl_init_proc>
  2024fc:	e59f3038 	ldr	r3, [pc, #56]	; 20253c <tpl_schedule_from_dying+0x13c>
  202500:	e593300c 	ldr	r3, [r3, #12]
  202504:	e3a02002 	mov	r2, #2
  202508:	e5c32006 	strb	r2, [r3, #6]
  20250c:	e59f3028 	ldr	r3, [pc, #40]	; 20253c <tpl_schedule_from_dying+0x13c>
  202510:	e5933010 	ldr	r3, [r3, #16]
  202514:	e20330ff 	and	r3, r3, #255	; 0xff
  202518:	e1a03c03 	lsl	r3, r3, #24
  20251c:	e1a03c43 	asr	r3, r3, #24
  202520:	e1a00003 	mov	r0, r3
  202524:	ebffff17 	bl	202188 <tpl_get_internal_resource>
  202528:	eb001142 	bl	206a38 <PreTaskHook>
  20252c:	e59f3008 	ldr	r3, [pc, #8]	; 20253c <tpl_schedule_from_dying+0x13c>
  202530:	e3a02001 	mov	r2, #1
  202534:	e5c32014 	strb	r2, [r3, #20]
  202538:	e8bd8800 	pop	{fp, pc}
  20253c:	0020363c 	.word	0x0020363c
  202540:	0020357c 	.word	0x0020357c
  202544:	0020355c 	.word	0x0020355c

00202548 <tpl_schedule_from_waiting>:
  202548:	e92d4800 	push	{fp, lr}
  20254c:	e28db004 	add	fp, sp, #4
  202550:	eb001153 	bl	206aa4 <PostTaskHook>
  202554:	e59f30f0 	ldr	r3, [pc, #240]	; 20264c <tpl_schedule_from_waiting+0x104>
  202558:	e5933010 	ldr	r3, [r3, #16]
  20255c:	e20330ff 	and	r3, r3, #255	; 0xff
  202560:	e1a03c03 	lsl	r3, r3, #24
  202564:	e1a03c43 	asr	r3, r3, #24
  202568:	e1a00003 	mov	r0, r3
  20256c:	ebffff2a 	bl	20221c <tpl_release_internal_resource>
  202570:	e59f30d4 	ldr	r3, [pc, #212]	; 20264c <tpl_schedule_from_waiting+0x104>
  202574:	e593200c 	ldr	r2, [r3, #12]
  202578:	e59f30cc 	ldr	r3, [pc, #204]	; 20264c <tpl_schedule_from_waiting+0x104>
  20257c:	e5832008 	str	r2, [r3, #8]
  202580:	e59f30c4 	ldr	r3, [pc, #196]	; 20264c <tpl_schedule_from_waiting+0x104>
  202584:	e5932004 	ldr	r2, [r3, #4]
  202588:	e59f30bc 	ldr	r3, [pc, #188]	; 20264c <tpl_schedule_from_waiting+0x104>
  20258c:	e5832000 	str	r2, [r3]
  202590:	ebfffdcf 	bl	201cd4 <tpl_get_proc>
  202594:	e1a03000 	mov	r3, r0
  202598:	e20330ff 	and	r3, r3, #255	; 0xff
  20259c:	e1a03c03 	lsl	r3, r3, #24
  2025a0:	e1a02c43 	asr	r2, r3, #24
  2025a4:	e59f30a0 	ldr	r3, [pc, #160]	; 20264c <tpl_schedule_from_waiting+0x104>
  2025a8:	e5832010 	str	r2, [r3, #16]
  2025ac:	e59f3098 	ldr	r3, [pc, #152]	; 20264c <tpl_schedule_from_waiting+0x104>
  2025b0:	e5932010 	ldr	r2, [r3, #16]
  2025b4:	e59f3094 	ldr	r3, [pc, #148]	; 202650 <tpl_schedule_from_waiting+0x108>
  2025b8:	e7932102 	ldr	r2, [r3, r2, lsl #2]
  2025bc:	e59f3088 	ldr	r3, [pc, #136]	; 20264c <tpl_schedule_from_waiting+0x104>
  2025c0:	e583200c 	str	r2, [r3, #12]
  2025c4:	e59f3080 	ldr	r3, [pc, #128]	; 20264c <tpl_schedule_from_waiting+0x104>
  2025c8:	e5932010 	ldr	r2, [r3, #16]
  2025cc:	e59f3080 	ldr	r3, [pc, #128]	; 202654 <tpl_schedule_from_waiting+0x10c>
  2025d0:	e7932102 	ldr	r2, [r3, r2, lsl #2]
  2025d4:	e59f3070 	ldr	r3, [pc, #112]	; 20264c <tpl_schedule_from_waiting+0x104>
  2025d8:	e5832004 	str	r2, [r3, #4]
  2025dc:	e59f3068 	ldr	r3, [pc, #104]	; 20264c <tpl_schedule_from_waiting+0x104>
  2025e0:	e593300c 	ldr	r3, [r3, #12]
  2025e4:	e5d33006 	ldrb	r3, [r3, #6]
  2025e8:	e3530005 	cmp	r3, #5
  2025ec:	1a000006 	bne	20260c <tpl_schedule_from_waiting+0xc4>
  2025f0:	e59f3054 	ldr	r3, [pc, #84]	; 20264c <tpl_schedule_from_waiting+0x104>
  2025f4:	e5933010 	ldr	r3, [r3, #16]
  2025f8:	e20330ff 	and	r3, r3, #255	; 0xff
  2025fc:	e1a03c03 	lsl	r3, r3, #24
  202600:	e1a03c43 	asr	r3, r3, #24
  202604:	e1a00003 	mov	r0, r3
  202608:	eb000076 	bl	2027e8 <tpl_init_proc>
  20260c:	e59f3038 	ldr	r3, [pc, #56]	; 20264c <tpl_schedule_from_waiting+0x104>
  202610:	e593300c 	ldr	r3, [r3, #12]
  202614:	e3a02002 	mov	r2, #2
  202618:	e5c32006 	strb	r2, [r3, #6]
  20261c:	e59f3028 	ldr	r3, [pc, #40]	; 20264c <tpl_schedule_from_waiting+0x104>
  202620:	e5933010 	ldr	r3, [r3, #16]
  202624:	e20330ff 	and	r3, r3, #255	; 0xff
  202628:	e1a03c03 	lsl	r3, r3, #24
  20262c:	e1a03c43 	asr	r3, r3, #24
  202630:	e1a00003 	mov	r0, r3
  202634:	ebfffed3 	bl	202188 <tpl_get_internal_resource>
  202638:	eb0010fe 	bl	206a38 <PreTaskHook>
  20263c:	e59f3008 	ldr	r3, [pc, #8]	; 20264c <tpl_schedule_from_waiting+0x104>
  202640:	e3a02003 	mov	r2, #3
  202644:	e5c32014 	strb	r2, [r3, #20]
  202648:	e8bd8800 	pop	{fp, pc}
  20264c:	0020363c 	.word	0x0020363c
  202650:	0020357c 	.word	0x0020357c
  202654:	0020355c 	.word	0x0020355c

00202658 <tpl_start_scheduling>:
  202658:	e92d4800 	push	{fp, lr}
  20265c:	e28db004 	add	fp, sp, #4
  202660:	e24dd004 	sub	sp, sp, #4
  202664:	ebfffd9a 	bl	201cd4 <tpl_get_proc>
  202668:	e1a03000 	mov	r3, r0
  20266c:	e54b3005 	strb	r3, [fp, #-5]
  202670:	e15b20d5 	ldrsb	r2, [fp, #-5]
  202674:	e59f3068 	ldr	r3, [pc, #104]	; 2026e4 <tpl_start_scheduling+0x8c>
  202678:	e5832010 	str	r2, [r3, #16]
  20267c:	e15b20d5 	ldrsb	r2, [fp, #-5]
  202680:	e59f3060 	ldr	r3, [pc, #96]	; 2026e8 <tpl_start_scheduling+0x90>
  202684:	e7932102 	ldr	r2, [r3, r2, lsl #2]
  202688:	e59f3054 	ldr	r3, [pc, #84]	; 2026e4 <tpl_start_scheduling+0x8c>
  20268c:	e583200c 	str	r2, [r3, #12]
  202690:	e15b20d5 	ldrsb	r2, [fp, #-5]
  202694:	e59f3050 	ldr	r3, [pc, #80]	; 2026ec <tpl_start_scheduling+0x94>
  202698:	e7932102 	ldr	r2, [r3, r2, lsl #2]
  20269c:	e59f3040 	ldr	r3, [pc, #64]	; 2026e4 <tpl_start_scheduling+0x8c>
  2026a0:	e5832004 	str	r2, [r3, #4]
  2026a4:	e15b30d5 	ldrsb	r3, [fp, #-5]
  2026a8:	e1a00003 	mov	r0, r3
  2026ac:	eb00004d 	bl	2027e8 <tpl_init_proc>
  2026b0:	e59f302c 	ldr	r3, [pc, #44]	; 2026e4 <tpl_start_scheduling+0x8c>
  2026b4:	e593300c 	ldr	r3, [r3, #12]
  2026b8:	e3a02002 	mov	r2, #2
  2026bc:	e5c32006 	strb	r2, [r3, #6]
  2026c0:	e15b30d5 	ldrsb	r3, [fp, #-5]
  2026c4:	e1a00003 	mov	r0, r3
  2026c8:	ebfffeae 	bl	202188 <tpl_get_internal_resource>
  2026cc:	eb0010d9 	bl	206a38 <PreTaskHook>
  2026d0:	e59f300c 	ldr	r3, [pc, #12]	; 2026e4 <tpl_start_scheduling+0x8c>
  2026d4:	e3a02001 	mov	r2, #1
  2026d8:	e5c32014 	strb	r2, [r3, #20]
  2026dc:	e24bd004 	sub	sp, fp, #4
  2026e0:	e8bd8800 	pop	{fp, pc}
  2026e4:	0020363c 	.word	0x0020363c
  2026e8:	0020357c 	.word	0x0020357c
  2026ec:	0020355c 	.word	0x0020355c

002026f0 <tpl_activate_task>:
  2026f0:	e92d4800 	push	{fp, lr}
  2026f4:	e28db004 	add	fp, sp, #4
  2026f8:	e24dd010 	sub	sp, sp, #16
  2026fc:	e1a03000 	mov	r3, r0
  202700:	e54b3014 	strb	r3, [fp, #-20]
  202704:	e3a03004 	mov	r3, #4
  202708:	e54b3005 	strb	r3, [fp, #-5]
  20270c:	e15b21d4 	ldrsb	r2, [fp, #-20]	; 0xffffffec
  202710:	e59f3090 	ldr	r3, [pc, #144]	; 2027a8 <tpl_activate_task+0xb8>
  202714:	e7933102 	ldr	r3, [r3, r2, lsl #2]
  202718:	e50b300c 	str	r3, [fp, #-12]
  20271c:	e15b21d4 	ldrsb	r2, [fp, #-20]	; 0xffffffec
  202720:	e59f3084 	ldr	r3, [pc, #132]	; 2027ac <tpl_activate_task+0xbc>
  202724:	e7933102 	ldr	r3, [r3, r2, lsl #2]
  202728:	e50b3010 	str	r3, [fp, #-16]
  20272c:	e51b300c 	ldr	r3, [fp, #-12]
  202730:	e5d32004 	ldrb	r2, [r3, #4]
  202734:	e51b3010 	ldr	r3, [fp, #-16]
  202738:	e5d33016 	ldrb	r3, [r3, #22]
  20273c:	e1520003 	cmp	r2, r3
  202740:	2a000014 	bcs	202798 <tpl_activate_task+0xa8>
  202744:	e51b300c 	ldr	r3, [fp, #-12]
  202748:	e5d33004 	ldrb	r3, [r3, #4]
  20274c:	e3530000 	cmp	r3, #0
  202750:	1a000005 	bne	20276c <tpl_activate_task+0x7c>
  202754:	e51b300c 	ldr	r3, [fp, #-12]
  202758:	e3a02005 	mov	r2, #5
  20275c:	e5c32006 	strb	r2, [r3, #6]
  202760:	e3a03020 	mov	r3, #32
  202764:	e54b3005 	strb	r3, [fp, #-5]
  202768:	ea000001 	b	202774 <tpl_activate_task+0x84>
  20276c:	e3a03000 	mov	r3, #0
  202770:	e54b3005 	strb	r3, [fp, #-5]
  202774:	e15b31d4 	ldrsb	r3, [fp, #-20]	; 0xffffffec
  202778:	e1a00003 	mov	r0, r3
  20277c:	ebfffe07 	bl	201fa0 <tpl_put_new_proc>
  202780:	e51b300c 	ldr	r3, [fp, #-12]
  202784:	e5d33004 	ldrb	r3, [r3, #4]
  202788:	e2833001 	add	r3, r3, #1
  20278c:	e20320ff 	and	r2, r3, #255	; 0xff
  202790:	e51b300c 	ldr	r3, [fp, #-12]
  202794:	e5c32004 	strb	r2, [r3, #4]
  202798:	e55b3005 	ldrb	r3, [fp, #-5]
  20279c:	e1a00003 	mov	r0, r3
  2027a0:	e24bd004 	sub	sp, fp, #4
  2027a4:	e8bd8800 	pop	{fp, pc}
  2027a8:	0020357c 	.word	0x0020357c
  2027ac:	0020355c 	.word	0x0020355c

002027b0 <tpl_set_event>:
  2027b0:	e52db004 	push	{fp}		; (str fp, [sp, #-4]!)
  2027b4:	e28db000 	add	fp, sp, #0
  2027b8:	e24dd00c 	sub	sp, sp, #12
  2027bc:	e1a02000 	mov	r2, r0
  2027c0:	e1a03001 	mov	r3, r1
  2027c4:	e54b2008 	strb	r2, [fp, #-8]
  2027c8:	e54b300c 	strb	r3, [fp, #-12]
  2027cc:	e3a03000 	mov	r3, #0
  2027d0:	e54b3001 	strb	r3, [fp, #-1]
  2027d4:	e55b3001 	ldrb	r3, [fp, #-1]
  2027d8:	e1a00003 	mov	r0, r3
  2027dc:	e28bd000 	add	sp, fp, #0
  2027e0:	e8bd0800 	pop	{fp}
  2027e4:	e12fff1e 	bx	lr

002027e8 <tpl_init_proc>:
  2027e8:	e92d4800 	push	{fp, lr}
  2027ec:	e28db004 	add	fp, sp, #4
  2027f0:	e24dd008 	sub	sp, sp, #8
  2027f4:	e1a03000 	mov	r3, r0
  2027f8:	e54b300c 	strb	r3, [fp, #-12]
  2027fc:	e15b20dc 	ldrsb	r2, [fp, #-12]
  202800:	e59f303c 	ldr	r3, [pc, #60]	; 202844 <tpl_init_proc+0x5c>
  202804:	e7933102 	ldr	r3, [r3, r2, lsl #2]
  202808:	e50b3008 	str	r3, [fp, #-8]
  20280c:	e15b20dc 	ldrsb	r2, [fp, #-12]
  202810:	e59f3030 	ldr	r3, [pc, #48]	; 202848 <tpl_init_proc+0x60>
  202814:	e7933102 	ldr	r3, [r3, r2, lsl #2]
  202818:	e5d32015 	ldrb	r2, [r3, #21]
  20281c:	e51b3008 	ldr	r3, [fp, #-8]
  202820:	e5c32005 	strb	r2, [r3, #5]
  202824:	e51b3008 	ldr	r3, [fp, #-8]
  202828:	e3a02000 	mov	r2, #0
  20282c:	e5832000 	str	r2, [r3]
  202830:	e15b30dc 	ldrsb	r3, [fp, #-12]
  202834:	e1a00003 	mov	r0, r3
  202838:	eb000100 	bl	202c40 <tpl_init_context>
  20283c:	e24bd004 	sub	sp, fp, #4
  202840:	e8bd8800 	pop	{fp, pc}
  202844:	0020357c 	.word	0x0020357c
  202848:	0020355c 	.word	0x0020355c

0020284c <tpl_init_os>:
  20284c:	e92d4800 	push	{fp, lr}
  202850:	e28db004 	add	fp, sp, #4
  202854:	e24dd00c 	sub	sp, sp, #12
  202858:	e1a03000 	mov	r3, r0
  20285c:	e54b3010 	strb	r3, [fp, #-16]
  202860:	e3a00007 	mov	r0, #7
  202864:	ebffffa1 	bl	2026f0 <tpl_activate_task>
  202868:	e1a03000 	mov	r3, r0
  20286c:	e54b3007 	strb	r3, [fp, #-7]
  202870:	e3a03000 	mov	r3, #0
  202874:	e14b30b6 	strh	r3, [fp, #-6]
  202878:	ea000010 	b	2028c0 <tpl_init_os+0x74>
  20287c:	e15b20b6 	ldrh	r2, [fp, #-6]
  202880:	e59f30a4 	ldr	r3, [pc, #164]	; 20292c <tpl_init_os+0xe0>
  202884:	e7933102 	ldr	r3, [r3, r2, lsl #2]
  202888:	e5d33006 	ldrb	r3, [r3, #6]
  20288c:	e3530004 	cmp	r3, #4
  202890:	1a000007 	bne	2028b4 <tpl_init_os+0x68>
  202894:	e15b30b6 	ldrh	r3, [fp, #-6]
  202898:	e20330ff 	and	r3, r3, #255	; 0xff
  20289c:	e1a03c03 	lsl	r3, r3, #24
  2028a0:	e1a03c43 	asr	r3, r3, #24
  2028a4:	e1a00003 	mov	r0, r3
  2028a8:	ebffff90 	bl	2026f0 <tpl_activate_task>
  2028ac:	e1a03000 	mov	r3, r0
  2028b0:	e54b3007 	strb	r3, [fp, #-7]
  2028b4:	e15b30b6 	ldrh	r3, [fp, #-6]
  2028b8:	e2833001 	add	r3, r3, #1
  2028bc:	e14b30b6 	strh	r3, [fp, #-6]
  2028c0:	e15b30b6 	ldrh	r3, [fp, #-6]
  2028c4:	e3530002 	cmp	r3, #2
  2028c8:	9affffeb 	bls	20287c <tpl_init_os+0x30>
  2028cc:	e3a03000 	mov	r3, #0
  2028d0:	e14b30b6 	strh	r3, [fp, #-6]
  2028d4:	ea00000f 	b	202918 <tpl_init_os+0xcc>
  2028d8:	e15b20b6 	ldrh	r2, [fp, #-6]
  2028dc:	e59f304c 	ldr	r3, [pc, #76]	; 202930 <tpl_init_os+0xe4>
  2028e0:	e7933102 	ldr	r3, [r3, r2, lsl #2]
  2028e4:	e50b300c 	str	r3, [fp, #-12]
  2028e8:	e51b300c 	ldr	r3, [fp, #-12]
  2028ec:	e5d33014 	ldrb	r3, [r3, #20]
  2028f0:	e3530002 	cmp	r3, #2
  2028f4:	1a000004 	bne	20290c <tpl_init_os+0xc0>
  2028f8:	e51b300c 	ldr	r3, [fp, #-12]
  2028fc:	e3a02001 	mov	r2, #1
  202900:	e5c32014 	strb	r2, [r3, #20]
  202904:	e51b000c 	ldr	r0, [fp, #-12]
  202908:	ebfffb84 	bl	201720 <tpl_insert_time_obj>
  20290c:	e15b30b6 	ldrh	r3, [fp, #-6]
  202910:	e2833001 	add	r3, r3, #1
  202914:	e14b30b6 	strh	r3, [fp, #-6]
  202918:	e15b30b6 	ldrh	r3, [fp, #-6]
  20291c:	e3530002 	cmp	r3, #2
  202920:	9affffec 	bls	2028d8 <tpl_init_os+0x8c>
  202924:	e24bd004 	sub	sp, fp, #4
  202928:	e8bd8800 	pop	{fp, pc}
  20292c:	0020357c 	.word	0x0020357c
  202930:	002035e8 	.word	0x002035e8

00202934 <tpl_get_active_application_mode_service>:
  202934:	e92d4800 	push	{fp, lr}
  202938:	e28db004 	add	fp, sp, #4
  20293c:	e24dd004 	sub	sp, sp, #4
  202940:	e59f3040 	ldr	r3, [pc, #64]	; 202988 <tpl_get_active_application_mode_service+0x54>
  202944:	e5d33000 	ldrb	r3, [r3]
  202948:	e54b3005 	strb	r3, [fp, #-5]
  20294c:	e3a03000 	mov	r3, #0
  202950:	e54b3006 	strb	r3, [fp, #-6]
  202954:	ebfff80d 	bl	200990 <tpl_get_interrupt_lock_status>
  202958:	e1a03000 	mov	r3, r0
  20295c:	e3530000 	cmp	r3, #0
  202960:	0a000001 	beq	20296c <tpl_get_active_application_mode_service+0x38>
  202964:	e3a03013 	mov	r3, #19
  202968:	e54b3006 	strb	r3, [fp, #-6]
  20296c:	e59f3014 	ldr	r3, [pc, #20]	; 202988 <tpl_get_active_application_mode_service+0x54>
  202970:	e5d33000 	ldrb	r3, [r3]
  202974:	e54b3005 	strb	r3, [fp, #-5]
  202978:	e55b3005 	ldrb	r3, [fp, #-5]
  20297c:	e1a00003 	mov	r0, r3
  202980:	e24bd004 	sub	sp, fp, #4
  202984:	e8bd8800 	pop	{fp, pc}
  202988:	00203630 	.word	0x00203630

0020298c <tpl_start_os_service>:
  20298c:	e92d4800 	push	{fp, lr}
  202990:	e28db004 	add	fp, sp, #4
  202994:	e24dd004 	sub	sp, sp, #4
  202998:	e1a03000 	mov	r3, r0
  20299c:	e54b3008 	strb	r3, [fp, #-8]
  2029a0:	e59f303c 	ldr	r3, [pc, #60]	; 2029e4 <tpl_start_os_service+0x58>
  2029a4:	e55b2008 	ldrb	r2, [fp, #-8]
  2029a8:	e5c32000 	strb	r2, [r3]
  2029ac:	e55b3008 	ldrb	r3, [fp, #-8]
  2029b0:	e1a00003 	mov	r0, r3
  2029b4:	ebffffa4 	bl	20284c <tpl_init_os>
  2029b8:	ebfffb4f 	bl	2016fc <tpl_enable_counters>
  2029bc:	eb00103d 	bl	206ab8 <StartupHook>
  2029c0:	e59f3020 	ldr	r3, [pc, #32]	; 2029e8 <tpl_start_os_service+0x5c>
  2029c4:	e5d33000 	ldrb	r3, [r3]
  2029c8:	e1a03c03 	lsl	r3, r3, #24
  2029cc:	e1a03c43 	asr	r3, r3, #24
  2029d0:	e3730001 	cmn	r3, #1
  2029d4:	0a000000 	beq	2029dc <tpl_start_os_service+0x50>
  2029d8:	ebffff1e 	bl	202658 <tpl_start_scheduling>
  2029dc:	e24bd004 	sub	sp, fp, #4
  2029e0:	e8bd8800 	pop	{fp, pc}
  2029e4:	00203630 	.word	0x00203630
  2029e8:	00203654 	.word	0x00203654

002029ec <tpl_shutdown_os_service>:
  2029ec:	e92d4800 	push	{fp, lr}
  2029f0:	e28db004 	add	fp, sp, #4
  2029f4:	e24dd004 	sub	sp, sp, #4
  2029f8:	e1a03000 	mov	r3, r0
  2029fc:	e54b3008 	strb	r3, [fp, #-8]
  202a00:	eb000155 	bl	202f5c <tpl_shutdown>
  202a04:	e24bd004 	sub	sp, fp, #4
  202a08:	e8bd8800 	pop	{fp, pc}

00202a0c <tpl_call_terminate_task_service>:
  202a0c:	e92d4800 	push	{fp, lr}
  202a10:	e28db004 	add	fp, sp, #4
  202a14:	ebfff7dd 	bl	200990 <tpl_get_interrupt_lock_status>
  202a18:	e1a03000 	mov	r3, r0
  202a1c:	e3530000 	cmp	r3, #0
  202a20:	0a000000 	beq	202a28 <tpl_call_terminate_task_service+0x1c>
  202a24:	ebfff7f5 	bl	200a00 <tpl_reset_interrupt_lock_status>
  202a28:	e59f3030 	ldr	r3, [pc, #48]	; 202a60 <tpl_call_terminate_task_service+0x54>
  202a2c:	e593300c 	ldr	r3, [r3, #12]
  202a30:	e5933000 	ldr	r3, [r3]
  202a34:	e3530000 	cmp	r3, #0
  202a38:	0a000006 	beq	202a58 <tpl_call_terminate_task_service+0x4c>
  202a3c:	e59f301c 	ldr	r3, [pc, #28]	; 202a60 <tpl_call_terminate_task_service+0x54>
  202a40:	e5933010 	ldr	r3, [r3, #16]
  202a44:	e20330ff 	and	r3, r3, #255	; 0xff
  202a48:	e1a03c03 	lsl	r3, r3, #24
  202a4c:	e1a03c43 	asr	r3, r3, #24
  202a50:	e1a00003 	mov	r0, r3
  202a54:	ebfff91c 	bl	200ecc <tpl_release_all_resources>
  202a58:	ebfffa2c 	bl	201310 <tpl_terminate_task_service>
  202a5c:	e8bd8800 	pop	{fp, pc}
  202a60:	0020363c 	.word	0x0020363c

00202a64 <tpl_call_terminate_isr2_service>:
  202a64:	e92d4800 	push	{fp, lr}
  202a68:	e28db004 	add	fp, sp, #4
  202a6c:	e24dd004 	sub	sp, sp, #4
  202a70:	e3a03000 	mov	r3, #0
  202a74:	e54b3005 	strb	r3, [fp, #-5]
  202a78:	ebfff7c4 	bl	200990 <tpl_get_interrupt_lock_status>
  202a7c:	e1a03000 	mov	r3, r0
  202a80:	e3530000 	cmp	r3, #0
  202a84:	0a000002 	beq	202a94 <tpl_call_terminate_isr2_service+0x30>
  202a88:	ebfff7dc 	bl	200a00 <tpl_reset_interrupt_lock_status>
  202a8c:	e3a03013 	mov	r3, #19
  202a90:	e54b3005 	strb	r3, [fp, #-5]
  202a94:	e59f303c 	ldr	r3, [pc, #60]	; 202ad8 <tpl_call_terminate_isr2_service+0x74>
  202a98:	e593300c 	ldr	r3, [r3, #12]
  202a9c:	e5933000 	ldr	r3, [r3]
  202aa0:	e3530000 	cmp	r3, #0
  202aa4:	0a000008 	beq	202acc <tpl_call_terminate_isr2_service+0x68>
  202aa8:	e59f3028 	ldr	r3, [pc, #40]	; 202ad8 <tpl_call_terminate_isr2_service+0x74>
  202aac:	e5933010 	ldr	r3, [r3, #16]
  202ab0:	e20330ff 	and	r3, r3, #255	; 0xff
  202ab4:	e1a03c03 	lsl	r3, r3, #24
  202ab8:	e1a03c43 	asr	r3, r3, #24
  202abc:	e1a00003 	mov	r0, r3
  202ac0:	ebfff901 	bl	200ecc <tpl_release_all_resources>
  202ac4:	e3a03006 	mov	r3, #6
  202ac8:	e54b3005 	strb	r3, [fp, #-5]
  202acc:	ebfff850 	bl	200c14 <tpl_terminate_isr2_service>
  202ad0:	e24bd004 	sub	sp, fp, #4
  202ad4:	e8bd8800 	pop	{fp, pc}
  202ad8:	0020363c 	.word	0x0020363c

00202adc <tpl_action_callback>:
  202adc:	e92d4800 	push	{fp, lr}
  202ae0:	e28db004 	add	fp, sp, #4
  202ae4:	e24dd004 	sub	sp, sp, #4
  202ae8:	e50b0008 	str	r0, [fp, #-8]
  202aec:	e51b3008 	ldr	r3, [fp, #-8]
  202af0:	e5933004 	ldr	r3, [r3, #4]
  202af4:	e1a0e00f 	mov	lr, pc
  202af8:	e12fff13 	bx	r3
  202afc:	e3a03000 	mov	r3, #0
  202b00:	e1a00003 	mov	r0, r3
  202b04:	e24bd004 	sub	sp, fp, #4
  202b08:	e8bd8800 	pop	{fp, pc}

00202b0c <tpl_action_activate_task>:
  202b0c:	e92d4800 	push	{fp, lr}
  202b10:	e28db004 	add	fp, sp, #4
  202b14:	e24dd008 	sub	sp, sp, #8
  202b18:	e50b000c 	str	r0, [fp, #-12]
  202b1c:	e3a03000 	mov	r3, #0
  202b20:	e54b3005 	strb	r3, [fp, #-5]
  202b24:	e51b300c 	ldr	r3, [fp, #-12]
  202b28:	e5d33004 	ldrb	r3, [r3, #4]
  202b2c:	e1a03c03 	lsl	r3, r3, #24
  202b30:	e1a03c43 	asr	r3, r3, #24
  202b34:	e1a00003 	mov	r0, r3
  202b38:	ebfffeec 	bl	2026f0 <tpl_activate_task>
  202b3c:	e1a03000 	mov	r3, r0
  202b40:	e54b3005 	strb	r3, [fp, #-5]
  202b44:	e55b3005 	ldrb	r3, [fp, #-5]
  202b48:	e1a00003 	mov	r0, r3
  202b4c:	e24bd004 	sub	sp, fp, #4
  202b50:	e8bd8800 	pop	{fp, pc}

00202b54 <tpl_action_setevent>:
  202b54:	e92d4800 	push	{fp, lr}
  202b58:	e28db004 	add	fp, sp, #4
  202b5c:	e24dd008 	sub	sp, sp, #8
  202b60:	e50b000c 	str	r0, [fp, #-12]
  202b64:	e3a03000 	mov	r3, #0
  202b68:	e54b3005 	strb	r3, [fp, #-5]
  202b6c:	e51b300c 	ldr	r3, [fp, #-12]
  202b70:	e5d33004 	ldrb	r3, [r3, #4]
  202b74:	e1a03c03 	lsl	r3, r3, #24
  202b78:	e1a02c43 	asr	r2, r3, #24
  202b7c:	e51b300c 	ldr	r3, [fp, #-12]
  202b80:	e5d33005 	ldrb	r3, [r3, #5]
  202b84:	e1a00002 	mov	r0, r2
  202b88:	e1a01003 	mov	r1, r3
  202b8c:	ebffff07 	bl	2027b0 <tpl_set_event>
  202b90:	e1a03000 	mov	r3, r0
  202b94:	e54b3005 	strb	r3, [fp, #-5]
  202b98:	e55b3005 	ldrb	r3, [fp, #-5]
  202b9c:	e1a00003 	mov	r0, r3
  202ba0:	e24bd004 	sub	sp, fp, #4
  202ba4:	e8bd8800 	pop	{fp, pc}

00202ba8 <tpl_init_machine_generic>:
  202ba8:	e52db004 	push	{fp}		; (str fp, [sp, #-4]!)
  202bac:	e28db000 	add	fp, sp, #0
  202bb0:	e59f3010 	ldr	r3, [pc, #16]	; 202bc8 <tpl_init_machine_generic+0x20>
  202bb4:	e3a02000 	mov	r2, #0
  202bb8:	e5832000 	str	r2, [r3]
  202bbc:	e28bd000 	add	sp, fp, #0
  202bc0:	e8bd0800 	pop	{fp}
  202bc4:	e12fff1e 	bx	lr
  202bc8:	00203768 	.word	0x00203768

00202bcc <tpl_get_task_lock>:
  202bcc:	e52db004 	push	{fp}		; (str fp, [sp, #-4]!)
  202bd0:	e28db000 	add	fp, sp, #0
  202bd4:	e28bd000 	add	sp, fp, #0
  202bd8:	e8bd0800 	pop	{fp}
  202bdc:	e12fff1e 	bx	lr

00202be0 <tpl_release_task_lock>:
  202be0:	e52db004 	push	{fp}		; (str fp, [sp, #-4]!)
  202be4:	e28db000 	add	fp, sp, #0
  202be8:	e28bd000 	add	sp, fp, #0
  202bec:	e8bd0800 	pop	{fp}
  202bf0:	e12fff1e 	bx	lr

00202bf4 <tpl_enable_interrupts>:
  202bf4:	e52db004 	push	{fp}		; (str fp, [sp, #-4]!)
  202bf8:	e28db000 	add	fp, sp, #0
  202bfc:	e14f0000 	mrs	r0, SPSR
  202c00:	e3c000c0 	bic	r0, r0, #192	; 0xc0
  202c04:	e169f000 	msr	SPSR_fc, r0
  202c08:	e28bd000 	add	sp, fp, #0
  202c0c:	e8bd0800 	pop	{fp}
  202c10:	e12fff1e 	bx	lr

00202c14 <tpl_disable_interrupts>:
  202c14:	e52db004 	push	{fp}		; (str fp, [sp, #-4]!)
  202c18:	e28db000 	add	fp, sp, #0
  202c1c:	e10f0000 	mrs	r0, CPSR
  202c20:	e38000c0 	orr	r0, r0, #192	; 0xc0
  202c24:	e129f000 	msr	CPSR_fc, r0
  202c28:	e14f0000 	mrs	r0, SPSR
  202c2c:	e38000c0 	orr	r0, r0, #192	; 0xc0
  202c30:	e169f000 	msr	SPSR_fc, r0
  202c34:	e28bd000 	add	sp, fp, #0
  202c38:	e8bd0800 	pop	{fp}
  202c3c:	e12fff1e 	bx	lr

00202c40 <tpl_init_context>:
  202c40:	e52db004 	push	{fp}		; (str fp, [sp, #-4]!)
  202c44:	e28db000 	add	fp, sp, #0
  202c48:	e24dd00c 	sub	sp, sp, #12
  202c4c:	e1a03000 	mov	r3, r0
  202c50:	e54b300c 	strb	r3, [fp, #-12]
  202c54:	e15b20dc 	ldrsb	r2, [fp, #-12]
  202c58:	e59f3080 	ldr	r3, [pc, #128]	; 202ce0 <tpl_init_context+0xa0>
  202c5c:	e7933102 	ldr	r3, [r3, r2, lsl #2]
  202c60:	e50b3004 	str	r3, [fp, #-4]
  202c64:	e51b3004 	ldr	r3, [fp, #-4]
  202c68:	e5933000 	ldr	r3, [r3]
  202c6c:	e50b3008 	str	r3, [fp, #-8]
  202c70:	e51b3004 	ldr	r3, [fp, #-4]
  202c74:	e593300c 	ldr	r3, [r3, #12]
  202c78:	e1a02003 	mov	r2, r3
  202c7c:	e51b3008 	ldr	r3, [fp, #-8]
  202c80:	e583203c 	str	r2, [r3, #60]	; 0x3c
  202c84:	e51b3004 	ldr	r3, [fp, #-4]
  202c88:	e5933004 	ldr	r3, [r3, #4]
  202c8c:	e1a02003 	mov	r2, r3
  202c90:	e51b3004 	ldr	r3, [fp, #-4]
  202c94:	e5933008 	ldr	r3, [r3, #8]
  202c98:	e0822003 	add	r2, r2, r3
  202c9c:	e51b3008 	ldr	r3, [fp, #-8]
  202ca0:	e5832034 	str	r2, [r3, #52]	; 0x34
  202ca4:	e51b3008 	ldr	r3, [fp, #-8]
  202ca8:	e3a0201f 	mov	r2, #31
  202cac:	e5832040 	str	r2, [r3, #64]	; 0x40
  202cb0:	e51b3004 	ldr	r3, [fp, #-4]
  202cb4:	e5d33017 	ldrb	r3, [r3, #23]
  202cb8:	e3530002 	cmp	r3, #2
  202cbc:	1a000001 	bne	202cc8 <tpl_init_context+0x88>
  202cc0:	e59f301c 	ldr	r3, [pc, #28]	; 202ce4 <tpl_init_context+0xa4>
  202cc4:	ea000000 	b	202ccc <tpl_init_context+0x8c>
  202cc8:	e59f3018 	ldr	r3, [pc, #24]	; 202ce8 <tpl_init_context+0xa8>
  202ccc:	e51b2008 	ldr	r2, [fp, #-8]
  202cd0:	e5823038 	str	r3, [r2, #56]	; 0x38
  202cd4:	e28bd000 	add	sp, fp, #0
  202cd8:	e8bd0800 	pop	{fp}
  202cdc:	e12fff1e 	bx	lr
  202ce0:	0020355c 	.word	0x0020355c
  202ce4:	0020582c 	.word	0x0020582c
  202ce8:	00205818 	.word	0x00205818

00202cec <tpl_check_stack_footprint>:
  202cec:	e52db004 	push	{fp}		; (str fp, [sp, #-4]!)
  202cf0:	e28db000 	add	fp, sp, #0
  202cf4:	e24dd008 	sub	sp, sp, #8
  202cf8:	e1a03000 	mov	r3, r0
  202cfc:	e54b3008 	strb	r3, [fp, #-8]
  202d00:	e3a03000 	mov	r3, #0
  202d04:	e54b3001 	strb	r3, [fp, #-1]
  202d08:	e55b3001 	ldrb	r3, [fp, #-1]
  202d0c:	e1a00003 	mov	r0, r3
  202d10:	e28bd000 	add	sp, fp, #0
  202d14:	e8bd0800 	pop	{fp}
  202d18:	e12fff1e 	bx	lr

00202d1c <tpl_primary_irq_handler>:
  202d1c:	e24ee004 	sub	lr, lr, #4
  202d20:	e92d5a0f 	push	{r0, r1, r2, r3, r9, fp, ip, lr}
  202d24:	e59f10c0 	ldr	r1, [pc, #192]	; 202dec <irq_no_context_switch+0x18>
  202d28:	e5912000 	ldr	r2, [r1]
  202d2c:	e2822001 	add	r2, r2, #1
  202d30:	e5812000 	str	r2, [r1]
  202d34:	e59f10b4 	ldr	r1, [pc, #180]	; 202df0 <irq_no_context_switch+0x1c>
  202d38:	e3a02000 	mov	r2, #0
  202d3c:	e5c12014 	strb	r2, [r1, #20]
  202d40:	eb000097 	bl	202fa4 <tpl_arm_subarch_irq_handler>
  202d44:	e59f20a4 	ldr	r2, [pc, #164]	; 202df0 <irq_no_context_switch+0x1c>
  202d48:	e5d22014 	ldrb	r2, [r2, #20]
  202d4c:	e3520000 	cmp	r2, #0
  202d50:	0a00001f 	beq	202dd4 <irq_no_context_switch>

00202d54 <context_switch_irq>:
  202d54:	e59f0094 	ldr	r0, [pc, #148]	; 202df0 <irq_no_context_switch+0x1c>
  202d58:	e5d02014 	ldrb	r2, [r0, #20]
  202d5c:	e3120002 	tst	r2, #2
  202d60:	0a00000d 	beq	202d9c <skip_save_context_irq>
  202d64:	e5902000 	ldr	r2, [r0]
  202d68:	e5922000 	ldr	r2, [r2]
  202d6c:	e2822010 	add	r2, r2, #16
  202d70:	e8c27ff0 	stmia	r2, {r4, r5, r6, r7, r8, r9, sl, fp, ip, sp, lr}^
  202d74:	e2422010 	sub	r2, r2, #16
  202d78:	e14f4000 	mrs	r4, SPSR
  202d7c:	e5824040 	str	r4, [r2, #64]	; 0x40
  202d80:	e8bd5af0 	pop	{r4, r5, r6, r7, r9, fp, ip, lr}
  202d84:	e88200f0 	stm	r2, {r4, r5, r6, r7}
  202d88:	e5829024 	str	r9, [r2, #36]	; 0x24
  202d8c:	e582b02c 	str	fp, [r2, #44]	; 0x2c
  202d90:	e582c030 	str	ip, [r2, #48]	; 0x30
  202d94:	e582e03c 	str	lr, [r2, #60]	; 0x3c
  202d98:	ea000000 	b	202da0 <load_context_irq>

00202d9c <skip_save_context_irq>:
  202d9c:	e28dd020 	add	sp, sp, #32

00202da0 <load_context_irq>:
  202da0:	e59f3044 	ldr	r3, [pc, #68]	; 202dec <irq_no_context_switch+0x18>
  202da4:	e5932000 	ldr	r2, [r3]
  202da8:	e2422001 	sub	r2, r2, #1
  202dac:	e5832000 	str	r2, [r3]
  202db0:	e59f0038 	ldr	r0, [pc, #56]	; 202df0 <irq_no_context_switch+0x1c>
  202db4:	e590e004 	ldr	lr, [r0, #4]
  202db8:	e59ee000 	ldr	lr, [lr]
  202dbc:	e59e0040 	ldr	r0, [lr, #64]	; 0x40
  202dc0:	e169f000 	msr	SPSR_fc, r0
  202dc4:	e8de7fff 	ldm	lr, {r0, r1, r2, r3, r4, r5, r6, r7, r8, r9, sl, fp, ip, sp, lr}^
  202dc8:	eaffffff 	b	202dcc <flush_pipeline>

00202dcc <flush_pipeline>:
  202dcc:	e59ee03c 	ldr	lr, [lr, #60]	; 0x3c
  202dd0:	e1b0f00e 	movs	pc, lr

00202dd4 <irq_no_context_switch>:
  202dd4:	e59f3010 	ldr	r3, [pc, #16]	; 202dec <irq_no_context_switch+0x18>
  202dd8:	e5932000 	ldr	r2, [r3]
  202ddc:	e2422001 	sub	r2, r2, #1
  202de0:	e5832000 	str	r2, [r3]
  202de4:	e8bd5a0f 	pop	{r0, r1, r2, r3, r9, fp, ip, lr}
  202de8:	e1b0f00e 	movs	pc, lr
  202dec:	00203768 	.word	0x00203768
  202df0:	0020363c 	.word	0x0020363c

00202df4 <tpl_primary_syscall_handler>:
  202df4:	e321f093 	msr	CPSR_c, #147	; 0x93
  202df8:	e92d4007 	push	{r0, r1, r2, lr}
  202dfc:	e14f1000 	mrs	r1, SPSR
  202e00:	e92d0002 	push	{r1}
  202e04:	e59f1104 	ldr	r1, [pc, #260]	; 202f10 <swi_skip_kernel_exit+0x10>
  202e08:	e5912000 	ldr	r2, [r1]
  202e0c:	e2822001 	add	r2, r2, #1
  202e10:	e5812000 	str	r2, [r1]
  202e14:	e3520001 	cmp	r2, #1
  202e18:	8a000002 	bhi	202e28 <skip_kernel_enter>
  202e1c:	e59f10f0 	ldr	r1, [pc, #240]	; 202f14 <swi_skip_kernel_exit+0x14>
  202e20:	e3a02000 	mov	r2, #0
  202e24:	e5c12014 	strb	r2, [r1, #20]

00202e28 <skip_kernel_enter>:
  202e28:	e353001c 	cmp	r3, #28
  202e2c:	2a00002f 	bcs	202ef0 <invalid_service_id>
  202e30:	e59f10e0 	ldr	r1, [pc, #224]	; 202f18 <swi_skip_kernel_exit+0x18>
  202e34:	e7913103 	ldr	r3, [r1, r3, lsl #2]
  202e38:	e28dd004 	add	sp, sp, #4
  202e3c:	e89d0007 	ldm	sp, {r0, r1, r2}
  202e40:	e24dd004 	sub	sp, sp, #4
  202e44:	e1a0e00f 	mov	lr, pc
  202e48:	e12fff13 	bx	r3
  202e4c:	e28dd004 	add	sp, sp, #4
  202e50:	e88d0003 	stm	sp, {r0, r1}
  202e54:	e24dd004 	sub	sp, sp, #4
  202e58:	e59f20b4 	ldr	r2, [pc, #180]	; 202f14 <swi_skip_kernel_exit+0x14>
  202e5c:	e5d22014 	ldrb	r2, [r2, #20]
  202e60:	e3520000 	cmp	r2, #0
  202e64:	0a000021 	beq	202ef0 <invalid_service_id>
  202e68:	e59f20a0 	ldr	r2, [pc, #160]	; 202f10 <swi_skip_kernel_exit+0x10>
  202e6c:	e5922000 	ldr	r2, [r2]
  202e70:	e3520001 	cmp	r2, #1
  202e74:	8a000021 	bhi	202f00 <swi_skip_kernel_exit>

00202e78 <context_switch_swi>:
  202e78:	e59f0094 	ldr	r0, [pc, #148]	; 202f14 <swi_skip_kernel_exit+0x14>
  202e7c:	e5d02014 	ldrb	r2, [r0, #20]
  202e80:	e3120002 	tst	r2, #2
  202e84:	0a00000b 	beq	202eb8 <skip_save_context_swi>

00202e88 <save_context_swi>:
  202e88:	e5902000 	ldr	r2, [r0]
  202e8c:	e5922000 	ldr	r2, [r2]
  202e90:	e2822010 	add	r2, r2, #16
  202e94:	e8c27ff0 	stmia	r2, {r4, r5, r6, r7, r8, r9, sl, fp, ip, sp, lr}^
  202e98:	e2422010 	sub	r2, r2, #16
  202e9c:	e8bd0010 	pop	{r4}
  202ea0:	e5824040 	str	r4, [r2, #64]	; 0x40
  202ea4:	e8bd0070 	pop	{r4, r5, r6}
  202ea8:	e8820070 	stm	r2, {r4, r5, r6}
  202eac:	e8bd0010 	pop	{r4}
  202eb0:	e582403c 	str	r4, [r2, #60]	; 0x3c
  202eb4:	ea000000 	b	202ebc <load_context_swi>

00202eb8 <skip_save_context_swi>:
  202eb8:	e28dd014 	add	sp, sp, #20

00202ebc <load_context_swi>:
  202ebc:	e59f304c 	ldr	r3, [pc, #76]	; 202f10 <swi_skip_kernel_exit+0x10>
  202ec0:	e5932000 	ldr	r2, [r3]
  202ec4:	e2422001 	sub	r2, r2, #1
  202ec8:	e5832000 	str	r2, [r3]
  202ecc:	e59f0040 	ldr	r0, [pc, #64]	; 202f14 <swi_skip_kernel_exit+0x14>
  202ed0:	e590e004 	ldr	lr, [r0, #4]
  202ed4:	e59ee000 	ldr	lr, [lr]
  202ed8:	e59e0040 	ldr	r0, [lr, #64]	; 0x40
  202edc:	e169f000 	msr	SPSR_fc, r0
  202ee0:	e8de7fff 	ldm	lr, {r0, r1, r2, r3, r4, r5, r6, r7, r8, r9, sl, fp, ip, sp, lr}^
  202ee4:	eaffffff 	b	202ee8 <flush_pipeline>

00202ee8 <flush_pipeline>:
  202ee8:	e59ee03c 	ldr	lr, [lr, #60]	; 0x3c
  202eec:	e1b0f00e 	movs	pc, lr

00202ef0 <invalid_service_id>:
  202ef0:	e59f3018 	ldr	r3, [pc, #24]	; 202f10 <swi_skip_kernel_exit+0x10>
  202ef4:	e5932000 	ldr	r2, [r3]
  202ef8:	e2422001 	sub	r2, r2, #1
  202efc:	e5832000 	str	r2, [r3]

00202f00 <swi_skip_kernel_exit>:
  202f00:	e8bd0008 	pop	{r3}
  202f04:	e169f003 	msr	SPSR_fc, r3
  202f08:	e8bd4007 	pop	{r0, r1, r2, lr}
  202f0c:	e1b0f00e 	movs	pc, lr
  202f10:	00203768 	.word	0x00203768
  202f14:	0020363c 	.word	0x0020363c
  202f18:	002032fc 	.word	0x002032fc

00202f1c <tpl_sleep>:
  202f1c:	eafffffe 	b	202f1c <tpl_sleep>

00202f20 <tpl_init_machine>:
  202f20:	e92d4800 	push	{fp, lr}
  202f24:	e28db004 	add	fp, sp, #4
  202f28:	eb001108 	bl	207350 <nxt_device_init>
  202f2c:	ebffff1d 	bl	202ba8 <tpl_init_machine_generic>
  202f30:	eb002136 	bl	20b410 <InitButtons>
  202f34:	e3a00000 	mov	r0, #0
  202f38:	e3a01000 	mov	r1, #0
  202f3c:	eb000f51 	bl	206c88 <ecrobot_set_motor_rev>
  202f40:	e3a00001 	mov	r0, #1
  202f44:	e3a01000 	mov	r1, #0
  202f48:	eb000f4e 	bl	206c88 <ecrobot_set_motor_rev>
  202f4c:	e3a00002 	mov	r0, #2
  202f50:	e3a01000 	mov	r1, #0
  202f54:	eb000f4b 	bl	206c88 <ecrobot_set_motor_rev>
  202f58:	e8bd8800 	pop	{fp, pc}

00202f5c <tpl_shutdown>:
  202f5c:	e92d4800 	push	{fp, lr}
  202f60:	e28db004 	add	fp, sp, #4
  202f64:	e10f0000 	mrs	r0, CPSR
  202f68:	e3c00040 	bic	r0, r0, #64	; 0x40
  202f6c:	e121f000 	msr	CPSR_c, r0
  202f70:	e10f0000 	mrs	r0, CPSR
  202f74:	e3c00080 	bic	r0, r0, #128	; 0x80
  202f78:	e121f000 	msr	CPSR_c, r0
  202f7c:	eb0010d5 	bl	2072d8 <ecrobot_term_bt_connection>
  202f80:	e3a00001 	mov	r0, #1
  202f84:	eb001b46 	bl	209ca4 <display_clear>
  202f88:	e3a0000a 	mov	r0, #10
  202f8c:	eb0017ed 	bl	208f48 <systick_wait_ms>
  202f90:	eb001f91 	bl	20addc <nxt_lcd_power_down>
  202f94:	e3a0000a 	mov	r0, #10
  202f98:	eb0017ea 	bl	208f48 <systick_wait_ms>
  202f9c:	eb0011c7 	bl	2076c0 <nxt_avr_power_down>
  202fa0:	eafffffd 	b	202f9c <tpl_shutdown+0x40>

00202fa4 <tpl_arm_subarch_irq_handler>:
  202fa4:	e92d4800 	push	{fp, lr}
  202fa8:	e28db004 	add	fp, sp, #4
  202fac:	e24dd008 	sub	sp, sp, #8
  202fb0:	e3a03322 	mov	r3, #-2013265920	; 0x88000000
  202fb4:	e1a039c3 	asr	r3, r3, #19
  202fb8:	e5933000 	ldr	r3, [r3]
  202fbc:	e14b30b6 	strh	r3, [fp, #-6]
  202fc0:	e3a03322 	mov	r3, #-2013265920	; 0x88000000
  202fc4:	e1a039c3 	asr	r3, r3, #19
  202fc8:	e3a02322 	mov	r2, #-2013265920	; 0x88000000
  202fcc:	e1a029c2 	asr	r2, r2, #19
  202fd0:	e5832000 	str	r2, [r3]
  202fd4:	e3e03eef 	mvn	r3, #3824	; 0xef0
  202fd8:	e2433007 	sub	r3, r3, #7
  202fdc:	e5933000 	ldr	r3, [r3]
  202fe0:	e14b30b6 	strh	r3, [fp, #-6]
  202fe4:	e15b20b6 	ldrh	r2, [fp, #-6]
  202fe8:	e59f304c 	ldr	r3, [pc, #76]	; 20303c <tpl_arm_subarch_irq_handler+0x98>
  202fec:	e7933182 	ldr	r3, [r3, r2, lsl #3]
  202ff0:	e50b300c 	str	r3, [fp, #-12]
  202ff4:	e15b20b6 	ldrh	r2, [fp, #-6]
  202ff8:	e59f103c 	ldr	r1, [pc, #60]	; 20303c <tpl_arm_subarch_irq_handler+0x98>
  202ffc:	e3a03004 	mov	r3, #4
  203000:	e1a02182 	lsl	r2, r2, #3
  203004:	e0812002 	add	r2, r1, r2
  203008:	e0823003 	add	r3, r2, r3
  20300c:	e5932000 	ldr	r2, [r3]
  203010:	e51b300c 	ldr	r3, [fp, #-12]
  203014:	e1a00002 	mov	r0, r2
  203018:	e1a0e00f 	mov	lr, pc
  20301c:	e12fff13 	bx	r3
  203020:	e3a03000 	mov	r3, #0
  203024:	e2433eed 	sub	r3, r3, #3792	; 0xed0
  203028:	e3a02000 	mov	r2, #0
  20302c:	e2422eed 	sub	r2, r2, #3792	; 0xed0
  203030:	e5832000 	str	r2, [r3]
  203034:	e24bd004 	sub	sp, fp, #4
  203038:	e8bd8800 	pop	{fp, pc}
  20303c:	00203464 	.word	0x00203464

00203040 <tpl_arm_subarch_fiq_handler>:
  203040:	e52db004 	push	{fp}		; (str fp, [sp, #-4]!)
  203044:	e28db000 	add	fp, sp, #0
  203048:	e28bd000 	add	sp, fp, #0
  20304c:	e8bd0800 	pop	{fp}
  203050:	e12fff1e 	bx	lr

00203054 <primary_undefined_instruction_handler>:
  203054:	e92d0001 	push	{r0}
  203058:	e10f0000 	mrs	r0, CPSR
  20305c:	e38000c0 	orr	r0, r0, #192	; 0xc0
  203060:	e121f000 	msr	CPSR_c, r0
  203064:	e8bd0001 	pop	{r0}
  203068:	e14f0000 	mrs	r0, SPSR
  20306c:	e59f10c4 	ldr	r1, [pc, #196]	; 203138 <tpl_primary_fiq_handler+0x4>
  203070:	e5810000 	str	r0, [r1]
  203074:	e59f00c0 	ldr	r0, [pc, #192]	; 20313c <tpl_primary_fiq_handler+0x8>
  203078:	e580e000 	str	lr, [r0]
  20307c:	e59f00bc 	ldr	r0, [pc, #188]	; 203140 <tpl_primary_fiq_handler+0xc>
  203080:	e3a01003 	mov	r1, #3
  203084:	e5801000 	str	r1, [r0]
  203088:	eb000ea4 	bl	206b20 <exception_catch_display>

0020308c <primary_prefetch_abort_handler>:
  20308c:	e92d0001 	push	{r0}
  203090:	e10f0000 	mrs	r0, CPSR
  203094:	e38000c0 	orr	r0, r0, #192	; 0xc0
  203098:	e121f000 	msr	CPSR_c, r0
  20309c:	e8bd0001 	pop	{r0}
  2030a0:	e14f0000 	mrs	r0, SPSR
  2030a4:	e59f108c 	ldr	r1, [pc, #140]	; 203138 <tpl_primary_fiq_handler+0x4>
  2030a8:	e5810000 	str	r0, [r1]
  2030ac:	e59f0088 	ldr	r0, [pc, #136]	; 20313c <tpl_primary_fiq_handler+0x8>
  2030b0:	e580e000 	str	lr, [r0]
  2030b4:	e59f0084 	ldr	r0, [pc, #132]	; 203140 <tpl_primary_fiq_handler+0xc>
  2030b8:	e3a01001 	mov	r1, #1
  2030bc:	e5801000 	str	r1, [r0]
  2030c0:	eb000e96 	bl	206b20 <exception_catch_display>

002030c4 <primary_data_abort_handler>:
  2030c4:	e92d0001 	push	{r0}
  2030c8:	e10f0000 	mrs	r0, CPSR
  2030cc:	e38000c0 	orr	r0, r0, #192	; 0xc0
  2030d0:	e121f000 	msr	CPSR_c, r0
  2030d4:	e8bd0001 	pop	{r0}
  2030d8:	e14f0000 	mrs	r0, SPSR
  2030dc:	e59f1054 	ldr	r1, [pc, #84]	; 203138 <tpl_primary_fiq_handler+0x4>
  2030e0:	e5810000 	str	r0, [r1]
  2030e4:	e59f0050 	ldr	r0, [pc, #80]	; 20313c <tpl_primary_fiq_handler+0x8>
  2030e8:	e580e000 	str	lr, [r0]
  2030ec:	e59f004c 	ldr	r0, [pc, #76]	; 203140 <tpl_primary_fiq_handler+0xc>
  2030f0:	e3a01002 	mov	r1, #2
  2030f4:	e5801000 	str	r1, [r0]
  2030f8:	eb000e88 	bl	206b20 <exception_catch_display>

002030fc <primary_unused_handler>:
  2030fc:	e92d0001 	push	{r0}
  203100:	e10f0000 	mrs	r0, CPSR
  203104:	e38000c0 	orr	r0, r0, #192	; 0xc0
  203108:	e121f000 	msr	CPSR_c, r0
  20310c:	e8bd0001 	pop	{r0}
  203110:	e14f0000 	mrs	r0, SPSR
  203114:	e59f101c 	ldr	r1, [pc, #28]	; 203138 <tpl_primary_fiq_handler+0x4>
  203118:	e5810000 	str	r0, [r1]
  20311c:	e59f0018 	ldr	r0, [pc, #24]	; 20313c <tpl_primary_fiq_handler+0x8>
  203120:	e580e000 	str	lr, [r0]
  203124:	e59f0014 	ldr	r0, [pc, #20]	; 203140 <tpl_primary_fiq_handler+0xc>
  203128:	e3a01004 	mov	r1, #4
  20312c:	e5801000 	str	r1, [r0]
  203130:	eb000e7a 	bl	206b20 <exception_catch_display>

00203134 <tpl_primary_fiq_handler>:
  203134:	e25ef004 	subs	pc, lr, #4
  203138:	0020c3cc 	.word	0x0020c3cc
  20313c:	0020c3c8 	.word	0x0020c3c8
  203140:	0020c3d0 	.word	0x0020c3d0

00203144 <tpl_arm_bootstrap_entry>:
  203144:	e321f0d2 	msr	CPSR_c, #210	; 0xd2
  203148:	e59fd02c 	ldr	sp, [pc, #44]	; 20317c <never_get_here+0x4>
  20314c:	e321f0d1 	msr	CPSR_c, #209	; 0xd1
  203150:	e59fd028 	ldr	sp, [pc, #40]	; 203180 <never_get_here+0x8>
  203154:	e321f0d3 	msr	CPSR_c, #211	; 0xd3
  203158:	e59fd024 	ldr	sp, [pc, #36]	; 203184 <never_get_here+0xc>
  20315c:	e321f0d7 	msr	CPSR_c, #215	; 0xd7
  203160:	e59fd020 	ldr	sp, [pc, #32]	; 203188 <never_get_here+0x10>
  203164:	e321f0db 	msr	CPSR_c, #219	; 0xdb
  203168:	e59fd01c 	ldr	sp, [pc, #28]	; 20318c <never_get_here+0x14>
  20316c:	e321f0df 	msr	CPSR_c, #223	; 0xdf
  203170:	e59fd018 	ldr	sp, [pc, #24]	; 203190 <never_get_here+0x18>
  203174:	eb000d28 	bl	20661c <main>

00203178 <never_get_here>:
  203178:	eafffffe 	b	203178 <never_get_here>
  20317c:	00203e0c 	.word	0x00203e0c
  203180:	0020420c 	.word	0x0020420c
  203184:	00204a0c 	.word	0x00204a0c
  203188:	00204e0c 	.word	0x00204e0c
  20318c:	0020520c 	.word	0x0020520c
  203190:	0020560c 	.word	0x0020560c

00203194 <tpl_tick_it_timer1>:
  203194:	e92d4800 	push	{fp, lr}
  203198:	e28db004 	add	fp, sp, #4
  20319c:	e24dd004 	sub	sp, sp, #4
  2031a0:	e3a03000 	mov	r3, #0
  2031a4:	e54b3005 	strb	r3, [fp, #-5]
  2031a8:	e59f0070 	ldr	r0, [pc, #112]	; 203220 <tpl_tick_it_timer1+0x8c>
  2031ac:	ebfffa54 	bl	201b04 <tpl_counter_tick>
  2031b0:	e1a03000 	mov	r3, r0
  2031b4:	e1a02003 	mov	r2, r3
  2031b8:	e55b3005 	ldrb	r3, [fp, #-5]
  2031bc:	e1823003 	orr	r3, r2, r3
  2031c0:	e54b3005 	strb	r3, [fp, #-5]
  2031c4:	e59f3058 	ldr	r3, [pc, #88]	; 203224 <tpl_tick_it_timer1+0x90>
  2031c8:	e5d33000 	ldrb	r3, [r3]
  2031cc:	e2833001 	add	r3, r3, #1
  2031d0:	e20320ff 	and	r2, r3, #255	; 0xff
  2031d4:	e59f3048 	ldr	r3, [pc, #72]	; 203224 <tpl_tick_it_timer1+0x90>
  2031d8:	e5c32000 	strb	r2, [r3]
  2031dc:	e59f3040 	ldr	r3, [pc, #64]	; 203224 <tpl_tick_it_timer1+0x90>
  2031e0:	e5d33000 	ldrb	r3, [r3]
  2031e4:	e353000a 	cmp	r3, #10
  2031e8:	1a000006 	bne	203208 <tpl_tick_it_timer1+0x74>
  2031ec:	e3e03eed 	mvn	r3, #3792	; 0xed0
  2031f0:	e2433003 	sub	r3, r3, #3
  2031f4:	e3a02101 	mov	r2, #1073741824	; 0x40000000
  2031f8:	e5832000 	str	r2, [r3]
  2031fc:	e59f3020 	ldr	r3, [pc, #32]	; 203224 <tpl_tick_it_timer1+0x90>
  203200:	e3a02000 	mov	r2, #0
  203204:	e5c32000 	strb	r2, [r3]
  203208:	e55b3005 	ldrb	r3, [fp, #-5]
  20320c:	e3530020 	cmp	r3, #32
  203210:	1a000000 	bne	203218 <tpl_tick_it_timer1+0x84>
  203214:	ebfffc1f 	bl	202298 <tpl_schedule_from_running>
  203218:	e24bd004 	sub	sp, fp, #4
  20321c:	e8bd8800 	pop	{fp, pc}
  203220:	0020376c 	.word	0x0020376c
  203224:	0020c3c4 	.word	0x0020c3c4

00203228 <tpl_interrupt_source_1>:
  203228:	e92d4800 	push	{fp, lr}
  20322c:	e28db004 	add	fp, sp, #4
  203230:	ebffffd7 	bl	203194 <tpl_tick_it_timer1>
  203234:	eb001724 	bl	208ecc <systick_isr_C_function>
  203238:	e8bd8800 	pop	{fp, pc}

0020323c <tpl_interrupt_source_2>:
  20323c:	e92d4800 	push	{fp, lr}
  203240:	e28db004 	add	fp, sp, #4
  203244:	eb001888 	bl	20946c <nxt_motor_isr_C_function>
  203248:	e8bd8800 	pop	{fp, pc}

0020324c <tpl_interrupt_source_5>:
  20324c:	e92d4800 	push	{fp, lr}
  203250:	e28db004 	add	fp, sp, #4
  203254:	eb001f1e 	bl	20aed4 <spi_isr_C_function>
  203258:	e8bd8800 	pop	{fp, pc}

0020325c <tpl_interrupt_source_7>:
  20325c:	e92d4800 	push	{fp, lr}
  203260:	e28db004 	add	fp, sp, #4
  203264:	eb00190b 	bl	209698 <bt_isr_C_function>
  203268:	e8bd8800 	pop	{fp, pc}

0020326c <tpl_interrupt_source_9>:
  20326c:	e92d4800 	push	{fp, lr}
  203270:	e28db004 	add	fp, sp, #4
  203274:	eb001cb0 	bl	20a53c <twi_isr_C_function>
  203278:	e8bd8800 	pop	{fp, pc}

0020327c <tpl_interrupt_source_10>:
  20327c:	e92d4800 	push	{fp, lr}
  203280:	e28db004 	add	fp, sp, #4
  203284:	eb001707 	bl	208ea8 <systick_low_priority_C_function>
  203288:	e8bd8800 	pop	{fp, pc}

0020328c <tpl_interrupt_source_12>:
  20328c:	e92d4800 	push	{fp, lr}
  203290:	e28db004 	add	fp, sp, #4
  203294:	eb0012fd 	bl	207e90 <i2c_timer_isr_C_function>
  203298:	e8bd8800 	pop	{fp, pc}

0020329c <tpl_interrupt_source_15>:
  20329c:	e92d4800 	push	{fp, lr}
  2032a0:	e28db004 	add	fp, sp, #4
  2032a4:	e3a00005 	mov	r0, #5
  2032a8:	ebfff6b6 	bl	200d88 <tpl_central_interrupt_handler>
  2032ac:	e8bd8800 	pop	{fp, pc}

002032b0 <tpl_interrupt_source_16>:
  2032b0:	e92d4800 	push	{fp, lr}
  2032b4:	e28db004 	add	fp, sp, #4
  2032b8:	e3a00003 	mov	r0, #3
  2032bc:	ebfff6b1 	bl	200d88 <tpl_central_interrupt_handler>
  2032c0:	e8bd8800 	pop	{fp, pc}

002032c4 <tpl_interrupt_source_17>:
  2032c4:	e92d4800 	push	{fp, lr}
  2032c8:	e28db004 	add	fp, sp, #4
  2032cc:	e3a00004 	mov	r0, #4
  2032d0:	ebfff6ac 	bl	200d88 <tpl_central_interrupt_handler>
  2032d4:	e8bd8800 	pop	{fp, pc}

002032d8 <tpl_interrupt_source_18>:
  2032d8:	e92d4800 	push	{fp, lr}
  2032dc:	e28db004 	add	fp, sp, #4
  2032e0:	e3a00006 	mov	r0, #6
  2032e4:	ebfff6a7 	bl	200d88 <tpl_central_interrupt_handler>
  2032e8:	e8bd8800 	pop	{fp, pc}

002032ec <tpl_interrupt_source_30>:
  2032ec:	e92d4800 	push	{fp, lr}
  2032f0:	e28db004 	add	fp, sp, #4
  2032f4:	eb00205a 	bl	20b464 <check_buttons_status_function>
  2032f8:	e8bd8800 	pop	{fp, pc}

Disassembly of section osvars:

0020360c <tpl_locking_depth>:
  20360c:	00000000                                ....

00203610 <tpl_user_task_lock>:
  203610:	00000000                                ....

00203614 <tpl_cpt_user_task_lock_All>:
  203614:	00000000                                ....

00203618 <tpl_cpt_user_task_lock_OS>:
  203618:	00000000                                ....

0020361c <tpl_cpt_os_task_lock>:
  20361c:	00000000                                ....

00203620 <tpl_it_nesting>:
  203620:	00000000                                ....

00203624 <res_sched_rez_desc>:
  203624:	00ff0001 00000000                       ........

0020362c <tpl_counters_enabled>:
  20362c:	00000000                                ....

00203630 <application_mode>:
  203630:	00000000                                ....

00203634 <idle_task>:
	...

0020363c <tpl_kern>:
  20363c:	00000000 00203370 00000000 00203634     ....p3 .....46 .
  20364c:	00000007 00000000                       ........

00203654 <tpl_h_prio>:
  203654:	000000ff                                ....

00203658 <INTERNAL_RES_SCHEDULER>:
  203658:	00000001                                ....

0020365c <idle_stack>:
	...

00203724 <idle_task_context>:
	...

00203768 <nested_kernel_entrance_counter>:
  203768:	00000000                                ....

0020376c <SystemCounter_counter_desc>:
  20376c:	00000001 000007d0 00000001 00000000     ................
	...

0020378c <Detection_contact_int_context>:
	...

002037d0 <Detection_contact_task_desc>:
  2037d0:	00000000 00040100                       ........

002037d8 <Detection_distance_int_context>:
	...

0020381c <Detection_distance_task_desc>:
  20381c:	00000000 00040100                       ........

00203824 <Navigation_int_context>:
	...

00203868 <Navigation_task_desc>:
  203868:	00000000 00040100                       ........

00203870 <isr_button_left_int_context>:
	...

002038b4 <isr_button_left_isr_desc>:
  2038b4:	00000000 00000200                       ........

002038bc <isr_button_right_int_context>:
	...

00203900 <isr_button_right_isr_desc>:
  203900:	00000000 00000200                       ........

00203908 <isr_button_start_int_context>:
	...

0020394c <isr_button_start_isr_desc>:
  20394c:	00000000 00000200                       ........

00203954 <isr_button_stop_int_context>:
	...

00203998 <isr_button_stop_isr_desc>:
  203998:	00000000 00000200                       ........

002039a0 <AlarmContact_alarm_desc>:
  2039a0:	002035b4 00000000 00000000 00000064     .5 .........d...
  2039b0:	00000064 00000002                       d.......

002039b8 <AlarmDistance_alarm_desc>:
  2039b8:	002035c8 00000000 00000000 0000012c     .5 .........,...
  2039c8:	00000064 00000002                       d.......

002039d0 <AlarmNavigation_alarm_desc>:
  2039d0:	002035dc 00000000 00000000 000000c8     .5 .............
  2039e0:	00000064 00000002                       d.......

002039e8 <tpl_priority_0_fifo>:
  2039e8:	00000000                                ....

002039ec <tpl_priority_1_fifo>:
	...

002039f4 <tpl_priority_2_fifo>:
	...

00203a00 <tpl_fifo_rw>:
	...

00203a0c <irq_stack_top>:
	...

00203e0c <fiq_stack_top>:
	...

0020420c <fiq_stack_bottom>:
	...

00204a0c <abt_stack_top>:
	...

00204e0c <abt_stack_bottom>:
	...

0020520c <und_stack_bottom>:
	...

Disassembly of section apptext:

00205610 <ActivateTask>:
  205610:	e92d4000 	push	{lr}
  205614:	e3a03000 	mov	r3, #0
  205618:	ef000000 	svc	0x00000000
  20561c:	e8bd4000 	pop	{lr}
  205620:	e1a0f00e 	mov	pc, lr

00205624 <TerminateTask>:
  205624:	e92d4000 	push	{lr}
  205628:	e3a03001 	mov	r3, #1
  20562c:	ef000001 	svc	0x00000001
  205630:	e8bd4000 	pop	{lr}
  205634:	e1a0f00e 	mov	pc, lr

00205638 <ChainTask>:
  205638:	e92d4000 	push	{lr}
  20563c:	e3a03002 	mov	r3, #2
  205640:	ef000002 	svc	0x00000002
  205644:	e8bd4000 	pop	{lr}
  205648:	e1a0f00e 	mov	pc, lr

0020564c <Schedule>:
  20564c:	e92d4000 	push	{lr}
  205650:	e3a03003 	mov	r3, #3
  205654:	ef000003 	svc	0x00000003
  205658:	e8bd4000 	pop	{lr}
  20565c:	e1a0f00e 	mov	pc, lr

00205660 <GetTaskID>:
  205660:	e92d4000 	push	{lr}
  205664:	e3a03004 	mov	r3, #4
  205668:	ef000004 	svc	0x00000004
  20566c:	e8bd4000 	pop	{lr}
  205670:	e1a0f00e 	mov	pc, lr

00205674 <GetTaskState>:
  205674:	e92d4000 	push	{lr}
  205678:	e3a03005 	mov	r3, #5
  20567c:	ef000005 	svc	0x00000005
  205680:	e8bd4000 	pop	{lr}
  205684:	e1a0f00e 	mov	pc, lr

00205688 <EnableAllInterrupts>:
  205688:	e92d4000 	push	{lr}
  20568c:	e3a03006 	mov	r3, #6
  205690:	ef000006 	svc	0x00000006
  205694:	e8bd4000 	pop	{lr}
  205698:	e1a0f00e 	mov	pc, lr

0020569c <DisableAllInterrupts>:
  20569c:	e92d4000 	push	{lr}
  2056a0:	e3a03007 	mov	r3, #7
  2056a4:	ef000007 	svc	0x00000007
  2056a8:	e8bd4000 	pop	{lr}
  2056ac:	e1a0f00e 	mov	pc, lr

002056b0 <ResumeAllInterrupts>:
  2056b0:	e92d4000 	push	{lr}
  2056b4:	e3a03008 	mov	r3, #8
  2056b8:	ef000008 	svc	0x00000008
  2056bc:	e8bd4000 	pop	{lr}
  2056c0:	e1a0f00e 	mov	pc, lr

002056c4 <SuspendAllInterrupts>:
  2056c4:	e92d4000 	push	{lr}
  2056c8:	e3a03009 	mov	r3, #9
  2056cc:	ef000009 	svc	0x00000009
  2056d0:	e8bd4000 	pop	{lr}
  2056d4:	e1a0f00e 	mov	pc, lr

002056d8 <ResumeOSInterrupts>:
  2056d8:	e92d4000 	push	{lr}
  2056dc:	e3a0300a 	mov	r3, #10
  2056e0:	ef00000a 	svc	0x0000000a
  2056e4:	e8bd4000 	pop	{lr}
  2056e8:	e1a0f00e 	mov	pc, lr

002056ec <SuspendOSInterrupts>:
  2056ec:	e92d4000 	push	{lr}
  2056f0:	e3a0300b 	mov	r3, #11
  2056f4:	ef00000b 	svc	0x0000000b
  2056f8:	e8bd4000 	pop	{lr}
  2056fc:	e1a0f00e 	mov	pc, lr

00205700 <GetResource>:
  205700:	e92d4000 	push	{lr}
  205704:	e3a0300c 	mov	r3, #12
  205708:	ef00000c 	svc	0x0000000c
  20570c:	e8bd4000 	pop	{lr}
  205710:	e1a0f00e 	mov	pc, lr

00205714 <ReleaseResource>:
  205714:	e92d4000 	push	{lr}
  205718:	e3a0300d 	mov	r3, #13
  20571c:	ef00000d 	svc	0x0000000d
  205720:	e8bd4000 	pop	{lr}
  205724:	e1a0f00e 	mov	pc, lr

00205728 <SetEvent>:
  205728:	e92d4000 	push	{lr}
  20572c:	e3a0300e 	mov	r3, #14
  205730:	ef00000e 	svc	0x0000000e
  205734:	e8bd4000 	pop	{lr}
  205738:	e1a0f00e 	mov	pc, lr

0020573c <ClearEvent>:
  20573c:	e92d4000 	push	{lr}
  205740:	e3a0300f 	mov	r3, #15
  205744:	ef00000f 	svc	0x0000000f
  205748:	e8bd4000 	pop	{lr}
  20574c:	e1a0f00e 	mov	pc, lr

00205750 <GetEvent>:
  205750:	e92d4000 	push	{lr}
  205754:	e3a03010 	mov	r3, #16
  205758:	ef000010 	svc	0x00000010
  20575c:	e8bd4000 	pop	{lr}
  205760:	e1a0f00e 	mov	pc, lr

00205764 <WaitEvent>:
  205764:	e92d4000 	push	{lr}
  205768:	e3a03011 	mov	r3, #17
  20576c:	ef000011 	svc	0x00000011
  205770:	e8bd4000 	pop	{lr}
  205774:	e1a0f00e 	mov	pc, lr

00205778 <GetAlarmBase>:
  205778:	e92d4000 	push	{lr}
  20577c:	e3a03012 	mov	r3, #18
  205780:	ef000012 	svc	0x00000012
  205784:	e8bd4000 	pop	{lr}
  205788:	e1a0f00e 	mov	pc, lr

0020578c <GetAlarm>:
  20578c:	e92d4000 	push	{lr}
  205790:	e3a03013 	mov	r3, #19
  205794:	ef000013 	svc	0x00000013
  205798:	e8bd4000 	pop	{lr}
  20579c:	e1a0f00e 	mov	pc, lr

002057a0 <SetRelAlarm>:
  2057a0:	e92d4000 	push	{lr}
  2057a4:	e3a03014 	mov	r3, #20
  2057a8:	ef000014 	svc	0x00000014
  2057ac:	e8bd4000 	pop	{lr}
  2057b0:	e1a0f00e 	mov	pc, lr

002057b4 <SetAbsAlarm>:
  2057b4:	e92d4000 	push	{lr}
  2057b8:	e3a03015 	mov	r3, #21
  2057bc:	ef000015 	svc	0x00000015
  2057c0:	e8bd4000 	pop	{lr}
  2057c4:	e1a0f00e 	mov	pc, lr

002057c8 <CancelAlarm>:
  2057c8:	e92d4000 	push	{lr}
  2057cc:	e3a03016 	mov	r3, #22
  2057d0:	ef000016 	svc	0x00000016
  2057d4:	e8bd4000 	pop	{lr}
  2057d8:	e1a0f00e 	mov	pc, lr

002057dc <GetActiveApplicationMode>:
  2057dc:	e92d4000 	push	{lr}
  2057e0:	e3a03017 	mov	r3, #23
  2057e4:	ef000017 	svc	0x00000017
  2057e8:	e8bd4000 	pop	{lr}
  2057ec:	e1a0f00e 	mov	pc, lr

002057f0 <tpl_start_os>:
  2057f0:	e92d4000 	push	{lr}
  2057f4:	e3a03018 	mov	r3, #24
  2057f8:	ef000018 	svc	0x00000018
  2057fc:	e8bd4000 	pop	{lr}
  205800:	e1a0f00e 	mov	pc, lr

00205804 <ShutdownOS>:
  205804:	e92d4000 	push	{lr}
  205808:	e3a03019 	mov	r3, #25
  20580c:	ef000019 	svc	0x00000019
  205810:	e8bd4000 	pop	{lr}
  205814:	e1a0f00e 	mov	pc, lr

00205818 <CallTerminateTask>:
  205818:	e92d4000 	push	{lr}
  20581c:	e3a0301a 	mov	r3, #26
  205820:	ef00001a 	svc	0x0000001a
  205824:	e8bd4000 	pop	{lr}
  205828:	e1a0f00e 	mov	pc, lr

0020582c <CallTerminateISR2>:
  20582c:	e92d4000 	push	{lr}
  205830:	e3a0301b 	mov	r3, #27
  205834:	ef00001b 	svc	0x0000001b
  205838:	e8bd4000 	pop	{lr}
  20583c:	e1a0f00e 	mov	pc, lr

00205840 <StartOS>:
  205840:	e92d4800 	push	{fp, lr}
  205844:	e28db004 	add	fp, sp, #4
  205848:	e24dd004 	sub	sp, sp, #4
  20584c:	e1a03000 	mov	r3, r0
  205850:	e54b3008 	strb	r3, [fp, #-8]
  205854:	ebfff5b1 	bl	202f20 <tpl_init_machine>
  205858:	e55b3008 	ldrb	r3, [fp, #-8]
  20585c:	e1a00003 	mov	r0, r3
  205860:	ebffffe2 	bl	2057f0 <tpl_start_os>
  205864:	e24bd004 	sub	sp, fp, #4
  205868:	e8bd8800 	pop	{fp, pc}

Disassembly of section text_garbage:

0020661c <main>:
  20661c:	e92d4800 	push	{fp, lr}
  206620:	e28db004 	add	fp, sp, #4
  206624:	e3a00000 	mov	r0, #0
  206628:	ebfffc84 	bl	205840 <StartOS>
  20662c:	e3a00000 	mov	r0, #0
  206630:	ebfffc73 	bl	205804 <ShutdownOS>
  206634:	e3a03000 	mov	r3, #0
  206638:	e1a00003 	mov	r0, r3
  20663c:	e8bd8800 	pop	{fp, pc}

00206640 <isr_button_start_function>:
  206640:	e92d4800 	push	{fp, lr}
  206644:	e28db004 	add	fp, sp, #4
  206648:	e59f0004 	ldr	r0, [pc, #4]	; 206654 <isr_button_start_function+0x14>
  20664c:	eb000255 	bl	206fa8 <ecrobot_status_monitor>
  206650:	e8bd8800 	pop	{fp, pc}
  206654:	0020bf28 	.word	0x0020bf28

00206658 <isr_button_stop_function>:
  206658:	e92d4800 	push	{fp, lr}
  20665c:	e28db004 	add	fp, sp, #4
  206660:	e3a00000 	mov	r0, #0
  206664:	ebfffc66 	bl	205804 <ShutdownOS>
  206668:	e8bd8800 	pop	{fp, pc}

0020666c <isr_button_left_function>:
  20666c:	e92d4800 	push	{fp, lr}
  206670:	e28db004 	add	fp, sp, #4
  206674:	e59f0004 	ldr	r0, [pc, #4]	; 206680 <isr_button_left_function+0x14>
  206678:	eb00024a 	bl	206fa8 <ecrobot_status_monitor>
  20667c:	e8bd8800 	pop	{fp, pc}
  206680:	0020bf3c 	.word	0x0020bf3c

00206684 <isr_button_right_function>:
  206684:	e92d4800 	push	{fp, lr}
  206688:	e28db004 	add	fp, sp, #4
  20668c:	e59f0004 	ldr	r0, [pc, #4]	; 206698 <isr_button_right_function+0x14>
  206690:	eb000244 	bl	206fa8 <ecrobot_status_monitor>
  206694:	e8bd8800 	pop	{fp, pc}
  206698:	0020bf4c 	.word	0x0020bf4c

0020669c <Detection_contact_function>:
  20669c:	e92d4800 	push	{fp, lr}
  2066a0:	e28db004 	add	fp, sp, #4
  2066a4:	e24dd008 	sub	sp, sp, #8
  2066a8:	e3a00000 	mov	r0, #0
  2066ac:	eb000181 	bl	206cb8 <ecrobot_get_touch_sensor>
  2066b0:	e1a03000 	mov	r3, r0
  2066b4:	e50b3008 	str	r3, [fp, #-8]
  2066b8:	e3a00002 	mov	r0, #2
  2066bc:	eb00017d 	bl	206cb8 <ecrobot_get_touch_sensor>
  2066c0:	e1a03000 	mov	r3, r0
  2066c4:	e50b300c 	str	r3, [fp, #-12]
  2066c8:	e51b3008 	ldr	r3, [fp, #-8]
  2066cc:	e3530000 	cmp	r3, #0
  2066d0:	1a000002 	bne	2066e0 <Detection_contact_function+0x44>
  2066d4:	e51b300c 	ldr	r3, [fp, #-12]
  2066d8:	e3530000 	cmp	r3, #0
  2066dc:	0a00000f 	beq	206720 <Detection_contact_function+0x84>
  2066e0:	e59f3044 	ldr	r3, [pc, #68]	; 20672c <Detection_contact_function+0x90>
  2066e4:	e51b2008 	ldr	r2, [fp, #-8]
  2066e8:	e5832000 	str	r2, [r3]
  2066ec:	e59f303c 	ldr	r3, [pc, #60]	; 206730 <Detection_contact_function+0x94>
  2066f0:	e5933000 	ldr	r3, [r3]
  2066f4:	e20330ff 	and	r3, r3, #255	; 0xff
  2066f8:	e1a00003 	mov	r0, r3
  2066fc:	ebfffbff 	bl	205700 <GetResource>
  206700:	e59f302c 	ldr	r3, [pc, #44]	; 206734 <Detection_contact_function+0x98>
  206704:	e3a02000 	mov	r2, #0
  206708:	e5832000 	str	r2, [r3]
  20670c:	e59f301c 	ldr	r3, [pc, #28]	; 206730 <Detection_contact_function+0x94>
  206710:	e5933000 	ldr	r3, [r3]
  206714:	e20330ff 	and	r3, r3, #255	; 0xff
  206718:	e1a00003 	mov	r0, r3
  20671c:	ebfffbfc 	bl	205714 <ReleaseResource>
  206720:	ebfffbbf 	bl	205624 <TerminateTask>
  206724:	e24bd004 	sub	sp, fp, #4
  206728:	e8bd8800 	pop	{fp, pc}
  20672c:	0020bad0 	.word	0x0020bad0
  206730:	0020bac0 	.word	0x0020bac0
  206734:	0020bac4 	.word	0x0020bac4

00206738 <Detection_distance_function>:
  206738:	e92d4800 	push	{fp, lr}
  20673c:	e28db004 	add	fp, sp, #4
  206740:	e59f3058 	ldr	r3, [pc, #88]	; 2067a0 <Detection_distance_function+0x68>
  206744:	e5933000 	ldr	r3, [r3]
  206748:	e20330ff 	and	r3, r3, #255	; 0xff
  20674c:	e1a00003 	mov	r0, r3
  206750:	ebfffbea 	bl	205700 <GetResource>
  206754:	e3a00001 	mov	r0, #1
  206758:	eb0001a4 	bl	206df0 <ecrobot_get_sonar_sensor>
  20675c:	e1a02000 	mov	r2, r0
  206760:	e59f303c 	ldr	r3, [pc, #60]	; 2067a4 <Detection_distance_function+0x6c>
  206764:	e5832000 	str	r2, [r3]
  206768:	e59f3034 	ldr	r3, [pc, #52]	; 2067a4 <Detection_distance_function+0x6c>
  20676c:	e5933000 	ldr	r3, [r3]
  206770:	e3530000 	cmp	r3, #0
  206774:	1a000002 	bne	206784 <Detection_distance_function+0x4c>
  206778:	e59f3024 	ldr	r3, [pc, #36]	; 2067a4 <Detection_distance_function+0x6c>
  20677c:	e3a02001 	mov	r2, #1
  206780:	e5832000 	str	r2, [r3]
  206784:	e59f3014 	ldr	r3, [pc, #20]	; 2067a0 <Detection_distance_function+0x68>
  206788:	e5933000 	ldr	r3, [r3]
  20678c:	e20330ff 	and	r3, r3, #255	; 0xff
  206790:	e1a00003 	mov	r0, r3
  206794:	ebfffbde 	bl	205714 <ReleaseResource>
  206798:	ebfffba1 	bl	205624 <TerminateTask>
  20679c:	e8bd8800 	pop	{fp, pc}
  2067a0:	0020bac0 	.word	0x0020bac0
  2067a4:	0020bac4 	.word	0x0020bac4

002067a8 <Navigation_function>:
  2067a8:	e92d4800 	push	{fp, lr}
  2067ac:	e28db004 	add	fp, sp, #4
  2067b0:	e24dd004 	sub	sp, sp, #4
  2067b4:	e59f325c 	ldr	r3, [pc, #604]	; 206a18 <Navigation_function+0x270>
  2067b8:	e5933000 	ldr	r3, [r3]
  2067bc:	e3530003 	cmp	r3, #3
  2067c0:	1a00001e 	bne	206840 <Navigation_function+0x98>
  2067c4:	e59f3250 	ldr	r3, [pc, #592]	; 206a1c <Navigation_function+0x274>
  2067c8:	e5933000 	ldr	r3, [r3]
  2067cc:	e20330ff 	and	r3, r3, #255	; 0xff
  2067d0:	e1a00003 	mov	r0, r3
  2067d4:	ebfffbc9 	bl	205700 <GetResource>
  2067d8:	e59f3240 	ldr	r3, [pc, #576]	; 206a20 <Navigation_function+0x278>
  2067dc:	e5933000 	ldr	r3, [r3]
  2067e0:	e3530000 	cmp	r3, #0
  2067e4:	1a000006 	bne	206804 <Navigation_function+0x5c>
  2067e8:	e59f3228 	ldr	r3, [pc, #552]	; 206a18 <Navigation_function+0x270>
  2067ec:	e3a02001 	mov	r2, #1
  2067f0:	e5832000 	str	r2, [r3]
  2067f4:	e59f3228 	ldr	r3, [pc, #552]	; 206a24 <Navigation_function+0x27c>
  2067f8:	e3a02000 	mov	r2, #0
  2067fc:	e5832000 	str	r2, [r3]
  206800:	ea000009 	b	20682c <Navigation_function+0x84>
  206804:	e59f3214 	ldr	r3, [pc, #532]	; 206a20 <Navigation_function+0x278>
  206808:	e5933000 	ldr	r3, [r3]
  20680c:	e3530032 	cmp	r3, #50	; 0x32
  206810:	ca000005 	bgt	20682c <Navigation_function+0x84>
  206814:	e59f31fc 	ldr	r3, [pc, #508]	; 206a18 <Navigation_function+0x270>
  206818:	e3a02002 	mov	r2, #2
  20681c:	e5832000 	str	r2, [r3]
  206820:	e59f31fc 	ldr	r3, [pc, #508]	; 206a24 <Navigation_function+0x27c>
  206824:	e3a02000 	mov	r2, #0
  206828:	e5832000 	str	r2, [r3]
  20682c:	e59f31e8 	ldr	r3, [pc, #488]	; 206a1c <Navigation_function+0x274>
  206830:	e5933000 	ldr	r3, [r3]
  206834:	e20330ff 	and	r3, r3, #255	; 0xff
  206838:	e1a00003 	mov	r0, r3
  20683c:	ebfffbb4 	bl	205714 <ReleaseResource>
  206840:	e59f31d0 	ldr	r3, [pc, #464]	; 206a18 <Navigation_function+0x270>
  206844:	e5933000 	ldr	r3, [r3]
  206848:	e3530001 	cmp	r3, #1
  20684c:	1a000014 	bne	2068a4 <Navigation_function+0xfc>
  206850:	e3a00000 	mov	r0, #0
  206854:	e3e0104a 	mvn	r1, #74	; 0x4a
  206858:	e3a02000 	mov	r2, #0
  20685c:	eb000a23 	bl	2090f0 <nxt_motor_set_speed>
  206860:	e3a00001 	mov	r0, #1
  206864:	e3e0104a 	mvn	r1, #74	; 0x4a
  206868:	e3a02000 	mov	r2, #0
  20686c:	eb000a1f 	bl	2090f0 <nxt_motor_set_speed>
  206870:	e59f31ac 	ldr	r3, [pc, #428]	; 206a24 <Navigation_function+0x27c>
  206874:	e5933000 	ldr	r3, [r3]
  206878:	e2832001 	add	r2, r3, #1
  20687c:	e59f31a0 	ldr	r3, [pc, #416]	; 206a24 <Navigation_function+0x27c>
  206880:	e5832000 	str	r2, [r3]
  206884:	e59f3198 	ldr	r3, [pc, #408]	; 206a24 <Navigation_function+0x27c>
  206888:	e5933000 	ldr	r3, [r3]
  20688c:	e3530005 	cmp	r3, #5
  206890:	1a00004e 	bne	2069d0 <Navigation_function+0x228>
  206894:	e59f317c 	ldr	r3, [pc, #380]	; 206a18 <Navigation_function+0x270>
  206898:	e3a02002 	mov	r2, #2
  20689c:	e5832000 	str	r2, [r3]
  2068a0:	ea00004a 	b	2069d0 <Navigation_function+0x228>
  2068a4:	e59f3174 	ldr	r3, [pc, #372]	; 206a20 <Navigation_function+0x278>
  2068a8:	e5933000 	ldr	r3, [r3]
  2068ac:	e3530032 	cmp	r3, #50	; 0x32
  2068b0:	ca000015 	bgt	20690c <Navigation_function+0x164>
  2068b4:	e59f316c 	ldr	r3, [pc, #364]	; 206a28 <Navigation_function+0x280>
  2068b8:	e5933000 	ldr	r3, [r3]
  2068bc:	e3530000 	cmp	r3, #0
  2068c0:	0a000008 	beq	2068e8 <Navigation_function+0x140>
  2068c4:	e3a00000 	mov	r0, #0
  2068c8:	e3a01064 	mov	r1, #100	; 0x64
  2068cc:	e3a02000 	mov	r2, #0
  2068d0:	eb000a06 	bl	2090f0 <nxt_motor_set_speed>
  2068d4:	e3a00001 	mov	r0, #1
  2068d8:	e3a0104b 	mov	r1, #75	; 0x4b
  2068dc:	e3a02000 	mov	r2, #0
  2068e0:	eb000a02 	bl	2090f0 <nxt_motor_set_speed>
  2068e4:	ea000039 	b	2069d0 <Navigation_function+0x228>
  2068e8:	e3a00000 	mov	r0, #0
  2068ec:	e3a0104b 	mov	r1, #75	; 0x4b
  2068f0:	e3a02000 	mov	r2, #0
  2068f4:	eb0009fd 	bl	2090f0 <nxt_motor_set_speed>
  2068f8:	e3a00001 	mov	r0, #1
  2068fc:	e3a01064 	mov	r1, #100	; 0x64
  206900:	e3a02000 	mov	r2, #0
  206904:	eb0009f9 	bl	2090f0 <nxt_motor_set_speed>
  206908:	ea000030 	b	2069d0 <Navigation_function+0x228>
  20690c:	e59f3118 	ldr	r3, [pc, #280]	; 206a2c <Navigation_function+0x284>
  206910:	e5931000 	ldr	r1, [r3]
  206914:	e59f3114 	ldr	r3, [pc, #276]	; 206a30 <Navigation_function+0x288>
  206918:	e0c32391 	smull	r2, r3, r1, r3
  20691c:	e1a02143 	asr	r2, r3, #2
  206920:	e1a03fc1 	asr	r3, r1, #31
  206924:	e0632002 	rsb	r2, r3, r2
  206928:	e1a03002 	mov	r3, r2
  20692c:	e1a03103 	lsl	r3, r3, #2
  206930:	e0833002 	add	r3, r3, r2
  206934:	e1a03083 	lsl	r3, r3, #1
  206938:	e0632001 	rsb	r2, r3, r1
  20693c:	e3520000 	cmp	r2, #0
  206940:	1a00001a 	bne	2069b0 <Navigation_function+0x208>
  206944:	eb00141c 	bl	20b9bc <rand>
  206948:	e1a01000 	mov	r1, r0
  20694c:	e59f30e0 	ldr	r3, [pc, #224]	; 206a34 <Navigation_function+0x28c>
  206950:	e0c32391 	smull	r2, r3, r1, r3
  206954:	e1a02343 	asr	r2, r3, #6
  206958:	e1a03fc1 	asr	r3, r1, #31
  20695c:	e0632002 	rsb	r2, r3, r2
  206960:	e1a03002 	mov	r3, r2
  206964:	e1a03103 	lsl	r3, r3, #2
  206968:	e0833002 	add	r3, r3, r2
  20696c:	e1a02103 	lsl	r2, r3, #2
  206970:	e0833002 	add	r3, r3, r2
  206974:	e1a03183 	lsl	r3, r3, #3
  206978:	e0632001 	rsb	r2, r3, r1
  20697c:	e2423064 	sub	r3, r2, #100	; 0x64
  206980:	e50b3008 	str	r3, [fp, #-8]
  206984:	e3a00000 	mov	r0, #0
  206988:	e51b1008 	ldr	r1, [fp, #-8]
  20698c:	e3a02000 	mov	r2, #0
  206990:	eb0009d6 	bl	2090f0 <nxt_motor_set_speed>
  206994:	e51b3008 	ldr	r3, [fp, #-8]
  206998:	e2633000 	rsb	r3, r3, #0
  20699c:	e3a00001 	mov	r0, #1
  2069a0:	e1a01003 	mov	r1, r3
  2069a4:	e3a02000 	mov	r2, #0
  2069a8:	eb0009d0 	bl	2090f0 <nxt_motor_set_speed>
  2069ac:	ea000007 	b	2069d0 <Navigation_function+0x228>
  2069b0:	e3a00000 	mov	r0, #0
  2069b4:	e3a0104b 	mov	r1, #75	; 0x4b
  2069b8:	e3a02000 	mov	r2, #0
  2069bc:	eb0009cb 	bl	2090f0 <nxt_motor_set_speed>
  2069c0:	e3a00001 	mov	r0, #1
  2069c4:	e3a0104b 	mov	r1, #75	; 0x4b
  2069c8:	e3a02000 	mov	r2, #0
  2069cc:	eb0009c7 	bl	2090f0 <nxt_motor_set_speed>
  2069d0:	e59f3054 	ldr	r3, [pc, #84]	; 206a2c <Navigation_function+0x284>
  2069d4:	e5933000 	ldr	r3, [r3]
  2069d8:	e2831001 	add	r1, r3, #1
  2069dc:	e59f304c 	ldr	r3, [pc, #76]	; 206a30 <Navigation_function+0x288>
  2069e0:	e0c32391 	smull	r2, r3, r1, r3
  2069e4:	e1a02143 	asr	r2, r3, #2
  2069e8:	e1a03fc1 	asr	r3, r1, #31
  2069ec:	e0632002 	rsb	r2, r3, r2
  2069f0:	e1a03002 	mov	r3, r2
  2069f4:	e1a03103 	lsl	r3, r3, #2
  2069f8:	e0833002 	add	r3, r3, r2
  2069fc:	e1a03083 	lsl	r3, r3, #1
  206a00:	e0632001 	rsb	r2, r3, r1
  206a04:	e59f3020 	ldr	r3, [pc, #32]	; 206a2c <Navigation_function+0x284>
  206a08:	e5832000 	str	r2, [r3]
  206a0c:	ebfffb04 	bl	205624 <TerminateTask>
  206a10:	e24bd004 	sub	sp, fp, #4
  206a14:	e8bd8800 	pop	{fp, pc}
  206a18:	0020bac8 	.word	0x0020bac8
  206a1c:	0020bac0 	.word	0x0020bac0
  206a20:	0020bac4 	.word	0x0020bac4
  206a24:	0020c3c0 	.word	0x0020c3c0
  206a28:	0020bad0 	.word	0x0020bad0
  206a2c:	0020bacc 	.word	0x0020bacc
  206a30:	66666667 	.word	0x66666667
  206a34:	51eb851f 	.word	0x51eb851f

00206a38 <PreTaskHook>:
  206a38:	e92d4800 	push	{fp, lr}
  206a3c:	e28db004 	add	fp, sp, #4
  206a40:	e24dd004 	sub	sp, sp, #4
  206a44:	eb000936 	bl	208f24 <systick_get_ms>
  206a48:	e1a03000 	mov	r3, r0
  206a4c:	e50b3008 	str	r3, [fp, #-8]
  206a50:	e3a00000 	mov	r0, #0
  206a54:	e3a01000 	mov	r1, #0
  206a58:	eb000ca2 	bl	209ce8 <display_goto_xy>
  206a5c:	e51b0008 	ldr	r0, [fp, #-8]
  206a60:	e3a01000 	mov	r1, #0
  206a64:	eb000dcb 	bl	20a198 <display_int>
  206a68:	e3a00000 	mov	r0, #0
  206a6c:	e3a01001 	mov	r1, #1
  206a70:	eb000c9c 	bl	209ce8 <display_goto_xy>
  206a74:	e59f3020 	ldr	r3, [pc, #32]	; 206a9c <PreTaskHook+0x64>
  206a78:	e5933000 	ldr	r3, [r3]
  206a7c:	e1a00003 	mov	r0, r3
  206a80:	e3a01000 	mov	r1, #0
  206a84:	eb000dc3 	bl	20a198 <display_int>
  206a88:	e59f0010 	ldr	r0, [pc, #16]	; 206aa0 <PreTaskHook+0x68>
  206a8c:	eb000cf6 	bl	209e6c <display_string>
  206a90:	eb000c77 	bl	209c74 <display_update>
  206a94:	e24bd004 	sub	sp, fp, #4
  206a98:	e8bd8800 	pop	{fp, pc}
  206a9c:	0020bac4 	.word	0x0020bac4
  206aa0:	0020bf60 	.word	0x0020bf60

00206aa4 <PostTaskHook>:
  206aa4:	e52db004 	push	{fp}		; (str fp, [sp, #-4]!)
  206aa8:	e28db000 	add	fp, sp, #0
  206aac:	e28bd000 	add	sp, fp, #0
  206ab0:	e8bd0800 	pop	{fp}
  206ab4:	e12fff1e 	bx	lr

00206ab8 <StartupHook>:
  206ab8:	e92d4800 	push	{fp, lr}
  206abc:	e28db004 	add	fp, sp, #4
  206ac0:	e24dd004 	sub	sp, sp, #4
  206ac4:	e3a00001 	mov	r0, #1
  206ac8:	eb0000bd 	bl	206dc4 <ecrobot_init_sonar_sensor>
  206acc:	eb000914 	bl	208f24 <systick_get_ms>
  206ad0:	e1a03000 	mov	r3, r0
  206ad4:	e50b3008 	str	r3, [fp, #-8]
  206ad8:	e3a00000 	mov	r0, #0
  206adc:	e3a01000 	mov	r1, #0
  206ae0:	eb000c80 	bl	209ce8 <display_goto_xy>
  206ae4:	e51b0008 	ldr	r0, [fp, #-8]
  206ae8:	e3a01000 	mov	r1, #0
  206aec:	eb000da9 	bl	20a198 <display_int>
  206af0:	e3a00000 	mov	r0, #0
  206af4:	e3a01001 	mov	r1, #1
  206af8:	eb000c7a 	bl	209ce8 <display_goto_xy>
  206afc:	e59f3018 	ldr	r3, [pc, #24]	; 206b1c <StartupHook+0x64>
  206b00:	e5933000 	ldr	r3, [r3]
  206b04:	e1a00003 	mov	r0, r3
  206b08:	e3a01000 	mov	r1, #0
  206b0c:	eb000da1 	bl	20a198 <display_int>
  206b10:	eb000c57 	bl	209c74 <display_update>
  206b14:	e24bd004 	sub	sp, fp, #4
  206b18:	e8bd8800 	pop	{fp, pc}
  206b1c:	0020bac4 	.word	0x0020bac4

00206b20 <exception_catch_display>:
  206b20:	e92d4800 	push	{fp, lr}
  206b24:	e28db004 	add	fp, sp, #4
  206b28:	e3a00000 	mov	r0, #0
  206b2c:	eb000c5c 	bl	209ca4 <display_clear>
  206b30:	e3a00000 	mov	r0, #0
  206b34:	e3a01000 	mov	r1, #0
  206b38:	eb000c6a 	bl	209ce8 <display_goto_xy>
  206b3c:	e59f30b4 	ldr	r3, [pc, #180]	; 206bf8 <exception_catch_display+0xd8>
  206b40:	e5933000 	ldr	r3, [r3]
  206b44:	e2433001 	sub	r3, r3, #1
  206b48:	e3530003 	cmp	r3, #3
  206b4c:	979ff103 	ldrls	pc, [pc, r3, lsl #2]
  206b50:	ea00000f 	b	206b94 <exception_catch_display+0x74>
  206b54:	00206b64 	.word	0x00206b64
  206b58:	00206b70 	.word	0x00206b70
  206b5c:	00206b7c 	.word	0x00206b7c
  206b60:	00206b88 	.word	0x00206b88
  206b64:	e59f0090 	ldr	r0, [pc, #144]	; 206bfc <exception_catch_display+0xdc>
  206b68:	eb000cbf 	bl	209e6c <display_string>
  206b6c:	ea00000b 	b	206ba0 <exception_catch_display+0x80>
  206b70:	e59f0088 	ldr	r0, [pc, #136]	; 206c00 <exception_catch_display+0xe0>
  206b74:	eb000cbc 	bl	209e6c <display_string>
  206b78:	ea000008 	b	206ba0 <exception_catch_display+0x80>
  206b7c:	e59f0080 	ldr	r0, [pc, #128]	; 206c04 <exception_catch_display+0xe4>
  206b80:	eb000cb9 	bl	209e6c <display_string>
  206b84:	ea000005 	b	206ba0 <exception_catch_display+0x80>
  206b88:	e59f0078 	ldr	r0, [pc, #120]	; 206c08 <exception_catch_display+0xe8>
  206b8c:	eb000cb6 	bl	209e6c <display_string>
  206b90:	ea000002 	b	206ba0 <exception_catch_display+0x80>
  206b94:	e59f0070 	ldr	r0, [pc, #112]	; 206c0c <exception_catch_display+0xec>
  206b98:	eb000cb3 	bl	209e6c <display_string>
  206b9c:	e1a00000 	nop			; (mov r0, r0)
  206ba0:	e3a00000 	mov	r0, #0
  206ba4:	e3a01001 	mov	r1, #1
  206ba8:	eb000c4e 	bl	209ce8 <display_goto_xy>
  206bac:	e59f005c 	ldr	r0, [pc, #92]	; 206c10 <exception_catch_display+0xf0>
  206bb0:	eb000cad 	bl	209e6c <display_string>
  206bb4:	e59f3058 	ldr	r3, [pc, #88]	; 206c14 <exception_catch_display+0xf4>
  206bb8:	e5933000 	ldr	r3, [r3]
  206bbc:	e1a00003 	mov	r0, r3
  206bc0:	e3a01008 	mov	r1, #8
  206bc4:	eb000cd2 	bl	209f14 <display_hex>
  206bc8:	e3a00000 	mov	r0, #0
  206bcc:	e3a01002 	mov	r1, #2
  206bd0:	eb000c44 	bl	209ce8 <display_goto_xy>
  206bd4:	e59f003c 	ldr	r0, [pc, #60]	; 206c18 <exception_catch_display+0xf8>
  206bd8:	eb000ca3 	bl	209e6c <display_string>
  206bdc:	e59f3038 	ldr	r3, [pc, #56]	; 206c1c <exception_catch_display+0xfc>
  206be0:	e5933000 	ldr	r3, [r3]
  206be4:	e1a00003 	mov	r0, r3
  206be8:	e3a01008 	mov	r1, #8
  206bec:	eb000cc8 	bl	209f14 <display_hex>
  206bf0:	eb000c27 	bl	209c94 <display_force_update>
  206bf4:	eafffffe 	b	206bf4 <exception_catch_display+0xd4>
  206bf8:	0020c3d0 	.word	0x0020c3d0
  206bfc:	0020bf68 	.word	0x0020bf68
  206c00:	0020bf78 	.word	0x0020bf78
  206c04:	0020bf84 	.word	0x0020bf84
  206c08:	0020bf9c 	.word	0x0020bf9c
  206c0c:	0020bfa4 	.word	0x0020bfa4
  206c10:	0020bfb4 	.word	0x0020bfb4
  206c14:	0020c3c8 	.word	0x0020c3c8
  206c18:	0020bfbc 	.word	0x0020bfbc
  206c1c:	0020c3cc 	.word	0x0020c3cc

00206c20 <interrupts_get_and_disable>:
  206c20:	e10f0000 	mrs	r0, CPSR
  206c24:	e2100080 	ands	r0, r0, #128	; 0x80
  206c28:	13a00000 	movne	r0, #0
  206c2c:	112fff1e 	bxne	lr
  206c30:	e10f0000 	mrs	r0, CPSR
  206c34:	e3800080 	orr	r0, r0, #128	; 0x80
  206c38:	e121f000 	msr	CPSR_c, r0
  206c3c:	e3a00001 	mov	r0, #1
  206c40:	e12fff1e 	bx	lr

00206c44 <interrupts_enable>:
  206c44:	e10f0000 	mrs	r0, CPSR
  206c48:	e3c00080 	bic	r0, r0, #128	; 0x80
  206c4c:	e121f000 	msr	CPSR_c, r0
  206c50:	e12fff1e 	bx	lr

00206c54 <fiq_get_and_disable>:
  206c54:	e10f0000 	mrs	r0, CPSR
  206c58:	e2100040 	ands	r0, r0, #64	; 0x40
  206c5c:	13a00000 	movne	r0, #0
  206c60:	112fff1e 	bxne	lr
  206c64:	e10f0000 	mrs	r0, CPSR
  206c68:	e3800080 	orr	r0, r0, #128	; 0x80
  206c6c:	e121f000 	msr	CPSR_c, r0
  206c70:	e3a00001 	mov	r0, #1
  206c74:	e12fff1e 	bx	lr

00206c78 <fiq_enable>:
  206c78:	e10f0000 	mrs	r0, CPSR
  206c7c:	e3c00040 	bic	r0, r0, #64	; 0x40
  206c80:	e121f000 	msr	CPSR_c, r0
  206c84:	e12fff1e 	bx	lr

00206c88 <ecrobot_set_motor_rev>:
  206c88:	e92d4800 	push	{fp, lr}
  206c8c:	e28db004 	add	fp, sp, #4
  206c90:	e24dd008 	sub	sp, sp, #8
  206c94:	e1a03000 	mov	r3, r0
  206c98:	e50b100c 	str	r1, [fp, #-12]
  206c9c:	e54b3008 	strb	r3, [fp, #-8]
  206ca0:	e55b3008 	ldrb	r3, [fp, #-8]
  206ca4:	e1a00003 	mov	r0, r3
  206ca8:	e51b100c 	ldr	r1, [fp, #-12]
  206cac:	eb0008ff 	bl	2090b0 <nxt_motor_set_count>
  206cb0:	e24bd004 	sub	sp, fp, #4
  206cb4:	e8bd8800 	pop	{fp, pc}

00206cb8 <ecrobot_get_touch_sensor>:
  206cb8:	e92d4800 	push	{fp, lr}
  206cbc:	e28db004 	add	fp, sp, #4
  206cc0:	e24dd004 	sub	sp, sp, #4
  206cc4:	e1a03000 	mov	r3, r0
  206cc8:	e54b3008 	strb	r3, [fp, #-8]
  206ccc:	e55b3008 	ldrb	r3, [fp, #-8]
  206cd0:	e1a00003 	mov	r0, r3
  206cd4:	eb0003ec 	bl	207c8c <sensor_adc>
  206cd8:	e1a02000 	mov	r2, r0
  206cdc:	e3a03f7f 	mov	r3, #508	; 0x1fc
  206ce0:	e2833003 	add	r3, r3, #3
  206ce4:	e1520003 	cmp	r2, r3
  206ce8:	83a03000 	movhi	r3, #0
  206cec:	93a03001 	movls	r3, #1
  206cf0:	e20330ff 	and	r3, r3, #255	; 0xff
  206cf4:	e1a00003 	mov	r0, r3
  206cf8:	e24bd004 	sub	sp, fp, #4
  206cfc:	e8bd8800 	pop	{fp, pc}

00206d00 <ecrobot_init_i2c>:
  206d00:	e92d4800 	push	{fp, lr}
  206d04:	e28db004 	add	fp, sp, #4
  206d08:	e24dd008 	sub	sp, sp, #8
  206d0c:	e1a02000 	mov	r2, r0
  206d10:	e1a03001 	mov	r3, r1
  206d14:	e54b2008 	strb	r2, [fp, #-8]
  206d18:	e54b300c 	strb	r3, [fp, #-12]
  206d1c:	e59f3030 	ldr	r3, [pc, #48]	; 206d54 <ecrobot_init_i2c+0x54>
  206d20:	e5d33000 	ldrb	r3, [r3]
  206d24:	e3530002 	cmp	r3, #2
  206d28:	1a000007 	bne	206d4c <ecrobot_init_i2c+0x4c>
  206d2c:	e55b2008 	ldrb	r2, [fp, #-8]
  206d30:	e55b300c 	ldrb	r3, [fp, #-12]
  206d34:	e1a00002 	mov	r0, r2
  206d38:	e1a01003 	mov	r1, r3
  206d3c:	eb00041e 	bl	207dbc <nxt_avr_set_input_power>
  206d40:	e55b3008 	ldrb	r3, [fp, #-8]
  206d44:	e1a00003 	mov	r0, r3
  206d48:	eb0006d8 	bl	2088b0 <i2c_enable>
  206d4c:	e24bd004 	sub	sp, fp, #4
  206d50:	e8bd8800 	pop	{fp, pc}
  206d54:	0020bad4 	.word	0x0020bad4

00206d58 <getDistance>:
  206d58:	e52db004 	push	{fp}		; (str fp, [sp, #-4]!)
  206d5c:	e28db000 	add	fp, sp, #0
  206d60:	e24dd004 	sub	sp, sp, #4
  206d64:	e3a03000 	mov	r3, #0
  206d68:	e50b3004 	str	r3, [fp, #-4]
  206d6c:	ea00000b 	b	206da0 <getDistance+0x48>
  206d70:	e59f3048 	ldr	r3, [pc, #72]	; 206dc0 <getDistance+0x68>
  206d74:	e51b2004 	ldr	r2, [fp, #-4]
  206d78:	e7933102 	ldr	r3, [r3, r2, lsl #2]
  206d7c:	e3730001 	cmn	r3, #1
  206d80:	0a000003 	beq	206d94 <getDistance+0x3c>
  206d84:	e59f3034 	ldr	r3, [pc, #52]	; 206dc0 <getDistance+0x68>
  206d88:	e51b2004 	ldr	r2, [fp, #-4]
  206d8c:	e7933102 	ldr	r3, [r3, r2, lsl #2]
  206d90:	ea000006 	b	206db0 <getDistance+0x58>
  206d94:	e51b3004 	ldr	r3, [fp, #-4]
  206d98:	e2833001 	add	r3, r3, #1
  206d9c:	e50b3004 	str	r3, [fp, #-4]
  206da0:	e51b3004 	ldr	r3, [fp, #-4]
  206da4:	e3530003 	cmp	r3, #3
  206da8:	dafffff0 	ble	206d70 <getDistance+0x18>
  206dac:	e3e03000 	mvn	r3, #0
  206db0:	e1a00003 	mov	r0, r3
  206db4:	e28bd000 	add	sp, fp, #0
  206db8:	e8bd0800 	pop	{fp}
  206dbc:	e12fff1e 	bx	lr
  206dc0:	0020bad8 	.word	0x0020bad8

00206dc4 <ecrobot_init_sonar_sensor>:
  206dc4:	e92d4800 	push	{fp, lr}
  206dc8:	e28db004 	add	fp, sp, #4
  206dcc:	e24dd004 	sub	sp, sp, #4
  206dd0:	e1a03000 	mov	r3, r0
  206dd4:	e54b3008 	strb	r3, [fp, #-8]
  206dd8:	e55b3008 	ldrb	r3, [fp, #-8]
  206ddc:	e1a00003 	mov	r0, r3
  206de0:	e3a01002 	mov	r1, #2
  206de4:	ebffffc5 	bl	206d00 <ecrobot_init_i2c>
  206de8:	e24bd004 	sub	sp, fp, #4
  206dec:	e8bd8800 	pop	{fp, pc}

00206df0 <ecrobot_get_sonar_sensor>:
  206df0:	e92d4800 	push	{fp, lr}
  206df4:	e28db004 	add	fp, sp, #4
  206df8:	e24dd010 	sub	sp, sp, #16
  206dfc:	e1a03000 	mov	r3, r0
  206e00:	e54b3008 	strb	r3, [fp, #-8]
  206e04:	e55b3008 	ldrb	r3, [fp, #-8]
  206e08:	e1a00003 	mov	r0, r3
  206e0c:	eb000742 	bl	208b1c <i2c_busy>
  206e10:	e1a03000 	mov	r3, r0
  206e14:	e3530000 	cmp	r3, #0
  206e18:	1a000014 	bne	206e70 <ecrobot_get_sonar_sensor+0x80>
  206e1c:	e55b2008 	ldrb	r2, [fp, #-8]
  206e20:	e55b3008 	ldrb	r3, [fp, #-8]
  206e24:	e59f105c 	ldr	r1, [pc, #92]	; 206e88 <ecrobot_get_sonar_sensor+0x98>
  206e28:	e7d13003 	ldrb	r3, [r1, r3]
  206e2c:	e1a01003 	mov	r1, r3
  206e30:	e59f3054 	ldr	r3, [pc, #84]	; 206e8c <ecrobot_get_sonar_sensor+0x9c>
  206e34:	e7831102 	str	r1, [r3, r2, lsl #2]
  206e38:	e55b3008 	ldrb	r3, [fp, #-8]
  206e3c:	e55b1008 	ldrb	r1, [fp, #-8]
  206e40:	e59f2040 	ldr	r2, [pc, #64]	; 206e88 <ecrobot_get_sonar_sensor+0x98>
  206e44:	e0812002 	add	r2, r1, r2
  206e48:	e58d2000 	str	r2, [sp]
  206e4c:	e3a02001 	mov	r2, #1
  206e50:	e58d2004 	str	r2, [sp, #4]
  206e54:	e3a02000 	mov	r2, #0
  206e58:	e58d2008 	str	r2, [sp, #8]
  206e5c:	e1a00003 	mov	r0, r3
  206e60:	e3a01001 	mov	r1, #1
  206e64:	e3a02042 	mov	r2, #66	; 0x42
  206e68:	e3a03001 	mov	r3, #1
  206e6c:	eb00074a 	bl	208b9c <i2c_start_transaction>
  206e70:	e55b2008 	ldrb	r2, [fp, #-8]
  206e74:	e59f3010 	ldr	r3, [pc, #16]	; 206e8c <ecrobot_get_sonar_sensor+0x9c>
  206e78:	e7933102 	ldr	r3, [r3, r2, lsl #2]
  206e7c:	e1a00003 	mov	r0, r3
  206e80:	e24bd004 	sub	sp, fp, #4
  206e84:	e8bd8800 	pop	{fp, pc}
  206e88:	0020bae8 	.word	0x0020bae8
  206e8c:	0020bad8 	.word	0x0020bad8

00206e90 <ecrobot_get_button_state>:
  206e90:	e52db004 	push	{fp}		; (str fp, [sp, #-4]!)
  206e94:	e28db000 	add	fp, sp, #0
  206e98:	e59f3010 	ldr	r3, [pc, #16]	; 206eb0 <ecrobot_get_button_state+0x20>
  206e9c:	e5d33004 	ldrb	r3, [r3, #4]
  206ea0:	e1a00003 	mov	r0, r3
  206ea4:	e28bd000 	add	sp, fp, #0
  206ea8:	e8bd0800 	pop	{fp}
  206eac:	e12fff1e 	bx	lr
  206eb0:	0020c3d4 	.word	0x0020c3d4

00206eb4 <ecrobot_poll_nxtstate>:
  206eb4:	e92d4810 	push	{r4, fp, lr}
  206eb8:	e28db008 	add	fp, sp, #8
  206ebc:	e24dd004 	sub	sp, sp, #4
  206ec0:	eb00034c 	bl	207bf8 <battery_voltage>
  206ec4:	e1a02000 	mov	r2, r0
  206ec8:	e59f30cc 	ldr	r3, [pc, #204]	; 206f9c <ecrobot_poll_nxtstate+0xe8>
  206ecc:	e5832000 	str	r2, [r3]
  206ed0:	e59f30c8 	ldr	r3, [pc, #200]	; 206fa0 <ecrobot_poll_nxtstate+0xec>
  206ed4:	e5934000 	ldr	r4, [r3]
  206ed8:	eb00033d 	bl	207bd4 <buttons_get>
  206edc:	e1a03000 	mov	r3, r0
  206ee0:	e20330ff 	and	r3, r3, #255	; 0xff
  206ee4:	e203300f 	and	r3, r3, #15
  206ee8:	e20320ff 	and	r2, r3, #255	; 0xff
  206eec:	e59f30b0 	ldr	r3, [pc, #176]	; 206fa4 <ecrobot_poll_nxtstate+0xf0>
  206ef0:	e7c32004 	strb	r2, [r3, r4]
  206ef4:	e2842001 	add	r2, r4, #1
  206ef8:	e59f30a0 	ldr	r3, [pc, #160]	; 206fa0 <ecrobot_poll_nxtstate+0xec>
  206efc:	e5832000 	str	r2, [r3]
  206f00:	e59f3098 	ldr	r3, [pc, #152]	; 206fa0 <ecrobot_poll_nxtstate+0xec>
  206f04:	e5933000 	ldr	r3, [r3]
  206f08:	e3530014 	cmp	r3, #20
  206f0c:	1a000002 	bne	206f1c <ecrobot_poll_nxtstate+0x68>
  206f10:	e59f3088 	ldr	r3, [pc, #136]	; 206fa0 <ecrobot_poll_nxtstate+0xec>
  206f14:	e3a02000 	mov	r2, #0
  206f18:	e5832000 	str	r2, [r3]
  206f1c:	e3a03001 	mov	r3, #1
  206f20:	e50b300c 	str	r3, [fp, #-12]
  206f24:	ea000015 	b	206f80 <ecrobot_poll_nxtstate+0xcc>
  206f28:	e51b300c 	ldr	r3, [fp, #-12]
  206f2c:	e2433001 	sub	r3, r3, #1
  206f30:	e59f206c 	ldr	r2, [pc, #108]	; 206fa4 <ecrobot_poll_nxtstate+0xf0>
  206f34:	e7d22003 	ldrb	r2, [r2, r3]
  206f38:	e59f1064 	ldr	r1, [pc, #100]	; 206fa4 <ecrobot_poll_nxtstate+0xf0>
  206f3c:	e51b300c 	ldr	r3, [fp, #-12]
  206f40:	e0813003 	add	r3, r1, r3
  206f44:	e5d33000 	ldrb	r3, [r3]
  206f48:	e1520003 	cmp	r2, r3
  206f4c:	1a00000f 	bne	206f90 <ecrobot_poll_nxtstate+0xdc>
  206f50:	e51b300c 	ldr	r3, [fp, #-12]
  206f54:	e3530013 	cmp	r3, #19
  206f58:	1a000005 	bne	206f74 <ecrobot_poll_nxtstate+0xc0>
  206f5c:	e59f2040 	ldr	r2, [pc, #64]	; 206fa4 <ecrobot_poll_nxtstate+0xf0>
  206f60:	e51b300c 	ldr	r3, [fp, #-12]
  206f64:	e0823003 	add	r3, r2, r3
  206f68:	e5d32000 	ldrb	r2, [r3]
  206f6c:	e59f3028 	ldr	r3, [pc, #40]	; 206f9c <ecrobot_poll_nxtstate+0xe8>
  206f70:	e5c32004 	strb	r2, [r3, #4]
  206f74:	e51b300c 	ldr	r3, [fp, #-12]
  206f78:	e2833001 	add	r3, r3, #1
  206f7c:	e50b300c 	str	r3, [fp, #-12]
  206f80:	e51b300c 	ldr	r3, [fp, #-12]
  206f84:	e3530013 	cmp	r3, #19
  206f88:	daffffe6 	ble	206f28 <ecrobot_poll_nxtstate+0x74>
  206f8c:	ea000000 	b	206f94 <ecrobot_poll_nxtstate+0xe0>
  206f90:	e1a00000 	nop			; (mov r0, r0)
  206f94:	e24bd008 	sub	sp, fp, #8
  206f98:	e8bd8810 	pop	{r4, fp, pc}
  206f9c:	0020c3d4 	.word	0x0020c3d4
  206fa0:	0020c3f0 	.word	0x0020c3f0
  206fa4:	0020c3dc 	.word	0x0020c3dc

00206fa8 <ecrobot_status_monitor>:
  206fa8:	e92d4800 	push	{fp, lr}
  206fac:	e28db004 	add	fp, sp, #4
  206fb0:	e24dd004 	sub	sp, sp, #4
  206fb4:	e50b0008 	str	r0, [fp, #-8]
  206fb8:	e3a00000 	mov	r0, #0
  206fbc:	eb000b38 	bl	209ca4 <display_clear>
  206fc0:	e3a00000 	mov	r0, #0
  206fc4:	e3a01000 	mov	r1, #0
  206fc8:	eb000b46 	bl	209ce8 <display_goto_xy>
  206fcc:	e51b0008 	ldr	r0, [fp, #-8]
  206fd0:	eb000ba5 	bl	209e6c <display_string>
  206fd4:	e3a00000 	mov	r0, #0
  206fd8:	e3a01001 	mov	r1, #1
  206fdc:	eb000b41 	bl	209ce8 <display_goto_xy>
  206fe0:	e59f01ac 	ldr	r0, [pc, #428]	; 207194 <ecrobot_status_monitor+0x1ec>
  206fe4:	eb000ba0 	bl	209e6c <display_string>
  206fe8:	eb0007cd 	bl	208f24 <systick_get_ms>
  206fec:	e1a02000 	mov	r2, r0
  206ff0:	e59f31a0 	ldr	r3, [pc, #416]	; 207198 <ecrobot_status_monitor+0x1f0>
  206ff4:	e0831392 	umull	r1, r3, r2, r3
  206ff8:	e1a03323 	lsr	r3, r3, #6
  206ffc:	e1a00003 	mov	r0, r3
  207000:	e3a01000 	mov	r1, #0
  207004:	eb000c58 	bl	20a16c <display_unsigned>
  207008:	e3a00000 	mov	r0, #0
  20700c:	e3a01002 	mov	r1, #2
  207010:	eb000b34 	bl	209ce8 <display_goto_xy>
  207014:	e59f0180 	ldr	r0, [pc, #384]	; 20719c <ecrobot_status_monitor+0x1f4>
  207018:	eb000b93 	bl	209e6c <display_string>
  20701c:	e59f317c 	ldr	r3, [pc, #380]	; 2071a0 <ecrobot_status_monitor+0x1f8>
  207020:	e5932000 	ldr	r2, [r3]
  207024:	e59f3178 	ldr	r3, [pc, #376]	; 2071a4 <ecrobot_status_monitor+0x1fc>
  207028:	e0831392 	umull	r1, r3, r2, r3
  20702c:	e1a032a3 	lsr	r3, r3, #5
  207030:	e1a00003 	mov	r0, r3
  207034:	e3a01000 	mov	r1, #0
  207038:	eb000c4b 	bl	20a16c <display_unsigned>
  20703c:	e3a00000 	mov	r0, #0
  207040:	e3a01003 	mov	r1, #3
  207044:	eb000b27 	bl	209ce8 <display_goto_xy>
  207048:	e59f0158 	ldr	r0, [pc, #344]	; 2071a8 <ecrobot_status_monitor+0x200>
  20704c:	eb000b86 	bl	209e6c <display_string>
  207050:	e3a00000 	mov	r0, #0
  207054:	eb000804 	bl	20906c <nxt_motor_get_count>
  207058:	e1a03000 	mov	r3, r0
  20705c:	e1a00003 	mov	r0, r3
  207060:	e3a01000 	mov	r1, #0
  207064:	eb000c4b 	bl	20a198 <display_int>
  207068:	e3a00001 	mov	r0, #1
  20706c:	eb0007fe 	bl	20906c <nxt_motor_get_count>
  207070:	e1a03000 	mov	r3, r0
  207074:	e1a00003 	mov	r0, r3
  207078:	e3a01006 	mov	r1, #6
  20707c:	eb000c45 	bl	20a198 <display_int>
  207080:	e3a00000 	mov	r0, #0
  207084:	e3a01004 	mov	r1, #4
  207088:	eb000b16 	bl	209ce8 <display_goto_xy>
  20708c:	e59f0118 	ldr	r0, [pc, #280]	; 2071ac <ecrobot_status_monitor+0x204>
  207090:	eb000b75 	bl	209e6c <display_string>
  207094:	e3a00002 	mov	r0, #2
  207098:	eb0007f3 	bl	20906c <nxt_motor_get_count>
  20709c:	e1a03000 	mov	r3, r0
  2070a0:	e1a00003 	mov	r0, r3
  2070a4:	e3a01000 	mov	r1, #0
  2070a8:	eb000c3a 	bl	20a198 <display_int>
  2070ac:	e3a00000 	mov	r0, #0
  2070b0:	e3a01005 	mov	r1, #5
  2070b4:	eb000b0b 	bl	209ce8 <display_goto_xy>
  2070b8:	e59f00f0 	ldr	r0, [pc, #240]	; 2071b0 <ecrobot_status_monitor+0x208>
  2070bc:	eb000b6a 	bl	209e6c <display_string>
  2070c0:	e3a00000 	mov	r0, #0
  2070c4:	eb0002f0 	bl	207c8c <sensor_adc>
  2070c8:	e1a03000 	mov	r3, r0
  2070cc:	e1a00003 	mov	r0, r3
  2070d0:	e3a01000 	mov	r1, #0
  2070d4:	eb000c24 	bl	20a16c <display_unsigned>
  2070d8:	e3a00001 	mov	r0, #1
  2070dc:	eb0002ea 	bl	207c8c <sensor_adc>
  2070e0:	e1a03000 	mov	r3, r0
  2070e4:	e1a00003 	mov	r0, r3
  2070e8:	e3a01005 	mov	r1, #5
  2070ec:	eb000c1e 	bl	20a16c <display_unsigned>
  2070f0:	e3a00000 	mov	r0, #0
  2070f4:	e3a01006 	mov	r1, #6
  2070f8:	eb000afa 	bl	209ce8 <display_goto_xy>
  2070fc:	e59f00a8 	ldr	r0, [pc, #168]	; 2071ac <ecrobot_status_monitor+0x204>
  207100:	eb000b59 	bl	209e6c <display_string>
  207104:	e3a00002 	mov	r0, #2
  207108:	eb0002df 	bl	207c8c <sensor_adc>
  20710c:	e1a03000 	mov	r3, r0
  207110:	e1a00003 	mov	r0, r3
  207114:	e3a01000 	mov	r1, #0
  207118:	eb000c13 	bl	20a16c <display_unsigned>
  20711c:	e3a00003 	mov	r0, #3
  207120:	eb0002d9 	bl	207c8c <sensor_adc>
  207124:	e1a03000 	mov	r3, r0
  207128:	e1a00003 	mov	r0, r3
  20712c:	e3a01005 	mov	r1, #5
  207130:	eb000c0d 	bl	20a16c <display_unsigned>
  207134:	e3a00000 	mov	r0, #0
  207138:	e3a01007 	mov	r1, #7
  20713c:	eb000ae9 	bl	209ce8 <display_goto_xy>
  207140:	e59f006c 	ldr	r0, [pc, #108]	; 2071b4 <ecrobot_status_monitor+0x20c>
  207144:	eb000b48 	bl	209e6c <display_string>
  207148:	eb000058 	bl	2072b0 <ecrobot_get_bt_status>
  20714c:	e1a03000 	mov	r3, r0
  207150:	e3530007 	cmp	r3, #7
  207154:	1a000003 	bne	207168 <ecrobot_status_monitor+0x1c0>
  207158:	e3a00001 	mov	r0, #1
  20715c:	e3a01000 	mov	r1, #0
  207160:	eb000c01 	bl	20a16c <display_unsigned>
  207164:	ea000002 	b	207174 <ecrobot_status_monitor+0x1cc>
  207168:	e3a00000 	mov	r0, #0
  20716c:	e3a01000 	mov	r1, #0
  207170:	eb000bfd 	bl	20a16c <display_unsigned>
  207174:	ebfffef7 	bl	206d58 <getDistance>
  207178:	e1a03000 	mov	r3, r0
  20717c:	e1a00003 	mov	r0, r3
  207180:	e3a01005 	mov	r1, #5
  207184:	eb000c03 	bl	20a198 <display_int>
  207188:	eb000ab9 	bl	209c74 <display_update>
  20718c:	e24bd004 	sub	sp, fp, #4
  207190:	e8bd8800 	pop	{fp, pc}
  207194:	0020c004 	.word	0x0020c004
  207198:	10624dd3 	.word	0x10624dd3
  20719c:	0020c00c 	.word	0x0020c00c
  2071a0:	0020c3d4 	.word	0x0020c3d4
  2071a4:	51eb851f 	.word	0x51eb851f
  2071a8:	0020c014 	.word	0x0020c014
  2071ac:	0020c01c 	.word	0x0020c01c
  2071b0:	0020c024 	.word	0x0020c024
  2071b4:	0020c02c 	.word	0x0020c02c

002071b8 <send_bt_command>:
  2071b8:	e92d4800 	push	{fp, lr}
  2071bc:	e28db004 	add	fp, sp, #4
  2071c0:	e24dd010 	sub	sp, sp, #16
  2071c4:	e50b0010 	str	r0, [fp, #-16]
  2071c8:	e50b1014 	str	r1, [fp, #-20]
  2071cc:	e3a03000 	mov	r3, #0
  2071d0:	e50b3008 	str	r3, [fp, #-8]
  2071d4:	e51b3014 	ldr	r3, [fp, #-20]
  2071d8:	e20330ff 	and	r3, r3, #255	; 0xff
  2071dc:	e2833002 	add	r3, r3, #2
  2071e0:	e20320ff 	and	r2, r3, #255	; 0xff
  2071e4:	e59f30c0 	ldr	r3, [pc, #192]	; 2072ac <send_bt_command+0xf4>
  2071e8:	e5c32000 	strb	r2, [r3]
  2071ec:	e3a03000 	mov	r3, #0
  2071f0:	e50b300c 	str	r3, [fp, #-12]
  2071f4:	ea000011 	b	207240 <send_bt_command+0x88>
  2071f8:	e51b300c 	ldr	r3, [fp, #-12]
  2071fc:	e2833001 	add	r3, r3, #1
  207200:	e51b200c 	ldr	r2, [fp, #-12]
  207204:	e51b1010 	ldr	r1, [fp, #-16]
  207208:	e0812002 	add	r2, r1, r2
  20720c:	e5d21000 	ldrb	r1, [r2]
  207210:	e59f2094 	ldr	r2, [pc, #148]	; 2072ac <send_bt_command+0xf4>
  207214:	e7c21003 	strb	r1, [r2, r3]
  207218:	e51b300c 	ldr	r3, [fp, #-12]
  20721c:	e51b2010 	ldr	r2, [fp, #-16]
  207220:	e0823003 	add	r3, r2, r3
  207224:	e5d33000 	ldrb	r3, [r3]
  207228:	e51b2008 	ldr	r2, [fp, #-8]
  20722c:	e0823003 	add	r3, r2, r3
  207230:	e50b3008 	str	r3, [fp, #-8]
  207234:	e51b300c 	ldr	r3, [fp, #-12]
  207238:	e2833001 	add	r3, r3, #1
  20723c:	e50b300c 	str	r3, [fp, #-12]
  207240:	e51b200c 	ldr	r2, [fp, #-12]
  207244:	e51b3014 	ldr	r3, [fp, #-20]
  207248:	e1520003 	cmp	r2, r3
  20724c:	3affffe9 	bcc	2071f8 <send_bt_command+0x40>
  207250:	e51b3008 	ldr	r3, [fp, #-8]
  207254:	e2633000 	rsb	r3, r3, #0
  207258:	e50b3008 	str	r3, [fp, #-8]
  20725c:	e51b3014 	ldr	r3, [fp, #-20]
  207260:	e2833002 	add	r3, r3, #2
  207264:	e51b2008 	ldr	r2, [fp, #-8]
  207268:	e1a02442 	asr	r2, r2, #8
  20726c:	e20210ff 	and	r1, r2, #255	; 0xff
  207270:	e59f2034 	ldr	r2, [pc, #52]	; 2072ac <send_bt_command+0xf4>
  207274:	e7c21003 	strb	r1, [r2, r3]
  207278:	e51b3014 	ldr	r3, [fp, #-20]
  20727c:	e2833003 	add	r3, r3, #3
  207280:	e51b2008 	ldr	r2, [fp, #-8]
  207284:	e20210ff 	and	r1, r2, #255	; 0xff
  207288:	e59f201c 	ldr	r2, [pc, #28]	; 2072ac <send_bt_command+0xf4>
  20728c:	e7c21003 	strb	r1, [r2, r3]
  207290:	e51b3014 	ldr	r3, [fp, #-20]
  207294:	e2833003 	add	r3, r3, #3
  207298:	e59f000c 	ldr	r0, [pc, #12]	; 2072ac <send_bt_command+0xf4>
  20729c:	e1a01003 	mov	r1, r3
  2072a0:	eb000a39 	bl	209b8c <bt_send>
  2072a4:	e24bd004 	sub	sp, fp, #4
  2072a8:	e8bd8800 	pop	{fp, pc}
  2072ac:	0020c3f8 	.word	0x0020c3f8

002072b0 <ecrobot_get_bt_status>:
  2072b0:	e52db004 	push	{fp}		; (str fp, [sp, #-4]!)
  2072b4:	e28db000 	add	fp, sp, #0
  2072b8:	e59f3014 	ldr	r3, [pc, #20]	; 2072d4 <ecrobot_get_bt_status+0x24>
  2072bc:	e5d33000 	ldrb	r3, [r3]
  2072c0:	e20330ff 	and	r3, r3, #255	; 0xff
  2072c4:	e1a00003 	mov	r0, r3
  2072c8:	e28bd000 	add	sp, fp, #0
  2072cc:	e8bd0800 	pop	{fp}
  2072d0:	e12fff1e 	bx	lr
  2072d4:	0020baec 	.word	0x0020baec

002072d8 <ecrobot_term_bt_connection>:
  2072d8:	e92d4800 	push	{fp, lr}
  2072dc:	e28db004 	add	fp, sp, #4
  2072e0:	e24dd004 	sub	sp, sp, #4
  2072e4:	e59f305c 	ldr	r3, [pc, #92]	; 207348 <ecrobot_term_bt_connection+0x70>
  2072e8:	e5d33000 	ldrb	r3, [r3]
  2072ec:	e20330ff 	and	r3, r3, #255	; 0xff
  2072f0:	e3530006 	cmp	r3, #6
  2072f4:	9a00000e 	bls	207334 <ecrobot_term_bt_connection+0x5c>
  2072f8:	eb000a54 	bl	209c50 <bt_clear_arm7_cmd>
  2072fc:	e3a00064 	mov	r0, #100	; 0x64
  207300:	eb000710 	bl	208f48 <systick_wait_ms>
  207304:	e3a03008 	mov	r3, #8
  207308:	e54b3008 	strb	r3, [fp, #-8]
  20730c:	e59f3038 	ldr	r3, [pc, #56]	; 20734c <ecrobot_term_bt_connection+0x74>
  207310:	e5d33000 	ldrb	r3, [r3]
  207314:	e20330ff 	and	r3, r3, #255	; 0xff
  207318:	e54b3007 	strb	r3, [fp, #-7]
  20731c:	e24b3008 	sub	r3, fp, #8
  207320:	e1a00003 	mov	r0, r3
  207324:	e3a01002 	mov	r1, #2
  207328:	ebffffa2 	bl	2071b8 <send_bt_command>
  20732c:	e3a00064 	mov	r0, #100	; 0x64
  207330:	eb000704 	bl	208f48 <systick_wait_ms>
  207334:	e59f300c 	ldr	r3, [pc, #12]	; 207348 <ecrobot_term_bt_connection+0x70>
  207338:	e3a02004 	mov	r2, #4
  20733c:	e5c32000 	strb	r2, [r3]
  207340:	e24bd004 	sub	sp, fp, #4
  207344:	e8bd8800 	pop	{fp, pc}
  207348:	0020baec 	.word	0x0020baec
  20734c:	0020c3f4 	.word	0x0020c3f4

00207350 <nxt_device_init>:
  207350:	e92d4800 	push	{fp, lr}
  207354:	e28db004 	add	fp, sp, #4
  207358:	eb00000a 	bl	207388 <aic_initialise>
  20735c:	ebfffe38 	bl	206c44 <interrupts_enable>
  207360:	eb00018e 	bl	2079a0 <nxt_avr_init>
  207364:	eb00071c 	bl	208fdc <systick_init>
  207368:	eb000589 	bl	208994 <i2c_init>
  20736c:	eb000883 	bl	209580 <nxt_motor_init>
  207370:	eb000942 	bl	209880 <bt_init>
  207374:	e3a00ffa 	mov	r0, #1000	; 0x3e8
  207378:	eb0006f2 	bl	208f48 <systick_wait_ms>
  20737c:	eb000b96 	bl	20a1dc <display_init>
  207380:	eb000bc1 	bl	20a28c <init_sensors>
  207384:	e8bd8800 	pop	{fp, pc}

00207388 <aic_initialise>:
  207388:	e92d4800 	push	{fp, lr}
  20738c:	e28db004 	add	fp, sp, #4
  207390:	e24dd004 	sub	sp, sp, #4
  207394:	ebfffe21 	bl	206c20 <interrupts_get_and_disable>
  207398:	e3a03102 	mov	r3, #-2147483648	; 0x80000000
  20739c:	e1a039c3 	asr	r3, r3, #19
  2073a0:	e3e02000 	mvn	r2, #0
  2073a4:	e5832124 	str	r2, [r3, #292]	; 0x124
  2073a8:	e3a03102 	mov	r3, #-2147483648	; 0x80000000
  2073ac:	e1a039c3 	asr	r3, r3, #19
  2073b0:	e3e02000 	mvn	r2, #0
  2073b4:	e5832144 	str	r2, [r3, #324]	; 0x144
  2073b8:	e3a03102 	mov	r3, #-2147483648	; 0x80000000
  2073bc:	e1a039c3 	asr	r3, r3, #19
  2073c0:	e3e02000 	mvn	r2, #0
  2073c4:	e5832128 	str	r2, [r3, #296]	; 0x128
  2073c8:	e3a03102 	mov	r3, #-2147483648	; 0x80000000
  2073cc:	e1a039c3 	asr	r3, r3, #19
  2073d0:	e3a02001 	mov	r2, #1
  2073d4:	e5832130 	str	r2, [r3, #304]	; 0x130
  2073d8:	e3a03102 	mov	r3, #-2147483648	; 0x80000000
  2073dc:	e1a039c3 	asr	r3, r3, #19
  2073e0:	e3a02001 	mov	r2, #1
  2073e4:	e5832138 	str	r2, [r3, #312]	; 0x138
  2073e8:	e3a03000 	mov	r3, #0
  2073ec:	e50b3008 	str	r3, [fp, #-8]
  2073f0:	ea00000d 	b	20742c <aic_initialise+0xa4>
  2073f4:	e3a03102 	mov	r3, #-2147483648	; 0x80000000
  2073f8:	e1a039c3 	asr	r3, r3, #19
  2073fc:	e51b2008 	ldr	r2, [fp, #-8]
  207400:	e3a01000 	mov	r1, #0
  207404:	e7831102 	str	r1, [r3, r2, lsl #2]
  207408:	e3a03102 	mov	r3, #-2147483648	; 0x80000000
  20740c:	e1a039c3 	asr	r3, r3, #19
  207410:	e59f1058 	ldr	r1, [pc, #88]	; 207470 <aic_initialise+0xe8>
  207414:	e51b2008 	ldr	r2, [fp, #-8]
  207418:	e2822020 	add	r2, r2, #32
  20741c:	e7831102 	str	r1, [r3, r2, lsl #2]
  207420:	e51b3008 	ldr	r3, [fp, #-8]
  207424:	e2833001 	add	r3, r3, #1
  207428:	e50b3008 	str	r3, [fp, #-8]
  20742c:	e51b3008 	ldr	r3, [fp, #-8]
  207430:	e353001f 	cmp	r3, #31
  207434:	daffffee 	ble	2073f4 <aic_initialise+0x6c>
  207438:	e3a03102 	mov	r3, #-2147483648	; 0x80000000
  20743c:	e1a039c3 	asr	r3, r3, #19
  207440:	e3a02000 	mov	r2, #0
  207444:	e5832000 	str	r2, [r3]
  207448:	e3a03102 	mov	r3, #-2147483648	; 0x80000000
  20744c:	e1a039c3 	asr	r3, r3, #19
  207450:	e59f201c 	ldr	r2, [pc, #28]	; 207474 <aic_initialise+0xec>
  207454:	e5832080 	str	r2, [r3, #128]	; 0x80
  207458:	e3a03102 	mov	r3, #-2147483648	; 0x80000000
  20745c:	e1a039c3 	asr	r3, r3, #19
  207460:	e59f200c 	ldr	r2, [pc, #12]	; 207474 <aic_initialise+0xec>
  207464:	e5832134 	str	r2, [r3, #308]	; 0x134
  207468:	e24bd004 	sub	sp, fp, #4
  20746c:	e8bd8800 	pop	{fp, pc}
  207470:	00202d1c 	.word	0x00202d1c
  207474:	00203134 	.word	0x00203134

00207478 <aic_set_vector>:
  207478:	e92d4800 	push	{fp, lr}
  20747c:	e28db004 	add	fp, sp, #4
  207480:	e24dd010 	sub	sp, sp, #16
  207484:	e50b000c 	str	r0, [fp, #-12]
  207488:	e50b1010 	str	r1, [fp, #-16]
  20748c:	e50b2014 	str	r2, [fp, #-20]
  207490:	e51b300c 	ldr	r3, [fp, #-12]
  207494:	e353001f 	cmp	r3, #31
  207498:	8a000010 	bhi	2074e0 <aic_set_vector+0x68>
  20749c:	ebfffddf 	bl	206c20 <interrupts_get_and_disable>
  2074a0:	e50b0008 	str	r0, [fp, #-8]
  2074a4:	e3a03102 	mov	r3, #-2147483648	; 0x80000000
  2074a8:	e1a039c3 	asr	r3, r3, #19
  2074ac:	e51b200c 	ldr	r2, [fp, #-12]
  2074b0:	e51b1010 	ldr	r1, [fp, #-16]
  2074b4:	e7831102 	str	r1, [r3, r2, lsl #2]
  2074b8:	e3a03102 	mov	r3, #-2147483648	; 0x80000000
  2074bc:	e1a039c3 	asr	r3, r3, #19
  2074c0:	e51b200c 	ldr	r2, [fp, #-12]
  2074c4:	e2822020 	add	r2, r2, #32
  2074c8:	e51b1014 	ldr	r1, [fp, #-20]
  2074cc:	e7831102 	str	r1, [r3, r2, lsl #2]
  2074d0:	e51b3008 	ldr	r3, [fp, #-8]
  2074d4:	e3530000 	cmp	r3, #0
  2074d8:	0a000000 	beq	2074e0 <aic_set_vector+0x68>
  2074dc:	ebfffdd8 	bl	206c44 <interrupts_enable>
  2074e0:	e24bd004 	sub	sp, fp, #4
  2074e4:	e8bd8800 	pop	{fp, pc}

002074e8 <aic_mask_on>:
  2074e8:	e92d4800 	push	{fp, lr}
  2074ec:	e28db004 	add	fp, sp, #4
  2074f0:	e24dd008 	sub	sp, sp, #8
  2074f4:	e50b000c 	str	r0, [fp, #-12]
  2074f8:	ebfffdc8 	bl	206c20 <interrupts_get_and_disable>
  2074fc:	e50b0008 	str	r0, [fp, #-8]
  207500:	e3a03102 	mov	r3, #-2147483648	; 0x80000000
  207504:	e1a039c3 	asr	r3, r3, #19
  207508:	e51b200c 	ldr	r2, [fp, #-12]
  20750c:	e3a01001 	mov	r1, #1
  207510:	e1a02211 	lsl	r2, r1, r2
  207514:	e5832120 	str	r2, [r3, #288]	; 0x120
  207518:	e51b3008 	ldr	r3, [fp, #-8]
  20751c:	e3530000 	cmp	r3, #0
  207520:	0a000000 	beq	207528 <aic_mask_on+0x40>
  207524:	ebfffdc6 	bl	206c44 <interrupts_enable>
  207528:	e24bd004 	sub	sp, fp, #4
  20752c:	e8bd8800 	pop	{fp, pc}

00207530 <aic_mask_off>:
  207530:	e92d4800 	push	{fp, lr}
  207534:	e28db004 	add	fp, sp, #4
  207538:	e24dd008 	sub	sp, sp, #8
  20753c:	e50b000c 	str	r0, [fp, #-12]
  207540:	ebfffdb6 	bl	206c20 <interrupts_get_and_disable>
  207544:	e50b0008 	str	r0, [fp, #-8]
  207548:	e3a03102 	mov	r3, #-2147483648	; 0x80000000
  20754c:	e1a039c3 	asr	r3, r3, #19
  207550:	e51b200c 	ldr	r2, [fp, #-12]
  207554:	e3a01001 	mov	r1, #1
  207558:	e1a02211 	lsl	r2, r1, r2
  20755c:	e5832124 	str	r2, [r3, #292]	; 0x124
  207560:	e51b3008 	ldr	r3, [fp, #-8]
  207564:	e3530000 	cmp	r3, #0
  207568:	0a000000 	beq	207570 <aic_mask_off+0x40>
  20756c:	ebfffdb4 	bl	206c44 <interrupts_enable>
  207570:	e24bd004 	sub	sp, fp, #4
  207574:	e8bd8800 	pop	{fp, pc}

00207578 <aic_clear>:
  207578:	e92d4800 	push	{fp, lr}
  20757c:	e28db004 	add	fp, sp, #4
  207580:	e24dd008 	sub	sp, sp, #8
  207584:	e50b000c 	str	r0, [fp, #-12]
  207588:	ebfffda4 	bl	206c20 <interrupts_get_and_disable>
  20758c:	e50b0008 	str	r0, [fp, #-8]
  207590:	e3a03102 	mov	r3, #-2147483648	; 0x80000000
  207594:	e1a039c3 	asr	r3, r3, #19
  207598:	e51b200c 	ldr	r2, [fp, #-12]
  20759c:	e3a01001 	mov	r1, #1
  2075a0:	e1a02211 	lsl	r2, r1, r2
  2075a4:	e5832128 	str	r2, [r3, #296]	; 0x128
  2075a8:	e51b3008 	ldr	r3, [fp, #-8]
  2075ac:	e3530000 	cmp	r3, #0
  2075b0:	0a000000 	beq	2075b8 <aic_clear+0x40>
  2075b4:	ebfffda2 	bl	206c44 <interrupts_enable>
  2075b8:	e24bd004 	sub	sp, fp, #4
  2075bc:	e8bd8800 	pop	{fp, pc}

002075c0 <nxt_avr_start_read>:
  2075c0:	e92d4800 	push	{fp, lr}
  2075c4:	e28db004 	add	fp, sp, #4
  2075c8:	e59f1030 	ldr	r1, [pc, #48]	; 207600 <nxt_avr_start_read+0x40>
  2075cc:	e59f3030 	ldr	r3, [pc, #48]	; 207604 <nxt_avr_start_read+0x44>
  2075d0:	e5932000 	ldr	r2, [r3]
  2075d4:	e1a03002 	mov	r3, r2
  2075d8:	e1a03083 	lsl	r3, r3, #1
  2075dc:	e0833002 	add	r3, r3, r2
  2075e0:	e1a03103 	lsl	r3, r3, #2
  2075e4:	e0833002 	add	r3, r3, r2
  2075e8:	e0813003 	add	r3, r1, r3
  2075ec:	e3a00001 	mov	r0, #1
  2075f0:	e1a01003 	mov	r1, r3
  2075f4:	e3a0200d 	mov	r2, #13
  2075f8:	eb000cc5 	bl	20a914 <twi_start_read>
  2075fc:	e8bd8800 	pop	{fp, pc}
  207600:	0020c50c 	.word	0x0020c50c
  207604:	0020c52c 	.word	0x0020c52c

00207608 <nxt_avr_start_send>:
  207608:	e92d4800 	push	{fp, lr}
  20760c:	e28db004 	add	fp, sp, #4
  207610:	e24dd010 	sub	sp, sp, #16
  207614:	e3a03000 	mov	r3, #0
  207618:	e50b3008 	str	r3, [fp, #-8]
  20761c:	e59f3094 	ldr	r3, [pc, #148]	; 2076b8 <nxt_avr_start_send+0xb0>
  207620:	e50b300c 	str	r3, [fp, #-12]
  207624:	e59f3090 	ldr	r3, [pc, #144]	; 2076bc <nxt_avr_start_send+0xb4>
  207628:	e50b3010 	str	r3, [fp, #-16]
  20762c:	e51b3010 	ldr	r3, [fp, #-16]
  207630:	e2833008 	add	r3, r3, #8
  207634:	e50b3014 	str	r3, [fp, #-20]
  207638:	ea00000e 	b	207678 <nxt_avr_start_send+0x70>
  20763c:	e51b3010 	ldr	r3, [fp, #-16]
  207640:	e5d33000 	ldrb	r3, [r3]
  207644:	e51b2008 	ldr	r2, [fp, #-8]
  207648:	e0823003 	add	r3, r2, r3
  20764c:	e50b3008 	str	r3, [fp, #-8]
  207650:	e51b3010 	ldr	r3, [fp, #-16]
  207654:	e5d32000 	ldrb	r2, [r3]
  207658:	e51b300c 	ldr	r3, [fp, #-12]
  20765c:	e5c32000 	strb	r2, [r3]
  207660:	e51b300c 	ldr	r3, [fp, #-12]
  207664:	e2833001 	add	r3, r3, #1
  207668:	e50b300c 	str	r3, [fp, #-12]
  20766c:	e51b3010 	ldr	r3, [fp, #-16]
  207670:	e2833001 	add	r3, r3, #1
  207674:	e50b3010 	str	r3, [fp, #-16]
  207678:	e51b2010 	ldr	r2, [fp, #-16]
  20767c:	e51b3014 	ldr	r3, [fp, #-20]
  207680:	e1520003 	cmp	r2, r3
  207684:	3affffec 	bcc	20763c <nxt_avr_start_send+0x34>
  207688:	e51b3008 	ldr	r3, [fp, #-8]
  20768c:	e20330ff 	and	r3, r3, #255	; 0xff
  207690:	e1e03003 	mvn	r3, r3
  207694:	e20320ff 	and	r2, r3, #255	; 0xff
  207698:	e51b300c 	ldr	r3, [fp, #-12]
  20769c:	e5c32000 	strb	r2, [r3]
  2076a0:	e3a00001 	mov	r0, #1
  2076a4:	e59f100c 	ldr	r1, [pc, #12]	; 2076b8 <nxt_avr_start_send+0xb0>
  2076a8:	e3a02009 	mov	r2, #9
  2076ac:	eb000cc7 	bl	20a9d0 <twi_start_write>
  2076b0:	e24bd004 	sub	sp, fp, #4
  2076b4:	e8bd8800 	pop	{fp, pc}
  2076b8:	0020c500 	.word	0x0020c500
  2076bc:	0020c4f8 	.word	0x0020c4f8

002076c0 <nxt_avr_power_down>:
  2076c0:	e52db004 	push	{fp}		; (str fp, [sp, #-4]!)
  2076c4:	e28db000 	add	fp, sp, #0
  2076c8:	e59f301c 	ldr	r3, [pc, #28]	; 2076ec <nxt_avr_power_down+0x2c>
  2076cc:	e3a0205a 	mov	r2, #90	; 0x5a
  2076d0:	e5c32000 	strb	r2, [r3]
  2076d4:	e59f3010 	ldr	r3, [pc, #16]	; 2076ec <nxt_avr_power_down+0x2c>
  2076d8:	e3a02000 	mov	r2, #0
  2076dc:	e5c32001 	strb	r2, [r3, #1]
  2076e0:	e28bd000 	add	sp, fp, #0
  2076e4:	e8bd0800 	pop	{fp}
  2076e8:	e12fff1e 	bx	lr
  2076ec:	0020c4f8 	.word	0x0020c4f8

002076f0 <nxt_avr_link_init>:
  2076f0:	e92d4810 	push	{r4, fp, lr}
  2076f4:	e28db008 	add	fp, sp, #8
  2076f8:	e59f401c 	ldr	r4, [pc, #28]	; 20771c <nxt_avr_link_init+0x2c>
  2076fc:	e59f0018 	ldr	r0, [pc, #24]	; 20771c <nxt_avr_link_init+0x2c>
  207700:	eb0010d3 	bl	20ba54 <strlen>
  207704:	e1a03000 	mov	r3, r0
  207708:	e3a00001 	mov	r0, #1
  20770c:	e1a01004 	mov	r1, r4
  207710:	e1a02003 	mov	r2, r3
  207714:	eb000cad 	bl	20a9d0 <twi_start_write>
  207718:	e8bd8810 	pop	{r4, fp, pc}
  20771c:	0020c0c8 	.word	0x0020c0c8

00207720 <nxt_avr_unpack>:
  207720:	e52db004 	push	{fp}		; (str fp, [sp, #-4]!)
  207724:	e28db000 	add	fp, sp, #0
  207728:	e24dd010 	sub	sp, sp, #16
  20772c:	e3a03000 	mov	r3, #0
  207730:	e54b3001 	strb	r3, [fp, #-1]
  207734:	e59f1244 	ldr	r1, [pc, #580]	; 207980 <nxt_avr_unpack+0x260>
  207738:	e59f3244 	ldr	r3, [pc, #580]	; 207984 <nxt_avr_unpack+0x264>
  20773c:	e5932000 	ldr	r2, [r3]
  207740:	e1a03002 	mov	r3, r2
  207744:	e1a03083 	lsl	r3, r3, #1
  207748:	e0833002 	add	r3, r3, r2
  20774c:	e1a03103 	lsl	r3, r3, #2
  207750:	e0833002 	add	r3, r3, r2
  207754:	e0813003 	add	r3, r1, r3
  207758:	e50b3008 	str	r3, [fp, #-8]
  20775c:	e51b3008 	ldr	r3, [fp, #-8]
  207760:	e283300d 	add	r3, r3, #13
  207764:	e50b3010 	str	r3, [fp, #-16]
  207768:	ea000007 	b	20778c <nxt_avr_unpack+0x6c>
  20776c:	e51b3008 	ldr	r3, [fp, #-8]
  207770:	e5d32000 	ldrb	r2, [r3]
  207774:	e55b3001 	ldrb	r3, [fp, #-1]
  207778:	e0823003 	add	r3, r2, r3
  20777c:	e54b3001 	strb	r3, [fp, #-1]
  207780:	e51b3008 	ldr	r3, [fp, #-8]
  207784:	e2833001 	add	r3, r3, #1
  207788:	e50b3008 	str	r3, [fp, #-8]
  20778c:	e51b2008 	ldr	r2, [fp, #-8]
  207790:	e51b3010 	ldr	r3, [fp, #-16]
  207794:	e1520003 	cmp	r2, r3
  207798:	3afffff3 	bcc	20776c <nxt_avr_unpack+0x4c>
  20779c:	e55b3001 	ldrb	r3, [fp, #-1]
  2077a0:	e35300ff 	cmp	r3, #255	; 0xff
  2077a4:	0a000005 	beq	2077c0 <nxt_avr_unpack+0xa0>
  2077a8:	e59f31d8 	ldr	r3, [pc, #472]	; 207988 <nxt_avr_unpack+0x268>
  2077ac:	e5933004 	ldr	r3, [r3, #4]
  2077b0:	e2832001 	add	r2, r3, #1
  2077b4:	e59f31cc 	ldr	r3, [pc, #460]	; 207988 <nxt_avr_unpack+0x268>
  2077b8:	e5832004 	str	r2, [r3, #4]
  2077bc:	ea00006c 	b	207974 <nxt_avr_unpack+0x254>
  2077c0:	e59f31c0 	ldr	r3, [pc, #448]	; 207988 <nxt_avr_unpack+0x268>
  2077c4:	e5933000 	ldr	r3, [r3]
  2077c8:	e2832001 	add	r2, r3, #1
  2077cc:	e59f31b4 	ldr	r3, [pc, #436]	; 207988 <nxt_avr_unpack+0x268>
  2077d0:	e5832000 	str	r2, [r3]
  2077d4:	e59f31a8 	ldr	r3, [pc, #424]	; 207984 <nxt_avr_unpack+0x264>
  2077d8:	e5932000 	ldr	r2, [r3]
  2077dc:	e1a03002 	mov	r3, r2
  2077e0:	e1a03083 	lsl	r3, r3, #1
  2077e4:	e0833002 	add	r3, r3, r2
  2077e8:	e1a03103 	lsl	r3, r3, #2
  2077ec:	e0832002 	add	r2, r3, r2
  2077f0:	e59f3188 	ldr	r3, [pc, #392]	; 207980 <nxt_avr_unpack+0x260>
  2077f4:	e0822003 	add	r2, r2, r3
  2077f8:	e59f318c 	ldr	r3, [pc, #396]	; 20798c <nxt_avr_unpack+0x26c>
  2077fc:	e5832000 	str	r2, [r3]
  207800:	e59f317c 	ldr	r3, [pc, #380]	; 207984 <nxt_avr_unpack+0x264>
  207804:	e5933000 	ldr	r3, [r3]
  207808:	e2833001 	add	r3, r3, #1
  20780c:	e2032001 	and	r2, r3, #1
  207810:	e59f316c 	ldr	r3, [pc, #364]	; 207984 <nxt_avr_unpack+0x264>
  207814:	e5832000 	str	r2, [r3]
  207818:	e59f316c 	ldr	r3, [pc, #364]	; 20798c <nxt_avr_unpack+0x26c>
  20781c:	e5933000 	ldr	r3, [r3]
  207820:	e5d32008 	ldrb	r2, [r3, #8]
  207824:	e5d33009 	ldrb	r3, [r3, #9]
  207828:	e1a03403 	lsl	r3, r3, #8
  20782c:	e1833002 	orr	r3, r3, r2
  207830:	e14b30ba 	strh	r3, [fp, #-10]
  207834:	e15b30ba 	ldrh	r3, [fp, #-10]
  207838:	e353003c 	cmp	r3, #60	; 0x3c
  20783c:	8a000003 	bhi	207850 <nxt_avr_unpack+0x130>
  207840:	e59f3148 	ldr	r3, [pc, #328]	; 207990 <nxt_avr_unpack+0x270>
  207844:	e1d330b0 	ldrh	r3, [r3]
  207848:	e3530000 	cmp	r3, #0
  20784c:	0a000048 	beq	207974 <nxt_avr_unpack+0x254>
  207850:	e59f313c 	ldr	r3, [pc, #316]	; 207994 <nxt_avr_unpack+0x274>
  207854:	e1d330b0 	ldrh	r3, [r3]
  207858:	e15b20ba 	ldrh	r2, [fp, #-10]
  20785c:	e1520003 	cmp	r2, r3
  207860:	0a000003 	beq	207874 <nxt_avr_unpack+0x154>
  207864:	e59f3128 	ldr	r3, [pc, #296]	; 207994 <nxt_avr_unpack+0x274>
  207868:	e15b20ba 	ldrh	r2, [fp, #-10]
  20786c:	e1c320b0 	strh	r2, [r3]
  207870:	ea00003f 	b	207974 <nxt_avr_unpack+0x254>
  207874:	e3a03000 	mov	r3, #0
  207878:	e14b30bc 	strh	r3, [fp, #-12]
  20787c:	e15b20ba 	ldrh	r2, [fp, #-10]
  207880:	e3a03e5d 	mov	r3, #1488	; 0x5d0
  207884:	e283300c 	add	r3, r3, #12
  207888:	e1520003 	cmp	r2, r3
  20788c:	9a000006 	bls	2078ac <nxt_avr_unpack+0x18c>
  207890:	e15b30bc 	ldrh	r3, [fp, #-12]
  207894:	e3833001 	orr	r3, r3, #1
  207898:	e14b30bc 	strh	r3, [fp, #-12]
  20789c:	e15b30ba 	ldrh	r3, [fp, #-10]
  2078a0:	e2433e7f 	sub	r3, r3, #2032	; 0x7f0
  2078a4:	e243300f 	sub	r3, r3, #15
  2078a8:	e14b30ba 	strh	r3, [fp, #-10]
  2078ac:	e15b30ba 	ldrh	r3, [fp, #-10]
  2078b0:	e3530e2d 	cmp	r3, #720	; 0x2d0
  2078b4:	9a000003 	bls	2078c8 <nxt_avr_unpack+0x1a8>
  2078b8:	e15b30bc 	ldrh	r3, [fp, #-12]
  2078bc:	e3833008 	orr	r3, r3, #8
  2078c0:	e14b30bc 	strh	r3, [fp, #-12]
  2078c4:	ea00000e 	b	207904 <nxt_avr_unpack+0x1e4>
  2078c8:	e15b20ba 	ldrh	r2, [fp, #-10]
  2078cc:	e3a03f43 	mov	r3, #268	; 0x10c
  2078d0:	e2833002 	add	r3, r3, #2
  2078d4:	e1520003 	cmp	r2, r3
  2078d8:	9a000003 	bls	2078ec <nxt_avr_unpack+0x1cc>
  2078dc:	e15b30bc 	ldrh	r3, [fp, #-12]
  2078e0:	e3833004 	orr	r3, r3, #4
  2078e4:	e14b30bc 	strh	r3, [fp, #-12]
  2078e8:	ea000005 	b	207904 <nxt_avr_unpack+0x1e4>
  2078ec:	e15b30ba 	ldrh	r3, [fp, #-10]
  2078f0:	e353003c 	cmp	r3, #60	; 0x3c
  2078f4:	9a000002 	bls	207904 <nxt_avr_unpack+0x1e4>
  2078f8:	e15b30bc 	ldrh	r3, [fp, #-12]
  2078fc:	e3833002 	orr	r3, r3, #2
  207900:	e14b30bc 	strh	r3, [fp, #-12]
  207904:	e59f308c 	ldr	r3, [pc, #140]	; 207998 <nxt_avr_unpack+0x278>
  207908:	e1d330b0 	ldrh	r3, [r3]
  20790c:	e15b20bc 	ldrh	r2, [fp, #-12]
  207910:	e1520003 	cmp	r2, r3
  207914:	0a000006 	beq	207934 <nxt_avr_unpack+0x214>
  207918:	e59f307c 	ldr	r3, [pc, #124]	; 20799c <nxt_avr_unpack+0x27c>
  20791c:	e3a02019 	mov	r2, #25
  207920:	e1c320b0 	strh	r2, [r3]
  207924:	e59f306c 	ldr	r3, [pc, #108]	; 207998 <nxt_avr_unpack+0x278>
  207928:	e15b20bc 	ldrh	r2, [fp, #-12]
  20792c:	e1c320b0 	strh	r2, [r3]
  207930:	ea00000f 	b	207974 <nxt_avr_unpack+0x254>
  207934:	e59f3060 	ldr	r3, [pc, #96]	; 20799c <nxt_avr_unpack+0x27c>
  207938:	e1d330b0 	ldrh	r3, [r3]
  20793c:	e3530000 	cmp	r3, #0
  207940:	0a000007 	beq	207964 <nxt_avr_unpack+0x244>
  207944:	e59f3050 	ldr	r3, [pc, #80]	; 20799c <nxt_avr_unpack+0x27c>
  207948:	e1d330b0 	ldrh	r3, [r3]
  20794c:	e2433001 	sub	r3, r3, #1
  207950:	e1a03803 	lsl	r3, r3, #16
  207954:	e1a02823 	lsr	r2, r3, #16
  207958:	e59f303c 	ldr	r3, [pc, #60]	; 20799c <nxt_avr_unpack+0x27c>
  20795c:	e1c320b0 	strh	r2, [r3]
  207960:	ea000003 	b	207974 <nxt_avr_unpack+0x254>
  207964:	e59f302c 	ldr	r3, [pc, #44]	; 207998 <nxt_avr_unpack+0x278>
  207968:	e1d320b0 	ldrh	r2, [r3]
  20796c:	e59f301c 	ldr	r3, [pc, #28]	; 207990 <nxt_avr_unpack+0x270>
  207970:	e1c320b0 	strh	r2, [r3]
  207974:	e28bd000 	add	sp, fp, #0
  207978:	e8bd0800 	pop	{fp}
  20797c:	e12fff1e 	bx	lr
  207980:	0020c50c 	.word	0x0020c50c
  207984:	0020c52c 	.word	0x0020c52c
  207988:	0020c538 	.word	0x0020c538
  20798c:	0020c528 	.word	0x0020c528
  207990:	0020c532 	.word	0x0020c532
  207994:	0020c530 	.word	0x0020c530
  207998:	0020c534 	.word	0x0020c534
  20799c:	0020c536 	.word	0x0020c536

002079a0 <nxt_avr_init>:
  2079a0:	e92d4800 	push	{fp, lr}
  2079a4:	e28db004 	add	fp, sp, #4
  2079a8:	eb000bb8 	bl	20a890 <twi_init>
  2079ac:	e59f0078 	ldr	r0, [pc, #120]	; 207a2c <nxt_avr_init+0x8c>
  2079b0:	e3a01000 	mov	r1, #0
  2079b4:	e3a02008 	mov	r2, #8
  2079b8:	eb000f68 	bl	20b760 <memset>
  2079bc:	e59f3068 	ldr	r3, [pc, #104]	; 207a2c <nxt_avr_init+0x8c>
  2079c0:	e3a02000 	mov	r2, #0
  2079c4:	e5c32000 	strb	r2, [r3]
  2079c8:	e59f305c 	ldr	r3, [pc, #92]	; 207a2c <nxt_avr_init+0x8c>
  2079cc:	e3a02008 	mov	r2, #8
  2079d0:	e5c32001 	strb	r2, [r3, #1]
  2079d4:	e59f3054 	ldr	r3, [pc, #84]	; 207a30 <nxt_avr_init+0x90>
  2079d8:	e3a02000 	mov	r2, #0
  2079dc:	e1c320b0 	strh	r2, [r3]
  2079e0:	e59f304c 	ldr	r3, [pc, #76]	; 207a34 <nxt_avr_init+0x94>
  2079e4:	e3a02000 	mov	r2, #0
  2079e8:	e1c320b0 	strh	r2, [r3]
  2079ec:	e59f3044 	ldr	r3, [pc, #68]	; 207a38 <nxt_avr_init+0x98>
  2079f0:	e3a02000 	mov	r2, #0
  2079f4:	e1c320b0 	strh	r2, [r3]
  2079f8:	e59f303c 	ldr	r3, [pc, #60]	; 207a3c <nxt_avr_init+0x9c>
  2079fc:	e3a02019 	mov	r2, #25
  207a00:	e1c320b0 	strh	r2, [r3]
  207a04:	e59f3034 	ldr	r3, [pc, #52]	; 207a40 <nxt_avr_init+0xa0>
  207a08:	e3a02005 	mov	r2, #5
  207a0c:	e5832000 	str	r2, [r3]
  207a10:	e59f302c 	ldr	r3, [pc, #44]	; 207a44 <nxt_avr_init+0xa4>
  207a14:	e3a02000 	mov	r2, #0
  207a18:	e5832000 	str	r2, [r3]
  207a1c:	e59f3024 	ldr	r3, [pc, #36]	; 207a48 <nxt_avr_init+0xa8>
  207a20:	e59f2024 	ldr	r2, [pc, #36]	; 207a4c <nxt_avr_init+0xac>
  207a24:	e5832000 	str	r2, [r3]
  207a28:	e8bd8800 	pop	{fp, pc}
  207a2c:	0020c4f8 	.word	0x0020c4f8
  207a30:	0020c532 	.word	0x0020c532
  207a34:	0020c530 	.word	0x0020c530
  207a38:	0020c534 	.word	0x0020c534
  207a3c:	0020c536 	.word	0x0020c536
  207a40:	0020c550 	.word	0x0020c550
  207a44:	0020c52c 	.word	0x0020c52c
  207a48:	0020c528 	.word	0x0020c528
  207a4c:	0020c519 	.word	0x0020c519

00207a50 <nxt_avr_1kHz_update>:
  207a50:	e92d4800 	push	{fp, lr}
  207a54:	e28db004 	add	fp, sp, #4
  207a58:	e24dd004 	sub	sp, sp, #4
  207a5c:	e59f3160 	ldr	r3, [pc, #352]	; 207bc4 <nxt_avr_1kHz_update+0x174>
  207a60:	e5933000 	ldr	r3, [r3]
  207a64:	e3530004 	cmp	r3, #4
  207a68:	979ff103 	ldrls	pc, [pc, r3, lsl #2]
  207a6c:	ea00003e 	b	207b6c <nxt_avr_1kHz_update+0x11c>
  207a70:	00207bb8 	.word	0x00207bb8
  207a74:	00207a84 	.word	0x00207a84
  207a78:	00207a84 	.word	0x00207a84
  207a7c:	00207a9c 	.word	0x00207a9c
  207a80:	00207a9c 	.word	0x00207a9c
  207a84:	e59f3138 	ldr	r3, [pc, #312]	; 207bc4 <nxt_avr_1kHz_update+0x174>
  207a88:	e5933000 	ldr	r3, [r3]
  207a8c:	e2832001 	add	r2, r3, #1
  207a90:	e59f312c 	ldr	r3, [pc, #300]	; 207bc4 <nxt_avr_1kHz_update+0x174>
  207a94:	e5832000 	str	r2, [r3]
  207a98:	ea000047 	b	207bbc <nxt_avr_1kHz_update+0x16c>
  207a9c:	eb000a92 	bl	20a4ec <twi_status>
  207aa0:	e50b0008 	str	r0, [fp, #-8]
  207aa4:	e51b3008 	ldr	r3, [fp, #-8]
  207aa8:	e3530000 	cmp	r3, #0
  207aac:	1a000011 	bne	207af8 <nxt_avr_1kHz_update+0xa8>
  207ab0:	e59f3110 	ldr	r3, [pc, #272]	; 207bc8 <nxt_avr_1kHz_update+0x178>
  207ab4:	e5933000 	ldr	r3, [r3]
  207ab8:	e1a02003 	mov	r2, r3
  207abc:	e2022001 	and	r2, r2, #1
  207ac0:	e20220ff 	and	r2, r2, #255	; 0xff
  207ac4:	e2831001 	add	r1, r3, #1
  207ac8:	e59f30f8 	ldr	r3, [pc, #248]	; 207bc8 <nxt_avr_1kHz_update+0x178>
  207acc:	e5831000 	str	r1, [r3]
  207ad0:	e3520000 	cmp	r2, #0
  207ad4:	0a000001 	beq	207ae0 <nxt_avr_1kHz_update+0x90>
  207ad8:	ebfffeb8 	bl	2075c0 <nxt_avr_start_read>
  207adc:	ea000001 	b	207ae8 <nxt_avr_1kHz_update+0x98>
  207ae0:	ebfffec8 	bl	207608 <nxt_avr_start_send>
  207ae4:	ebffff0d 	bl	207720 <nxt_avr_unpack>
  207ae8:	e59f30d4 	ldr	r3, [pc, #212]	; 207bc4 <nxt_avr_1kHz_update+0x174>
  207aec:	e3a02003 	mov	r2, #3
  207af0:	e5832000 	str	r2, [r3]
  207af4:	ea000030 	b	207bbc <nxt_avr_1kHz_update+0x16c>
  207af8:	e51b3008 	ldr	r3, [fp, #-8]
  207afc:	e3530000 	cmp	r3, #0
  207b00:	aa000008 	bge	207b28 <nxt_avr_1kHz_update+0xd8>
  207b04:	e59f30c0 	ldr	r3, [pc, #192]	; 207bcc <nxt_avr_1kHz_update+0x17c>
  207b08:	e5933010 	ldr	r3, [r3, #16]
  207b0c:	e2832001 	add	r2, r3, #1
  207b10:	e59f30b4 	ldr	r3, [pc, #180]	; 207bcc <nxt_avr_1kHz_update+0x17c>
  207b14:	e5832010 	str	r2, [r3, #16]
  207b18:	e59f30a4 	ldr	r3, [pc, #164]	; 207bc4 <nxt_avr_1kHz_update+0x174>
  207b1c:	e3a02005 	mov	r2, #5
  207b20:	e5832000 	str	r2, [r3]
  207b24:	ea000024 	b	207bbc <nxt_avr_1kHz_update+0x16c>
  207b28:	e59f309c 	ldr	r3, [pc, #156]	; 207bcc <nxt_avr_1kHz_update+0x17c>
  207b2c:	e593300c 	ldr	r3, [r3, #12]
  207b30:	e2832001 	add	r2, r3, #1
  207b34:	e59f3090 	ldr	r3, [pc, #144]	; 207bcc <nxt_avr_1kHz_update+0x17c>
  207b38:	e583200c 	str	r2, [r3, #12]
  207b3c:	e59f3080 	ldr	r3, [pc, #128]	; 207bc4 <nxt_avr_1kHz_update+0x174>
  207b40:	e5933000 	ldr	r3, [r3]
  207b44:	e3530003 	cmp	r3, #3
  207b48:	1a000003 	bne	207b5c <nxt_avr_1kHz_update+0x10c>
  207b4c:	e59f3070 	ldr	r3, [pc, #112]	; 207bc4 <nxt_avr_1kHz_update+0x174>
  207b50:	e3a02004 	mov	r2, #4
  207b54:	e5832000 	str	r2, [r3]
  207b58:	ea000017 	b	207bbc <nxt_avr_1kHz_update+0x16c>
  207b5c:	e59f3060 	ldr	r3, [pc, #96]	; 207bc4 <nxt_avr_1kHz_update+0x174>
  207b60:	e3a02005 	mov	r2, #5
  207b64:	e5832000 	str	r2, [r3]
  207b68:	ea000013 	b	207bbc <nxt_avr_1kHz_update+0x16c>
  207b6c:	eb000b47 	bl	20a890 <twi_init>
  207b70:	e59f0058 	ldr	r0, [pc, #88]	; 207bd0 <nxt_avr_1kHz_update+0x180>
  207b74:	e3a01000 	mov	r1, #0
  207b78:	e3a0201a 	mov	r2, #26
  207b7c:	eb000ef7 	bl	20b760 <memset>
  207b80:	ebfffeda 	bl	2076f0 <nxt_avr_link_init>
  207b84:	e59f303c 	ldr	r3, [pc, #60]	; 207bc8 <nxt_avr_1kHz_update+0x178>
  207b88:	e3a02000 	mov	r2, #0
  207b8c:	e5832000 	str	r2, [r3]
  207b90:	e59f3034 	ldr	r3, [pc, #52]	; 207bcc <nxt_avr_1kHz_update+0x17c>
  207b94:	e5933008 	ldr	r3, [r3, #8]
  207b98:	e2832001 	add	r2, r3, #1
  207b9c:	e59f3028 	ldr	r3, [pc, #40]	; 207bcc <nxt_avr_1kHz_update+0x17c>
  207ba0:	e5832008 	str	r2, [r3, #8]
  207ba4:	e59f3018 	ldr	r3, [pc, #24]	; 207bc4 <nxt_avr_1kHz_update+0x174>
  207ba8:	e3a02001 	mov	r2, #1
  207bac:	e5832000 	str	r2, [r3]
  207bb0:	e1a00000 	nop			; (mov r0, r0)
  207bb4:	ea000000 	b	207bbc <nxt_avr_1kHz_update+0x16c>
  207bb8:	e1a00000 	nop			; (mov r0, r0)
  207bbc:	e24bd004 	sub	sp, fp, #4
  207bc0:	e8bd8800 	pop	{fp, pc}
  207bc4:	0020c550 	.word	0x0020c550
  207bc8:	0020c54c 	.word	0x0020c54c
  207bcc:	0020c538 	.word	0x0020c538
  207bd0:	0020c50c 	.word	0x0020c50c

00207bd4 <buttons_get>:
  207bd4:	e52db004 	push	{fp}		; (str fp, [sp, #-4]!)
  207bd8:	e28db000 	add	fp, sp, #0
  207bdc:	e59f3010 	ldr	r3, [pc, #16]	; 207bf4 <buttons_get+0x20>
  207be0:	e1d330b0 	ldrh	r3, [r3]
  207be4:	e1a00003 	mov	r0, r3
  207be8:	e28bd000 	add	sp, fp, #0
  207bec:	e8bd0800 	pop	{fp}
  207bf0:	e12fff1e 	bx	lr
  207bf4:	0020c532 	.word	0x0020c532

00207bf8 <battery_voltage>:
  207bf8:	e52db004 	push	{fp}		; (str fp, [sp, #-4]!)
  207bfc:	e28db000 	add	fp, sp, #0
  207c00:	e24dd004 	sub	sp, sp, #4
  207c04:	e59f307c 	ldr	r3, [pc, #124]	; 207c88 <battery_voltage+0x90>
  207c08:	e5933000 	ldr	r3, [r3]
  207c0c:	e5d3200a 	ldrb	r2, [r3, #10]
  207c10:	e5d3300b 	ldrb	r3, [r3, #11]
  207c14:	e1a03403 	lsl	r3, r3, #8
  207c18:	e1833002 	orr	r3, r3, r2
  207c1c:	e1a03803 	lsl	r3, r3, #16
  207c20:	e1a03823 	lsr	r3, r3, #16
  207c24:	e50b3004 	str	r3, [fp, #-4]
  207c28:	e51b3004 	ldr	r3, [fp, #-4]
  207c2c:	e1a03b03 	lsl	r3, r3, #22
  207c30:	e1a03b23 	lsr	r3, r3, #22
  207c34:	e50b3004 	str	r3, [fp, #-4]
  207c38:	e51b2004 	ldr	r2, [fp, #-4]
  207c3c:	e1a03002 	mov	r3, r2
  207c40:	e1a03183 	lsl	r3, r3, #3
  207c44:	e0623003 	rsb	r3, r2, r3
  207c48:	e1a03203 	lsl	r3, r3, #4
  207c4c:	e0623003 	rsb	r3, r2, r3
  207c50:	e1a03103 	lsl	r3, r3, #2
  207c54:	e0623003 	rsb	r3, r2, r3
  207c58:	e1a03183 	lsl	r3, r3, #3
  207c5c:	e0833002 	add	r3, r3, r2
  207c60:	e1a03103 	lsl	r3, r3, #2
  207c64:	e50b3004 	str	r3, [fp, #-4]
  207c68:	e51b3004 	ldr	r3, [fp, #-4]
  207c6c:	e1a03523 	lsr	r3, r3, #10
  207c70:	e50b3004 	str	r3, [fp, #-4]
  207c74:	e51b3004 	ldr	r3, [fp, #-4]
  207c78:	e1a00003 	mov	r0, r3
  207c7c:	e28bd000 	add	sp, fp, #0
  207c80:	e8bd0800 	pop	{fp}
  207c84:	e12fff1e 	bx	lr
  207c88:	0020c528 	.word	0x0020c528

00207c8c <sensor_adc>:
  207c8c:	e52db004 	push	{fp}		; (str fp, [sp, #-4]!)
  207c90:	e28db000 	add	fp, sp, #0
  207c94:	e24dd004 	sub	sp, sp, #4
  207c98:	e50b0004 	str	r0, [fp, #-4]
  207c9c:	e51b3004 	ldr	r3, [fp, #-4]
  207ca0:	e3530003 	cmp	r3, #3
  207ca4:	8a00000d 	bhi	207ce0 <sensor_adc+0x54>
  207ca8:	e59f3044 	ldr	r3, [pc, #68]	; 207cf4 <sensor_adc+0x68>
  207cac:	e5933000 	ldr	r3, [r3]
  207cb0:	e51b2004 	ldr	r2, [fp, #-4]
  207cb4:	e7d31082 	ldrb	r1, [r3, r2, lsl #1]
  207cb8:	e3a00001 	mov	r0, #1
  207cbc:	e1a02082 	lsl	r2, r2, #1
  207cc0:	e0833002 	add	r3, r3, r2
  207cc4:	e0833000 	add	r3, r3, r0
  207cc8:	e5d33000 	ldrb	r3, [r3]
  207ccc:	e1a03403 	lsl	r3, r3, #8
  207cd0:	e1833001 	orr	r3, r3, r1
  207cd4:	e1a03803 	lsl	r3, r3, #16
  207cd8:	e1a03823 	lsr	r3, r3, #16
  207cdc:	ea000000 	b	207ce4 <sensor_adc+0x58>
  207ce0:	e3a03000 	mov	r3, #0
  207ce4:	e1a00003 	mov	r0, r3
  207ce8:	e28bd000 	add	sp, fp, #0
  207cec:	e8bd0800 	pop	{fp}
  207cf0:	e12fff1e 	bx	lr
  207cf4:	0020c528 	.word	0x0020c528

00207cf8 <nxt_avr_set_motor>:
  207cf8:	e52db004 	push	{fp}		; (str fp, [sp, #-4]!)
  207cfc:	e28db000 	add	fp, sp, #0
  207d00:	e24dd00c 	sub	sp, sp, #12
  207d04:	e50b0004 	str	r0, [fp, #-4]
  207d08:	e50b1008 	str	r1, [fp, #-8]
  207d0c:	e50b200c 	str	r2, [fp, #-12]
  207d10:	e51b3004 	ldr	r3, [fp, #-4]
  207d14:	e3530002 	cmp	r3, #2
  207d18:	8a000023 	bhi	207dac <nxt_avr_set_motor+0xb4>
  207d1c:	e51b3008 	ldr	r3, [fp, #-8]
  207d20:	e20320ff 	and	r2, r3, #255	; 0xff
  207d24:	e59f108c 	ldr	r1, [pc, #140]	; 207db8 <nxt_avr_set_motor+0xc0>
  207d28:	e51b3004 	ldr	r3, [fp, #-4]
  207d2c:	e0813003 	add	r3, r1, r3
  207d30:	e5c32002 	strb	r2, [r3, #2]
  207d34:	e51b300c 	ldr	r3, [fp, #-12]
  207d38:	e3530000 	cmp	r3, #0
  207d3c:	0a00000c 	beq	207d74 <nxt_avr_set_motor+0x7c>
  207d40:	e59f3070 	ldr	r3, [pc, #112]	; 207db8 <nxt_avr_set_motor+0xc0>
  207d44:	e5d33006 	ldrb	r3, [r3, #6]
  207d48:	e20320ff 	and	r2, r3, #255	; 0xff
  207d4c:	e51b3004 	ldr	r3, [fp, #-4]
  207d50:	e3a01001 	mov	r1, #1
  207d54:	e1a03311 	lsl	r3, r1, r3
  207d58:	e20330ff 	and	r3, r3, #255	; 0xff
  207d5c:	e1823003 	orr	r3, r2, r3
  207d60:	e20330ff 	and	r3, r3, #255	; 0xff
  207d64:	e20320ff 	and	r2, r3, #255	; 0xff
  207d68:	e59f3048 	ldr	r3, [pc, #72]	; 207db8 <nxt_avr_set_motor+0xc0>
  207d6c:	e5c32006 	strb	r2, [r3, #6]
  207d70:	ea00000d 	b	207dac <nxt_avr_set_motor+0xb4>
  207d74:	e59f303c 	ldr	r3, [pc, #60]	; 207db8 <nxt_avr_set_motor+0xc0>
  207d78:	e5d33006 	ldrb	r3, [r3, #6]
  207d7c:	e20320ff 	and	r2, r3, #255	; 0xff
  207d80:	e51b3004 	ldr	r3, [fp, #-4]
  207d84:	e3a01001 	mov	r1, #1
  207d88:	e1a03311 	lsl	r3, r1, r3
  207d8c:	e20330ff 	and	r3, r3, #255	; 0xff
  207d90:	e1e03003 	mvn	r3, r3
  207d94:	e20330ff 	and	r3, r3, #255	; 0xff
  207d98:	e0023003 	and	r3, r2, r3
  207d9c:	e20330ff 	and	r3, r3, #255	; 0xff
  207da0:	e20320ff 	and	r2, r3, #255	; 0xff
  207da4:	e59f300c 	ldr	r3, [pc, #12]	; 207db8 <nxt_avr_set_motor+0xc0>
  207da8:	e5c32006 	strb	r2, [r3, #6]
  207dac:	e28bd000 	add	sp, fp, #0
  207db0:	e8bd0800 	pop	{fp}
  207db4:	e12fff1e 	bx	lr
  207db8:	0020c4f8 	.word	0x0020c4f8

00207dbc <nxt_avr_set_input_power>:
  207dbc:	e52db004 	push	{fp}		; (str fp, [sp, #-4]!)
  207dc0:	e28db000 	add	fp, sp, #0
  207dc4:	e24dd00c 	sub	sp, sp, #12
  207dc8:	e50b0008 	str	r0, [fp, #-8]
  207dcc:	e50b100c 	str	r1, [fp, #-12]
  207dd0:	e51b3008 	ldr	r3, [fp, #-8]
  207dd4:	e3530003 	cmp	r3, #3
  207dd8:	8a000028 	bhi	207e80 <nxt_avr_set_input_power+0xc4>
  207ddc:	e51b300c 	ldr	r3, [fp, #-12]
  207de0:	e3530002 	cmp	r3, #2
  207de4:	8a000025 	bhi	207e80 <nxt_avr_set_input_power+0xc4>
  207de8:	e51b300c 	ldr	r3, [fp, #-12]
  207dec:	e2033002 	and	r3, r3, #2
  207df0:	e3530000 	cmp	r3, #0
  207df4:	0a000004 	beq	207e0c <nxt_avr_set_input_power+0x50>
  207df8:	e51b3008 	ldr	r3, [fp, #-8]
  207dfc:	e3a02010 	mov	r2, #16
  207e00:	e1a03312 	lsl	r3, r2, r3
  207e04:	e20330ff 	and	r3, r3, #255	; 0xff
  207e08:	ea000000 	b	207e10 <nxt_avr_set_input_power+0x54>
  207e0c:	e3a03000 	mov	r3, #0
  207e10:	e51b200c 	ldr	r2, [fp, #-12]
  207e14:	e2021001 	and	r1, r2, #1
  207e18:	e51b2008 	ldr	r2, [fp, #-8]
  207e1c:	e1a02211 	lsl	r2, r1, r2
  207e20:	e20220ff 	and	r2, r2, #255	; 0xff
  207e24:	e1833002 	orr	r3, r3, r2
  207e28:	e54b3001 	strb	r3, [fp, #-1]
  207e2c:	e59f3058 	ldr	r3, [pc, #88]	; 207e8c <nxt_avr_set_input_power+0xd0>
  207e30:	e5d33007 	ldrb	r3, [r3, #7]
  207e34:	e20320ff 	and	r2, r3, #255	; 0xff
  207e38:	e51b3008 	ldr	r3, [fp, #-8]
  207e3c:	e3a01011 	mov	r1, #17
  207e40:	e1a03311 	lsl	r3, r1, r3
  207e44:	e20330ff 	and	r3, r3, #255	; 0xff
  207e48:	e1e03003 	mvn	r3, r3
  207e4c:	e20330ff 	and	r3, r3, #255	; 0xff
  207e50:	e0023003 	and	r3, r2, r3
  207e54:	e20330ff 	and	r3, r3, #255	; 0xff
  207e58:	e20320ff 	and	r2, r3, #255	; 0xff
  207e5c:	e59f3028 	ldr	r3, [pc, #40]	; 207e8c <nxt_avr_set_input_power+0xd0>
  207e60:	e5c32007 	strb	r2, [r3, #7]
  207e64:	e59f3020 	ldr	r3, [pc, #32]	; 207e8c <nxt_avr_set_input_power+0xd0>
  207e68:	e5d32007 	ldrb	r2, [r3, #7]
  207e6c:	e55b3001 	ldrb	r3, [fp, #-1]
  207e70:	e1823003 	orr	r3, r2, r3
  207e74:	e20320ff 	and	r2, r3, #255	; 0xff
  207e78:	e59f300c 	ldr	r3, [pc, #12]	; 207e8c <nxt_avr_set_input_power+0xd0>
  207e7c:	e5c32007 	strb	r2, [r3, #7]
  207e80:	e28bd000 	add	sp, fp, #0
  207e84:	e8bd0800 	pop	{fp}
  207e88:	e12fff1e 	bx	lr
  207e8c:	0020c4f8 	.word	0x0020c4f8

00207e90 <i2c_timer_isr_C_function>:
  207e90:	e52db004 	push	{fp}		; (str fp, [sp, #-4]!)
  207e94:	e28db000 	add	fp, sp, #0
  207e98:	e24dd024 	sub	sp, sp, #36	; 0x24
  207e9c:	e3a03000 	mov	r3, #0
  207ea0:	e50b3008 	str	r3, [fp, #-8]
  207ea4:	e3a03000 	mov	r3, #0
  207ea8:	e50b300c 	str	r3, [fp, #-12]
  207eac:	e3a03000 	mov	r3, #0
  207eb0:	e50b3010 	str	r3, [fp, #-16]
  207eb4:	e3a03000 	mov	r3, #0
  207eb8:	e50b3014 	str	r3, [fp, #-20]
  207ebc:	e3e03d2f 	mvn	r3, #3008	; 0xbc0
  207ec0:	e2433003 	sub	r3, r3, #3
  207ec4:	e5933000 	ldr	r3, [r3]
  207ec8:	e50b301c 	str	r3, [fp, #-28]
  207ecc:	e59f3948 	ldr	r3, [pc, #2376]	; 20881c <i2c_timer_isr_C_function+0x98c>
  207ed0:	e50b3018 	str	r3, [fp, #-24]
  207ed4:	e3a034ff 	mov	r3, #-16777216	; 0xff000000
  207ed8:	e28338fa 	add	r3, r3, #16384000	; 0xfa0000
  207edc:	e2833020 	add	r3, r3, #32
  207ee0:	e5933000 	ldr	r3, [r3]
  207ee4:	e50b3020 	str	r3, [fp, #-32]
  207ee8:	e59f3930 	ldr	r3, [pc, #2352]	; 208820 <i2c_timer_isr_C_function+0x990>
  207eec:	e5933000 	ldr	r3, [r3]
  207ef0:	e2832001 	add	r2, r3, #1
  207ef4:	e59f3924 	ldr	r3, [pc, #2340]	; 208820 <i2c_timer_isr_C_function+0x990>
  207ef8:	e5832000 	str	r2, [r3]
  207efc:	e3a03000 	mov	r3, #0
  207f00:	e50b3004 	str	r3, [fp, #-4]
  207f04:	ea000222 	b	208794 <i2c_timer_isr_C_function+0x904>
  207f08:	e51b3018 	ldr	r3, [fp, #-24]
  207f0c:	e5933028 	ldr	r3, [r3, #40]	; 0x28
  207f10:	e2433001 	sub	r3, r3, #1
  207f14:	e353000e 	cmp	r3, #14
  207f18:	979ff103 	ldrls	pc, [pc, r3, lsl #2]
  207f1c:	ea000213 	b	208770 <i2c_timer_isr_C_function+0x8e0>
  207f20:	00208770 	.word	0x00208770
  207f24:	00207f5c 	.word	0x00207f5c
  207f28:	00208130 	.word	0x00208130
  207f2c:	00208154 	.word	0x00208154
  207f30:	00208178 	.word	0x00208178
  207f34:	002081fc 	.word	0x002081fc
  207f38:	002081d8 	.word	0x002081d8
  207f3c:	00208220 	.word	0x00208220
  207f40:	00208464 	.word	0x00208464
  207f44:	00208488 	.word	0x00208488
  207f48:	002084b0 	.word	0x002084b0
  207f4c:	0020868c 	.word	0x0020868c
  207f50:	002086c4 	.word	0x002086c4
  207f54:	002086e8 	.word	0x002086e8
  207f58:	0020870c 	.word	0x0020870c
  207f5c:	e51b3018 	ldr	r3, [fp, #-24]
  207f60:	e5932058 	ldr	r2, [r3, #88]	; 0x58
  207f64:	e51b3018 	ldr	r3, [fp, #-24]
  207f68:	e5933054 	ldr	r3, [r3, #84]	; 0x54
  207f6c:	e3a01001 	mov	r1, #1
  207f70:	e1a03311 	lsl	r3, r1, r3
  207f74:	e1822003 	orr	r2, r2, r3
  207f78:	e51b3018 	ldr	r3, [fp, #-24]
  207f7c:	e5832058 	str	r2, [r3, #88]	; 0x58
  207f80:	e51b3018 	ldr	r3, [fp, #-24]
  207f84:	e5933004 	ldr	r3, [r3, #4]
  207f88:	e51b2010 	ldr	r2, [fp, #-16]
  207f8c:	e1823003 	orr	r3, r2, r3
  207f90:	e50b3010 	str	r3, [fp, #-16]
  207f94:	e51b3018 	ldr	r3, [fp, #-24]
  207f98:	e5933000 	ldr	r3, [r3]
  207f9c:	e51b2010 	ldr	r2, [fp, #-16]
  207fa0:	e1823003 	orr	r3, r2, r3
  207fa4:	e50b3010 	str	r3, [fp, #-16]
  207fa8:	e51b3018 	ldr	r3, [fp, #-24]
  207fac:	e5933024 	ldr	r3, [r3, #36]	; 0x24
  207fb0:	e3530000 	cmp	r3, #0
  207fb4:	0a000059 	beq	208120 <i2c_timer_isr_C_function+0x290>
  207fb8:	e51b3018 	ldr	r3, [fp, #-24]
  207fbc:	e5933024 	ldr	r3, [r3, #36]	; 0x24
  207fc0:	e1d330b2 	ldrh	r3, [r3, #2]
  207fc4:	e3530000 	cmp	r3, #0
  207fc8:	0a000054 	beq	208120 <i2c_timer_isr_C_function+0x290>
  207fcc:	e51b3018 	ldr	r3, [fp, #-24]
  207fd0:	e5933024 	ldr	r3, [r3, #36]	; 0x24
  207fd4:	e5932004 	ldr	r2, [r3, #4]
  207fd8:	e51b3018 	ldr	r3, [fp, #-24]
  207fdc:	e5832038 	str	r2, [r3, #56]	; 0x38
  207fe0:	e51b3018 	ldr	r3, [fp, #-24]
  207fe4:	e5933024 	ldr	r3, [r3, #36]	; 0x24
  207fe8:	e1d330b2 	ldrh	r3, [r3, #2]
  207fec:	e1a03183 	lsl	r3, r3, #3
  207ff0:	e1a02003 	mov	r2, r3
  207ff4:	e51b3018 	ldr	r3, [fp, #-24]
  207ff8:	e583202c 	str	r2, [r3, #44]	; 0x2c
  207ffc:	e51b3018 	ldr	r3, [fp, #-24]
  208000:	e5933024 	ldr	r3, [r3, #36]	; 0x24
  208004:	e5d33000 	ldrb	r3, [r3]
  208008:	e1a031a3 	lsr	r3, r3, #3
  20800c:	e2033001 	and	r3, r3, #1
  208010:	e20330ff 	and	r3, r3, #255	; 0xff
  208014:	e1a02003 	mov	r2, r3
  208018:	e51b3018 	ldr	r3, [fp, #-24]
  20801c:	e583203c 	str	r2, [r3, #60]	; 0x3c
  208020:	e51b3018 	ldr	r3, [fp, #-24]
  208024:	e3a02000 	mov	r2, #0
  208028:	e5832030 	str	r2, [r3, #48]	; 0x30
  20802c:	e51b3018 	ldr	r3, [fp, #-24]
  208030:	e3a02000 	mov	r2, #0
  208034:	e5832034 	str	r2, [r3, #52]	; 0x34
  208038:	e51b3018 	ldr	r3, [fp, #-24]
  20803c:	e3a02000 	mov	r2, #0
  208040:	e5832040 	str	r2, [r3, #64]	; 0x40
  208044:	e51b3018 	ldr	r3, [fp, #-24]
  208048:	e593303c 	ldr	r3, [r3, #60]	; 0x3c
  20804c:	e3530000 	cmp	r3, #0
  208050:	1a000003 	bne	208064 <i2c_timer_isr_C_function+0x1d4>
  208054:	e51b3018 	ldr	r3, [fp, #-24]
  208058:	e5933038 	ldr	r3, [r3, #56]	; 0x38
  20805c:	e3a02000 	mov	r2, #0
  208060:	e5c32000 	strb	r2, [r3]
  208064:	e51b3018 	ldr	r3, [fp, #-24]
  208068:	e5933024 	ldr	r3, [r3, #36]	; 0x24
  20806c:	e5d33000 	ldrb	r3, [r3]
  208070:	e2033002 	and	r3, r3, #2
  208074:	e20330ff 	and	r3, r3, #255	; 0xff
  208078:	e3530000 	cmp	r3, #0
  20807c:	0a00000d 	beq	2080b8 <i2c_timer_isr_C_function+0x228>
  208080:	e51b3018 	ldr	r3, [fp, #-24]
  208084:	e5933000 	ldr	r3, [r3]
  208088:	e51b200c 	ldr	r2, [fp, #-12]
  20808c:	e1823003 	orr	r3, r2, r3
  208090:	e50b300c 	str	r3, [fp, #-12]
  208094:	e51b3018 	ldr	r3, [fp, #-24]
  208098:	e5933004 	ldr	r3, [r3, #4]
  20809c:	e51b200c 	ldr	r2, [fp, #-12]
  2080a0:	e1823003 	orr	r3, r2, r3
  2080a4:	e50b300c 	str	r3, [fp, #-12]
  2080a8:	e51b3018 	ldr	r3, [fp, #-24]
  2080ac:	e3a02003 	mov	r2, #3
  2080b0:	e5832028 	str	r2, [r3, #40]	; 0x28
  2080b4:	ea000017 	b	208118 <i2c_timer_isr_C_function+0x288>
  2080b8:	e51b3018 	ldr	r3, [fp, #-24]
  2080bc:	e5933024 	ldr	r3, [r3, #36]	; 0x24
  2080c0:	e5d33000 	ldrb	r3, [r3]
  2080c4:	e2033001 	and	r3, r3, #1
  2080c8:	e20330ff 	and	r3, r3, #255	; 0xff
  2080cc:	e3530000 	cmp	r3, #0
  2080d0:	0a000008 	beq	2080f8 <i2c_timer_isr_C_function+0x268>
  2080d4:	e51b3018 	ldr	r3, [fp, #-24]
  2080d8:	e5933004 	ldr	r3, [r3, #4]
  2080dc:	e51b200c 	ldr	r2, [fp, #-12]
  2080e0:	e1823003 	orr	r3, r2, r3
  2080e4:	e50b300c 	str	r3, [fp, #-12]
  2080e8:	e51b3018 	ldr	r3, [fp, #-24]
  2080ec:	e3a02004 	mov	r2, #4
  2080f0:	e5832028 	str	r2, [r3, #40]	; 0x28
  2080f4:	ea000007 	b	208118 <i2c_timer_isr_C_function+0x288>
  2080f8:	e51b3018 	ldr	r3, [fp, #-24]
  2080fc:	e5933000 	ldr	r3, [r3]
  208100:	e51b2008 	ldr	r2, [fp, #-8]
  208104:	e1823003 	orr	r3, r2, r3
  208108:	e50b3008 	str	r3, [fp, #-8]
  20810c:	e51b3018 	ldr	r3, [fp, #-24]
  208110:	e3a02008 	mov	r2, #8
  208114:	e5832028 	str	r2, [r3, #40]	; 0x28
  208118:	e1a00000 	nop			; (mov r0, r0)
  20811c:	ea000196 	b	20877c <i2c_timer_isr_C_function+0x8ec>
  208120:	e51b3018 	ldr	r3, [fp, #-24]
  208124:	e3a02001 	mov	r2, #1
  208128:	e5832028 	str	r2, [r3, #40]	; 0x28
  20812c:	ea000192 	b	20877c <i2c_timer_isr_C_function+0x8ec>
  208130:	e51b3018 	ldr	r3, [fp, #-24]
  208134:	e5933000 	ldr	r3, [r3]
  208138:	e51b2008 	ldr	r2, [fp, #-8]
  20813c:	e1823003 	orr	r3, r2, r3
  208140:	e50b3008 	str	r3, [fp, #-8]
  208144:	e51b3018 	ldr	r3, [fp, #-24]
  208148:	e3a02004 	mov	r2, #4
  20814c:	e5832028 	str	r2, [r3, #40]	; 0x28
  208150:	ea000189 	b	20877c <i2c_timer_isr_C_function+0x8ec>
  208154:	e51b3018 	ldr	r3, [fp, #-24]
  208158:	e5933000 	ldr	r3, [r3]
  20815c:	e51b200c 	ldr	r2, [fp, #-12]
  208160:	e1823003 	orr	r3, r2, r3
  208164:	e50b300c 	str	r3, [fp, #-12]
  208168:	e51b3018 	ldr	r3, [fp, #-24]
  20816c:	e3a02005 	mov	r2, #5
  208170:	e5832028 	str	r2, [r3, #40]	; 0x28
  208174:	ea000180 	b	20877c <i2c_timer_isr_C_function+0x8ec>
  208178:	e51b3018 	ldr	r3, [fp, #-24]
  20817c:	e5932004 	ldr	r2, [r3, #4]
  208180:	e51b301c 	ldr	r3, [fp, #-28]
  208184:	e0023003 	and	r3, r2, r3
  208188:	e3530000 	cmp	r3, #0
  20818c:	0a000008 	beq	2081b4 <i2c_timer_isr_C_function+0x324>
  208190:	e51b3018 	ldr	r3, [fp, #-24]
  208194:	e5933004 	ldr	r3, [r3, #4]
  208198:	e51b2008 	ldr	r2, [fp, #-8]
  20819c:	e1823003 	orr	r3, r2, r3
  2081a0:	e50b3008 	str	r3, [fp, #-8]
  2081a4:	e51b3018 	ldr	r3, [fp, #-24]
  2081a8:	e3a02006 	mov	r2, #6
  2081ac:	e5832028 	str	r2, [r3, #40]	; 0x28
  2081b0:	ea000171 	b	20877c <i2c_timer_isr_C_function+0x8ec>
  2081b4:	e51b3018 	ldr	r3, [fp, #-24]
  2081b8:	e5933000 	ldr	r3, [r3]
  2081bc:	e51b2008 	ldr	r2, [fp, #-8]
  2081c0:	e1823003 	orr	r3, r2, r3
  2081c4:	e50b3008 	str	r3, [fp, #-8]
  2081c8:	e51b3018 	ldr	r3, [fp, #-24]
  2081cc:	e3a02007 	mov	r2, #7
  2081d0:	e5832028 	str	r2, [r3, #40]	; 0x28
  2081d4:	ea000168 	b	20877c <i2c_timer_isr_C_function+0x8ec>
  2081d8:	e51b3018 	ldr	r3, [fp, #-24]
  2081dc:	e5933000 	ldr	r3, [r3]
  2081e0:	e51b2008 	ldr	r2, [fp, #-8]
  2081e4:	e1823003 	orr	r3, r2, r3
  2081e8:	e50b3008 	str	r3, [fp, #-8]
  2081ec:	e51b3018 	ldr	r3, [fp, #-24]
  2081f0:	e3a02004 	mov	r2, #4
  2081f4:	e5832028 	str	r2, [r3, #40]	; 0x28
  2081f8:	ea00015f 	b	20877c <i2c_timer_isr_C_function+0x8ec>
  2081fc:	e51b3018 	ldr	r3, [fp, #-24]
  208200:	e5933000 	ldr	r3, [r3]
  208204:	e51b2008 	ldr	r2, [fp, #-8]
  208208:	e1823003 	orr	r3, r2, r3
  20820c:	e50b3008 	str	r3, [fp, #-8]
  208210:	e51b3018 	ldr	r3, [fp, #-24]
  208214:	e3a02008 	mov	r2, #8
  208218:	e5832028 	str	r2, [r3, #40]	; 0x28
  20821c:	ea000156 	b	20877c <i2c_timer_isr_C_function+0x8ec>
  208220:	e51b3018 	ldr	r3, [fp, #-24]
  208224:	e5933034 	ldr	r3, [r3, #52]	; 0x34
  208228:	e3530000 	cmp	r3, #0
  20822c:	0a000006 	beq	20824c <i2c_timer_isr_C_function+0x3bc>
  208230:	e51b3018 	ldr	r3, [fp, #-24]
  208234:	e3a02001 	mov	r2, #1
  208238:	e5832030 	str	r2, [r3, #48]	; 0x30
  20823c:	e51b3018 	ldr	r3, [fp, #-24]
  208240:	e3a02000 	mov	r2, #0
  208244:	e5832034 	str	r2, [r3, #52]	; 0x34
  208248:	ea000002 	b	208258 <i2c_timer_isr_C_function+0x3c8>
  20824c:	e51b3018 	ldr	r3, [fp, #-24]
  208250:	e3a02000 	mov	r2, #0
  208254:	e5832030 	str	r2, [r3, #48]	; 0x30
  208258:	e51b3018 	ldr	r3, [fp, #-24]
  20825c:	e593302c 	ldr	r3, [r3, #44]	; 0x2c
  208260:	e3530000 	cmp	r3, #0
  208264:	1a000003 	bne	208278 <i2c_timer_isr_C_function+0x3e8>
  208268:	e51b3018 	ldr	r3, [fp, #-24]
  20826c:	e5933030 	ldr	r3, [r3, #48]	; 0x30
  208270:	e3530000 	cmp	r3, #0
  208274:	0a00005c 	beq	2083ec <i2c_timer_isr_C_function+0x55c>
  208278:	e51b3018 	ldr	r3, [fp, #-24]
  20827c:	e5933030 	ldr	r3, [r3, #48]	; 0x30
  208280:	e3530000 	cmp	r3, #0
  208284:	0a000014 	beq	2082dc <i2c_timer_isr_C_function+0x44c>
  208288:	e51b3018 	ldr	r3, [fp, #-24]
  20828c:	e593303c 	ldr	r3, [r3, #60]	; 0x3c
  208290:	e3530000 	cmp	r3, #0
  208294:	0a000005 	beq	2082b0 <i2c_timer_isr_C_function+0x420>
  208298:	e51b3018 	ldr	r3, [fp, #-24]
  20829c:	e5933004 	ldr	r3, [r3, #4]
  2082a0:	e51b2014 	ldr	r2, [fp, #-20]
  2082a4:	e1823003 	orr	r3, r2, r3
  2082a8:	e50b3014 	str	r3, [fp, #-20]
  2082ac:	ea00004a 	b	2083dc <i2c_timer_isr_C_function+0x54c>
  2082b0:	e51b3018 	ldr	r3, [fp, #-24]
  2082b4:	e5933004 	ldr	r3, [r3, #4]
  2082b8:	e51b2010 	ldr	r2, [fp, #-16]
  2082bc:	e1823003 	orr	r3, r2, r3
  2082c0:	e50b3010 	str	r3, [fp, #-16]
  2082c4:	e51b3018 	ldr	r3, [fp, #-24]
  2082c8:	e5933004 	ldr	r3, [r3, #4]
  2082cc:	e51b2008 	ldr	r2, [fp, #-8]
  2082d0:	e1823003 	orr	r3, r2, r3
  2082d4:	e50b3008 	str	r3, [fp, #-8]
  2082d8:	ea00003f 	b	2083dc <i2c_timer_isr_C_function+0x54c>
  2082dc:	e51b3018 	ldr	r3, [fp, #-24]
  2082e0:	e593303c 	ldr	r3, [r3, #60]	; 0x3c
  2082e4:	e3530000 	cmp	r3, #0
  2082e8:	1a000005 	bne	208304 <i2c_timer_isr_C_function+0x474>
  2082ec:	e51b3018 	ldr	r3, [fp, #-24]
  2082f0:	e5933004 	ldr	r3, [r3, #4]
  2082f4:	e51b2014 	ldr	r2, [fp, #-20]
  2082f8:	e1823003 	orr	r3, r2, r3
  2082fc:	e50b3014 	str	r3, [fp, #-20]
  208300:	ea000035 	b	2083dc <i2c_timer_isr_C_function+0x54c>
  208304:	e51b3018 	ldr	r3, [fp, #-24]
  208308:	e5933004 	ldr	r3, [r3, #4]
  20830c:	e51b2010 	ldr	r2, [fp, #-16]
  208310:	e1823003 	orr	r3, r2, r3
  208314:	e50b3010 	str	r3, [fp, #-16]
  208318:	e51b3018 	ldr	r3, [fp, #-24]
  20831c:	e593302c 	ldr	r3, [r3, #44]	; 0x2c
  208320:	e2432001 	sub	r2, r3, #1
  208324:	e51b3018 	ldr	r3, [fp, #-24]
  208328:	e583202c 	str	r2, [r3, #44]	; 0x2c
  20832c:	e51b3018 	ldr	r3, [fp, #-24]
  208330:	e5933038 	ldr	r3, [r3, #56]	; 0x38
  208334:	e5d33000 	ldrb	r3, [r3]
  208338:	e1a02003 	mov	r2, r3
  20833c:	e51b3018 	ldr	r3, [fp, #-24]
  208340:	e593302c 	ldr	r3, [r3, #44]	; 0x2c
  208344:	e2033007 	and	r3, r3, #7
  208348:	e1a03352 	asr	r3, r2, r3
  20834c:	e2033001 	and	r3, r3, #1
  208350:	e20330ff 	and	r3, r3, #255	; 0xff
  208354:	e3530000 	cmp	r3, #0
  208358:	0a000005 	beq	208374 <i2c_timer_isr_C_function+0x4e4>
  20835c:	e51b3018 	ldr	r3, [fp, #-24]
  208360:	e5933004 	ldr	r3, [r3, #4]
  208364:	e51b200c 	ldr	r2, [fp, #-12]
  208368:	e1823003 	orr	r3, r2, r3
  20836c:	e50b300c 	str	r3, [fp, #-12]
  208370:	ea000004 	b	208388 <i2c_timer_isr_C_function+0x4f8>
  208374:	e51b3018 	ldr	r3, [fp, #-24]
  208378:	e5933004 	ldr	r3, [r3, #4]
  20837c:	e51b2008 	ldr	r2, [fp, #-8]
  208380:	e1823003 	orr	r3, r2, r3
  208384:	e50b3008 	str	r3, [fp, #-8]
  208388:	e51b3018 	ldr	r3, [fp, #-24]
  20838c:	e593302c 	ldr	r3, [r3, #44]	; 0x2c
  208390:	e2033007 	and	r3, r3, #7
  208394:	e3530000 	cmp	r3, #0
  208398:	1a00000f 	bne	2083dc <i2c_timer_isr_C_function+0x54c>
  20839c:	e51b3018 	ldr	r3, [fp, #-24]
  2083a0:	e5933038 	ldr	r3, [r3, #56]	; 0x38
  2083a4:	e2832001 	add	r2, r3, #1
  2083a8:	e51b3018 	ldr	r3, [fp, #-24]
  2083ac:	e5832038 	str	r2, [r3, #56]	; 0x38
  2083b0:	e51b3018 	ldr	r3, [fp, #-24]
  2083b4:	e593302c 	ldr	r3, [r3, #44]	; 0x2c
  2083b8:	e3530000 	cmp	r3, #0
  2083bc:	1a000003 	bne	2083d0 <i2c_timer_isr_C_function+0x540>
  2083c0:	e51b3018 	ldr	r3, [fp, #-24]
  2083c4:	e593303c 	ldr	r3, [r3, #60]	; 0x3c
  2083c8:	e3530000 	cmp	r3, #0
  2083cc:	0a000002 	beq	2083dc <i2c_timer_isr_C_function+0x54c>
  2083d0:	e51b3018 	ldr	r3, [fp, #-24]
  2083d4:	e3a02001 	mov	r2, #1
  2083d8:	e5832034 	str	r2, [r3, #52]	; 0x34
  2083dc:	e51b3018 	ldr	r3, [fp, #-24]
  2083e0:	e3a02009 	mov	r2, #9
  2083e4:	e5832028 	str	r2, [r3, #40]	; 0x28
  2083e8:	ea0000e3 	b	20877c <i2c_timer_isr_C_function+0x8ec>
  2083ec:	e51b3018 	ldr	r3, [fp, #-24]
  2083f0:	e5933024 	ldr	r3, [r3, #36]	; 0x24
  2083f4:	e5d33000 	ldrb	r3, [r3]
  2083f8:	e2033004 	and	r3, r3, #4
  2083fc:	e20330ff 	and	r3, r3, #255	; 0xff
  208400:	e3530000 	cmp	r3, #0
  208404:	0a000003 	beq	208418 <i2c_timer_isr_C_function+0x588>
  208408:	e51b3018 	ldr	r3, [fp, #-24]
  20840c:	e3a0200c 	mov	r2, #12
  208410:	e5832028 	str	r2, [r3, #40]	; 0x28
  208414:	ea0000d8 	b	20877c <i2c_timer_isr_C_function+0x8ec>
  208418:	e51b3018 	ldr	r3, [fp, #-24]
  20841c:	e5933024 	ldr	r3, [r3, #36]	; 0x24
  208420:	e2832008 	add	r2, r3, #8
  208424:	e51b3018 	ldr	r3, [fp, #-24]
  208428:	e5832024 	str	r2, [r3, #36]	; 0x24
  20842c:	e51b3018 	ldr	r3, [fp, #-24]
  208430:	e5933054 	ldr	r3, [r3, #84]	; 0x54
  208434:	e2832001 	add	r2, r3, #1
  208438:	e51b3018 	ldr	r3, [fp, #-24]
  20843c:	e5832054 	str	r2, [r3, #84]	; 0x54
  208440:	e51b3018 	ldr	r3, [fp, #-24]
  208444:	e5933004 	ldr	r3, [r3, #4]
  208448:	e51b200c 	ldr	r2, [fp, #-12]
  20844c:	e1823003 	orr	r3, r2, r3
  208450:	e50b300c 	str	r3, [fp, #-12]
  208454:	e51b3018 	ldr	r3, [fp, #-24]
  208458:	e3a02002 	mov	r2, #2
  20845c:	e5832028 	str	r2, [r3, #40]	; 0x28
  208460:	ea0000c5 	b	20877c <i2c_timer_isr_C_function+0x8ec>
  208464:	e51b3018 	ldr	r3, [fp, #-24]
  208468:	e5933000 	ldr	r3, [r3]
  20846c:	e51b200c 	ldr	r2, [fp, #-12]
  208470:	e1823003 	orr	r3, r2, r3
  208474:	e50b300c 	str	r3, [fp, #-12]
  208478:	e51b3018 	ldr	r3, [fp, #-24]
  20847c:	e3a0200a 	mov	r2, #10
  208480:	e5832028 	str	r2, [r3, #40]	; 0x28
  208484:	ea0000bc 	b	20877c <i2c_timer_isr_C_function+0x8ec>
  208488:	e51b3018 	ldr	r3, [fp, #-24]
  20848c:	e5932000 	ldr	r2, [r3]
  208490:	e51b301c 	ldr	r3, [fp, #-28]
  208494:	e0023003 	and	r3, r2, r3
  208498:	e3530000 	cmp	r3, #0
  20849c:	0a0000b5 	beq	208778 <i2c_timer_isr_C_function+0x8e8>
  2084a0:	e51b3018 	ldr	r3, [fp, #-24]
  2084a4:	e3a0200b 	mov	r2, #11
  2084a8:	e5832028 	str	r2, [r3, #40]	; 0x28
  2084ac:	ea0000b2 	b	20877c <i2c_timer_isr_C_function+0x8ec>
  2084b0:	e51b3018 	ldr	r3, [fp, #-24]
  2084b4:	e593303c 	ldr	r3, [r3, #60]	; 0x3c
  2084b8:	e3530000 	cmp	r3, #0
  2084bc:	0a00002e 	beq	20857c <i2c_timer_isr_C_function+0x6ec>
  2084c0:	e51b3018 	ldr	r3, [fp, #-24]
  2084c4:	e5933030 	ldr	r3, [r3, #48]	; 0x30
  2084c8:	e3530000 	cmp	r3, #0
  2084cc:	0a00002a 	beq	20857c <i2c_timer_isr_C_function+0x6ec>
  2084d0:	e51b3018 	ldr	r3, [fp, #-24]
  2084d4:	e5932004 	ldr	r2, [r3, #4]
  2084d8:	e51b301c 	ldr	r3, [fp, #-28]
  2084dc:	e0023003 	and	r3, r2, r3
  2084e0:	e3530000 	cmp	r3, #0
  2084e4:	0a000015 	beq	208540 <i2c_timer_isr_C_function+0x6b0>
  2084e8:	e51b3018 	ldr	r3, [fp, #-24]
  2084ec:	e5933044 	ldr	r3, [r3, #68]	; 0x44
  2084f0:	e2832001 	add	r2, r3, #1
  2084f4:	e51b3018 	ldr	r3, [fp, #-24]
  2084f8:	e5832044 	str	r2, [r3, #68]	; 0x44
  2084fc:	e51b3018 	ldr	r3, [fp, #-24]
  208500:	e593304c 	ldr	r3, [r3, #76]	; 0x4c
  208504:	e2832001 	add	r2, r3, #1
  208508:	e51b3018 	ldr	r3, [fp, #-24]
  20850c:	e583204c 	str	r2, [r3, #76]	; 0x4c
  208510:	e51b3018 	ldr	r3, [fp, #-24]
  208514:	e3a02001 	mov	r2, #1
  208518:	e5832040 	str	r2, [r3, #64]	; 0x40
  20851c:	e51b3018 	ldr	r3, [fp, #-24]
  208520:	e5933000 	ldr	r3, [r3]
  208524:	e51b2008 	ldr	r2, [fp, #-8]
  208528:	e1823003 	orr	r3, r2, r3
  20852c:	e50b3008 	str	r3, [fp, #-8]
  208530:	e51b3018 	ldr	r3, [fp, #-24]
  208534:	e3a0200c 	mov	r2, #12
  208538:	e5832028 	str	r2, [r3, #40]	; 0x28
  20853c:	ea00000c 	b	208574 <i2c_timer_isr_C_function+0x6e4>
  208540:	e51b3018 	ldr	r3, [fp, #-24]
  208544:	e5933050 	ldr	r3, [r3, #80]	; 0x50
  208548:	e2832001 	add	r2, r3, #1
  20854c:	e51b3018 	ldr	r3, [fp, #-24]
  208550:	e5832050 	str	r2, [r3, #80]	; 0x50
  208554:	e51b3018 	ldr	r3, [fp, #-24]
  208558:	e5933000 	ldr	r3, [r3]
  20855c:	e51b2008 	ldr	r2, [fp, #-8]
  208560:	e1823003 	orr	r3, r2, r3
  208564:	e50b3008 	str	r3, [fp, #-8]
  208568:	e51b3018 	ldr	r3, [fp, #-24]
  20856c:	e3a02008 	mov	r2, #8
  208570:	e5832028 	str	r2, [r3, #40]	; 0x28
  208574:	e1a00000 	nop			; (mov r0, r0)
  208578:	ea00007f 	b	20877c <i2c_timer_isr_C_function+0x8ec>
  20857c:	e51b3018 	ldr	r3, [fp, #-24]
  208580:	e593303c 	ldr	r3, [r3, #60]	; 0x3c
  208584:	e3530000 	cmp	r3, #0
  208588:	1a000036 	bne	208668 <i2c_timer_isr_C_function+0x7d8>
  20858c:	e51b3018 	ldr	r3, [fp, #-24]
  208590:	e5933030 	ldr	r3, [r3, #48]	; 0x30
  208594:	e3530000 	cmp	r3, #0
  208598:	1a000032 	bne	208668 <i2c_timer_isr_C_function+0x7d8>
  20859c:	e51b3018 	ldr	r3, [fp, #-24]
  2085a0:	e5933038 	ldr	r3, [r3, #56]	; 0x38
  2085a4:	e50b3024 	str	r3, [fp, #-36]	; 0x24
  2085a8:	e51b3018 	ldr	r3, [fp, #-24]
  2085ac:	e593302c 	ldr	r3, [r3, #44]	; 0x2c
  2085b0:	e2432001 	sub	r2, r3, #1
  2085b4:	e51b3018 	ldr	r3, [fp, #-24]
  2085b8:	e583202c 	str	r2, [r3, #44]	; 0x2c
  2085bc:	e51b3018 	ldr	r3, [fp, #-24]
  2085c0:	e5932004 	ldr	r2, [r3, #4]
  2085c4:	e51b301c 	ldr	r3, [fp, #-28]
  2085c8:	e0023003 	and	r3, r2, r3
  2085cc:	e3530000 	cmp	r3, #0
  2085d0:	0a00000d 	beq	20860c <i2c_timer_isr_C_function+0x77c>
  2085d4:	e51b3024 	ldr	r3, [fp, #-36]	; 0x24
  2085d8:	e5d33000 	ldrb	r3, [r3]
  2085dc:	e20320ff 	and	r2, r3, #255	; 0xff
  2085e0:	e51b3018 	ldr	r3, [fp, #-24]
  2085e4:	e593302c 	ldr	r3, [r3, #44]	; 0x2c
  2085e8:	e2033007 	and	r3, r3, #7
  2085ec:	e3a01001 	mov	r1, #1
  2085f0:	e1a03311 	lsl	r3, r1, r3
  2085f4:	e20330ff 	and	r3, r3, #255	; 0xff
  2085f8:	e1823003 	orr	r3, r2, r3
  2085fc:	e20330ff 	and	r3, r3, #255	; 0xff
  208600:	e20320ff 	and	r2, r3, #255	; 0xff
  208604:	e51b3024 	ldr	r3, [fp, #-36]	; 0x24
  208608:	e5c32000 	strb	r2, [r3]
  20860c:	e51b3018 	ldr	r3, [fp, #-24]
  208610:	e593302c 	ldr	r3, [r3, #44]	; 0x2c
  208614:	e3530000 	cmp	r3, #0
  208618:	0a000012 	beq	208668 <i2c_timer_isr_C_function+0x7d8>
  20861c:	e51b3018 	ldr	r3, [fp, #-24]
  208620:	e593302c 	ldr	r3, [r3, #44]	; 0x2c
  208624:	e2033007 	and	r3, r3, #7
  208628:	e3530000 	cmp	r3, #0
  20862c:	1a00000d 	bne	208668 <i2c_timer_isr_C_function+0x7d8>
  208630:	e51b3018 	ldr	r3, [fp, #-24]
  208634:	e5933038 	ldr	r3, [r3, #56]	; 0x38
  208638:	e2832001 	add	r2, r3, #1
  20863c:	e51b3018 	ldr	r3, [fp, #-24]
  208640:	e5832038 	str	r2, [r3, #56]	; 0x38
  208644:	e51b3018 	ldr	r3, [fp, #-24]
  208648:	e5933038 	ldr	r3, [r3, #56]	; 0x38
  20864c:	e50b3024 	str	r3, [fp, #-36]	; 0x24
  208650:	e51b3018 	ldr	r3, [fp, #-24]
  208654:	e3a02001 	mov	r2, #1
  208658:	e5832034 	str	r2, [r3, #52]	; 0x34
  20865c:	e51b3024 	ldr	r3, [fp, #-36]	; 0x24
  208660:	e3a02000 	mov	r2, #0
  208664:	e5c32000 	strb	r2, [r3]
  208668:	e51b3018 	ldr	r3, [fp, #-24]
  20866c:	e5933000 	ldr	r3, [r3]
  208670:	e51b2008 	ldr	r2, [fp, #-8]
  208674:	e1823003 	orr	r3, r2, r3
  208678:	e50b3008 	str	r3, [fp, #-8]
  20867c:	e51b3018 	ldr	r3, [fp, #-24]
  208680:	e3a02008 	mov	r2, #8
  208684:	e5832028 	str	r2, [r3, #40]	; 0x28
  208688:	ea00003b 	b	20877c <i2c_timer_isr_C_function+0x8ec>
  20868c:	e51b3018 	ldr	r3, [fp, #-24]
  208690:	e5933004 	ldr	r3, [r3, #4]
  208694:	e51b2010 	ldr	r2, [fp, #-16]
  208698:	e1823003 	orr	r3, r2, r3
  20869c:	e50b3010 	str	r3, [fp, #-16]
  2086a0:	e51b3018 	ldr	r3, [fp, #-24]
  2086a4:	e5933004 	ldr	r3, [r3, #4]
  2086a8:	e51b2008 	ldr	r2, [fp, #-8]
  2086ac:	e1823003 	orr	r3, r2, r3
  2086b0:	e50b3008 	str	r3, [fp, #-8]
  2086b4:	e51b3018 	ldr	r3, [fp, #-24]
  2086b8:	e3a0200d 	mov	r2, #13
  2086bc:	e5832028 	str	r2, [r3, #40]	; 0x28
  2086c0:	ea00002d 	b	20877c <i2c_timer_isr_C_function+0x8ec>
  2086c4:	e51b3018 	ldr	r3, [fp, #-24]
  2086c8:	e5933000 	ldr	r3, [r3]
  2086cc:	e51b200c 	ldr	r2, [fp, #-12]
  2086d0:	e1823003 	orr	r3, r2, r3
  2086d4:	e50b300c 	str	r3, [fp, #-12]
  2086d8:	e51b3018 	ldr	r3, [fp, #-24]
  2086dc:	e3a0200e 	mov	r2, #14
  2086e0:	e5832028 	str	r2, [r3, #40]	; 0x28
  2086e4:	ea000024 	b	20877c <i2c_timer_isr_C_function+0x8ec>
  2086e8:	e51b3018 	ldr	r3, [fp, #-24]
  2086ec:	e5933004 	ldr	r3, [r3, #4]
  2086f0:	e51b200c 	ldr	r2, [fp, #-12]
  2086f4:	e1823003 	orr	r3, r2, r3
  2086f8:	e50b300c 	str	r3, [fp, #-12]
  2086fc:	e51b3018 	ldr	r3, [fp, #-24]
  208700:	e3a0200f 	mov	r2, #15
  208704:	e5832028 	str	r2, [r3, #40]	; 0x28
  208708:	ea00001b 	b	20877c <i2c_timer_isr_C_function+0x8ec>
  20870c:	e51b3018 	ldr	r3, [fp, #-24]
  208710:	e5933024 	ldr	r3, [r3, #36]	; 0x24
  208714:	e5d33000 	ldrb	r3, [r3]
  208718:	e2033010 	and	r3, r3, #16
  20871c:	e20330ff 	and	r3, r3, #255	; 0xff
  208720:	e3530000 	cmp	r3, #0
  208724:	0a000003 	beq	208738 <i2c_timer_isr_C_function+0x8a8>
  208728:	e51b3018 	ldr	r3, [fp, #-24]
  20872c:	e3a02001 	mov	r2, #1
  208730:	e5832028 	str	r2, [r3, #40]	; 0x28
  208734:	ea000010 	b	20877c <i2c_timer_isr_C_function+0x8ec>
  208738:	e51b3018 	ldr	r3, [fp, #-24]
  20873c:	e5933024 	ldr	r3, [r3, #36]	; 0x24
  208740:	e2832008 	add	r2, r3, #8
  208744:	e51b3018 	ldr	r3, [fp, #-24]
  208748:	e5832024 	str	r2, [r3, #36]	; 0x24
  20874c:	e51b3018 	ldr	r3, [fp, #-24]
  208750:	e5933054 	ldr	r3, [r3, #84]	; 0x54
  208754:	e2832001 	add	r2, r3, #1
  208758:	e51b3018 	ldr	r3, [fp, #-24]
  20875c:	e5832054 	str	r2, [r3, #84]	; 0x54
  208760:	e51b3018 	ldr	r3, [fp, #-24]
  208764:	e3a02002 	mov	r2, #2
  208768:	e5832028 	str	r2, [r3, #40]	; 0x28
  20876c:	ea000002 	b	20877c <i2c_timer_isr_C_function+0x8ec>
  208770:	e1a00000 	nop			; (mov r0, r0)
  208774:	ea000000 	b	20877c <i2c_timer_isr_C_function+0x8ec>
  208778:	e1a00000 	nop			; (mov r0, r0)
  20877c:	e51b3018 	ldr	r3, [fp, #-24]
  208780:	e283305c 	add	r3, r3, #92	; 0x5c
  208784:	e50b3018 	str	r3, [fp, #-24]
  208788:	e51b3004 	ldr	r3, [fp, #-4]
  20878c:	e2833001 	add	r3, r3, #1
  208790:	e50b3004 	str	r3, [fp, #-4]
  208794:	e51b3004 	ldr	r3, [fp, #-4]
  208798:	e3530003 	cmp	r3, #3
  20879c:	dafffdd9 	ble	207f08 <i2c_timer_isr_C_function+0x78>
  2087a0:	e51b3008 	ldr	r3, [fp, #-8]
  2087a4:	e3530000 	cmp	r3, #0
  2087a8:	0a000003 	beq	2087bc <i2c_timer_isr_C_function+0x92c>
  2087ac:	e3e03d2f 	mvn	r3, #3008	; 0xbc0
  2087b0:	e243300b 	sub	r3, r3, #11
  2087b4:	e51b2008 	ldr	r2, [fp, #-8]
  2087b8:	e5832000 	str	r2, [r3]
  2087bc:	e51b300c 	ldr	r3, [fp, #-12]
  2087c0:	e3530000 	cmp	r3, #0
  2087c4:	0a000003 	beq	2087d8 <i2c_timer_isr_C_function+0x948>
  2087c8:	e3a03000 	mov	r3, #0
  2087cc:	e2433ebd 	sub	r3, r3, #3024	; 0xbd0
  2087d0:	e51b200c 	ldr	r2, [fp, #-12]
  2087d4:	e5832000 	str	r2, [r3]
  2087d8:	e51b3010 	ldr	r3, [fp, #-16]
  2087dc:	e3530000 	cmp	r3, #0
  2087e0:	0a000003 	beq	2087f4 <i2c_timer_isr_C_function+0x964>
  2087e4:	e3a03000 	mov	r3, #0
  2087e8:	e2433ebf 	sub	r3, r3, #3056	; 0xbf0
  2087ec:	e51b2010 	ldr	r2, [fp, #-16]
  2087f0:	e5832000 	str	r2, [r3]
  2087f4:	e51b3014 	ldr	r3, [fp, #-20]
  2087f8:	e3530000 	cmp	r3, #0
  2087fc:	0a000003 	beq	208810 <i2c_timer_isr_C_function+0x980>
  208800:	e3e03ebe 	mvn	r3, #3040	; 0xbe0
  208804:	e243300b 	sub	r3, r3, #11
  208808:	e51b2014 	ldr	r2, [fp, #-20]
  20880c:	e5832000 	str	r2, [r3]
  208810:	e28bd000 	add	sp, fp, #0
  208814:	e8bd0800 	pop	{fp}
  208818:	e12fff1e 	bx	lr
  20881c:	0020c554 	.word	0x0020c554
  208820:	0020c6c4 	.word	0x0020c6c4

00208824 <i2c_disable>:
  208824:	e52db004 	push	{fp}		; (str fp, [sp, #-4]!)
  208828:	e28db000 	add	fp, sp, #0
  20882c:	e24dd00c 	sub	sp, sp, #12
  208830:	e50b000c 	str	r0, [fp, #-12]
  208834:	e51b300c 	ldr	r3, [fp, #-12]
  208838:	e3530000 	cmp	r3, #0
  20883c:	ba000017 	blt	2088a0 <i2c_disable+0x7c>
  208840:	e51b300c 	ldr	r3, [fp, #-12]
  208844:	e3530003 	cmp	r3, #3
  208848:	ca000014 	bgt	2088a0 <i2c_disable+0x7c>
  20884c:	e51b200c 	ldr	r2, [fp, #-12]
  208850:	e1a03002 	mov	r3, r2
  208854:	e1a03083 	lsl	r3, r3, #1
  208858:	e0833002 	add	r3, r3, r2
  20885c:	e1a03183 	lsl	r3, r3, #3
  208860:	e0623003 	rsb	r3, r2, r3
  208864:	e1a03103 	lsl	r3, r3, #2
  208868:	e1a02003 	mov	r2, r3
  20886c:	e59f3038 	ldr	r3, [pc, #56]	; 2088ac <i2c_disable+0x88>
  208870:	e0823003 	add	r3, r2, r3
  208874:	e50b3004 	str	r3, [fp, #-4]
  208878:	e51b3004 	ldr	r3, [fp, #-4]
  20887c:	e5932000 	ldr	r2, [r3]
  208880:	e51b3004 	ldr	r3, [fp, #-4]
  208884:	e5933004 	ldr	r3, [r3, #4]
  208888:	e1823003 	orr	r3, r2, r3
  20888c:	e50b3008 	str	r3, [fp, #-8]
  208890:	e3e03ebe 	mvn	r3, #3040	; 0xbe0
  208894:	e243300b 	sub	r3, r3, #11
  208898:	e51b2008 	ldr	r2, [fp, #-8]
  20889c:	e5832000 	str	r2, [r3]
  2088a0:	e28bd000 	add	sp, fp, #0
  2088a4:	e8bd0800 	pop	{fp}
  2088a8:	e12fff1e 	bx	lr
  2088ac:	0020c554 	.word	0x0020c554

002088b0 <i2c_enable>:
  2088b0:	e52db004 	push	{fp}		; (str fp, [sp, #-4]!)
  2088b4:	e28db000 	add	fp, sp, #0
  2088b8:	e24dd00c 	sub	sp, sp, #12
  2088bc:	e50b000c 	str	r0, [fp, #-12]
  2088c0:	e51b300c 	ldr	r3, [fp, #-12]
  2088c4:	e3530000 	cmp	r3, #0
  2088c8:	ba00002d 	blt	208984 <i2c_enable+0xd4>
  2088cc:	e51b300c 	ldr	r3, [fp, #-12]
  2088d0:	e3530003 	cmp	r3, #3
  2088d4:	ca00002a 	bgt	208984 <i2c_enable+0xd4>
  2088d8:	e51b200c 	ldr	r2, [fp, #-12]
  2088dc:	e1a03002 	mov	r3, r2
  2088e0:	e1a03083 	lsl	r3, r3, #1
  2088e4:	e0833002 	add	r3, r3, r2
  2088e8:	e1a03183 	lsl	r3, r3, #3
  2088ec:	e0623003 	rsb	r3, r2, r3
  2088f0:	e1a03103 	lsl	r3, r3, #2
  2088f4:	e1a02003 	mov	r2, r3
  2088f8:	e59f3090 	ldr	r3, [pc, #144]	; 208990 <i2c_enable+0xe0>
  2088fc:	e0823003 	add	r3, r2, r3
  208900:	e50b3004 	str	r3, [fp, #-4]
  208904:	e51b3004 	ldr	r3, [fp, #-4]
  208908:	e5932000 	ldr	r2, [r3]
  20890c:	e51b3004 	ldr	r3, [fp, #-4]
  208910:	e5933004 	ldr	r3, [r3, #4]
  208914:	e1823003 	orr	r3, r2, r3
  208918:	e50b3008 	str	r3, [fp, #-8]
  20891c:	e51b3004 	ldr	r3, [fp, #-4]
  208920:	e3a02001 	mov	r2, #1
  208924:	e5832028 	str	r2, [r3, #40]	; 0x28
  208928:	e3a03000 	mov	r3, #0
  20892c:	e2433ebd 	sub	r3, r3, #3024	; 0xbd0
  208930:	e51b2008 	ldr	r2, [fp, #-8]
  208934:	e5832000 	str	r2, [r3]
  208938:	e3a03000 	mov	r3, #0
  20893c:	e2433ebf 	sub	r3, r3, #3056	; 0xbf0
  208940:	e51b2008 	ldr	r2, [fp, #-8]
  208944:	e5832000 	str	r2, [r3]
  208948:	e3a03000 	mov	r3, #0
  20894c:	e2433ebb 	sub	r3, r3, #2992	; 0xbb0
  208950:	e51b2004 	ldr	r2, [fp, #-4]
  208954:	e5922000 	ldr	r2, [r2]
  208958:	e5832000 	str	r2, [r3]
  20895c:	e3a034a3 	mov	r3, #-1560281088	; 0xa3000000
  208960:	e1a039c3 	asr	r3, r3, #19
  208964:	e51b2004 	ldr	r2, [fp, #-4]
  208968:	e5922004 	ldr	r2, [r2, #4]
  20896c:	e5832000 	str	r2, [r3]
  208970:	e3e03eb9 	mvn	r3, #2960	; 0xb90
  208974:	e243300b 	sub	r3, r3, #11
  208978:	e51b2004 	ldr	r2, [fp, #-4]
  20897c:	e5922000 	ldr	r2, [r2]
  208980:	e5832000 	str	r2, [r3]
  208984:	e28bd000 	add	sp, fp, #0
  208988:	e8bd0800 	pop	{fp}
  20898c:	e12fff1e 	bx	lr
  208990:	0020c554 	.word	0x0020c554

00208994 <i2c_init>:
  208994:	e92d4800 	push	{fp, lr}
  208998:	e28db004 	add	fp, sp, #4
  20899c:	e24dd010 	sub	sp, sp, #16
  2089a0:	e59f3168 	ldr	r3, [pc, #360]	; 208b10 <i2c_init+0x17c>
  2089a4:	e50b300c 	str	r3, [fp, #-12]
  2089a8:	e3a03000 	mov	r3, #0
  2089ac:	e50b3008 	str	r3, [fp, #-8]
  2089b0:	ea000018 	b	208a18 <i2c_init+0x84>
  2089b4:	e51b300c 	ldr	r3, [fp, #-12]
  2089b8:	e3a02001 	mov	r2, #1
  2089bc:	e5832028 	str	r2, [r3, #40]	; 0x28
  2089c0:	e59f314c 	ldr	r3, [pc, #332]	; 208b14 <i2c_init+0x180>
  2089c4:	e51b2008 	ldr	r2, [fp, #-8]
  2089c8:	e7932182 	ldr	r2, [r3, r2, lsl #3]
  2089cc:	e51b300c 	ldr	r3, [fp, #-12]
  2089d0:	e5832000 	str	r2, [r3]
  2089d4:	e59f1138 	ldr	r1, [pc, #312]	; 208b14 <i2c_init+0x180>
  2089d8:	e51b2008 	ldr	r2, [fp, #-8]
  2089dc:	e3a03004 	mov	r3, #4
  2089e0:	e1a02182 	lsl	r2, r2, #3
  2089e4:	e0812002 	add	r2, r1, r2
  2089e8:	e0823003 	add	r3, r2, r3
  2089ec:	e5932000 	ldr	r2, [r3]
  2089f0:	e51b300c 	ldr	r3, [fp, #-12]
  2089f4:	e5832004 	str	r2, [r3, #4]
  2089f8:	e51b0008 	ldr	r0, [fp, #-8]
  2089fc:	ebffff88 	bl	208824 <i2c_disable>
  208a00:	e51b300c 	ldr	r3, [fp, #-12]
  208a04:	e283305c 	add	r3, r3, #92	; 0x5c
  208a08:	e50b300c 	str	r3, [fp, #-12]
  208a0c:	e51b3008 	ldr	r3, [fp, #-8]
  208a10:	e2833001 	add	r3, r3, #1
  208a14:	e50b3008 	str	r3, [fp, #-8]
  208a18:	e51b3008 	ldr	r3, [fp, #-8]
  208a1c:	e3530003 	cmp	r3, #3
  208a20:	daffffe3 	ble	2089b4 <i2c_init+0x20>
  208a24:	ebfff87d 	bl	206c20 <interrupts_get_and_disable>
  208a28:	e50b0010 	str	r0, [fp, #-16]
  208a2c:	e3a03482 	mov	r3, #-2113929216	; 0x82000000
  208a30:	e1a03ac3 	asr	r3, r3, #21
  208a34:	e3a02a01 	mov	r2, #4096	; 0x1000
  208a38:	e5832000 	str	r2, [r3]
  208a3c:	e3a0320a 	mov	r3, #-1610612736	; 0xa0000000
  208a40:	e1a03643 	asr	r3, r3, #12
  208a44:	e3a02002 	mov	r2, #2
  208a48:	e5832000 	str	r2, [r3]
  208a4c:	e3a034ff 	mov	r3, #-16777216	; 0xff000000
  208a50:	e28338fa 	add	r3, r3, #16384000	; 0xfa0000
  208a54:	e2833028 	add	r3, r3, #40	; 0x28
  208a58:	e3e02000 	mvn	r2, #0
  208a5c:	e5832000 	str	r2, [r3]
  208a60:	e3a034ff 	mov	r3, #-16777216	; 0xff000000
  208a64:	e28338fa 	add	r3, r3, #16384000	; 0xfa0000
  208a68:	e2833020 	add	r3, r3, #32
  208a6c:	e5933000 	ldr	r3, [r3]
  208a70:	e50b3014 	str	r3, [fp, #-20]
  208a74:	e3a034ff 	mov	r3, #-16777216	; 0xff000000
  208a78:	e28338fa 	add	r3, r3, #16384000	; 0xfa0000
  208a7c:	e2833004 	add	r3, r3, #4
  208a80:	e3a02901 	mov	r2, #16384	; 0x4000
  208a84:	e5832000 	str	r2, [r3]
  208a88:	e3e03a5f 	mvn	r3, #389120	; 0x5f000
  208a8c:	e2433efe 	sub	r3, r3, #4064	; 0xfe0
  208a90:	e2433003 	sub	r3, r3, #3
  208a94:	e3a02e27 	mov	r2, #624	; 0x270
  208a98:	e2822001 	add	r2, r2, #1
  208a9c:	e5832000 	str	r2, [r3]
  208aa0:	e3a034ff 	mov	r3, #-16777216	; 0xff000000
  208aa4:	e28338fa 	add	r3, r3, #16384000	; 0xfa0000
  208aa8:	e2833024 	add	r3, r3, #36	; 0x24
  208aac:	e3a02010 	mov	r2, #16
  208ab0:	e5832000 	str	r2, [r3]
  208ab4:	e3a0320a 	mov	r3, #-1610612736	; 0xa0000000
  208ab8:	e1a03643 	asr	r3, r3, #12
  208abc:	e3a02001 	mov	r2, #1
  208ac0:	e5832000 	str	r2, [r3]
  208ac4:	e3a0000c 	mov	r0, #12
  208ac8:	ebfffa98 	bl	207530 <aic_mask_off>
  208acc:	e59f3044 	ldr	r3, [pc, #68]	; 208b18 <i2c_init+0x184>
  208ad0:	e3a0000c 	mov	r0, #12
  208ad4:	e3a01004 	mov	r1, #4
  208ad8:	e1a02003 	mov	r2, r3
  208adc:	ebfffa65 	bl	207478 <aic_set_vector>
  208ae0:	e3a0000c 	mov	r0, #12
  208ae4:	ebfffa7f 	bl	2074e8 <aic_mask_on>
  208ae8:	e3a0320a 	mov	r3, #-1610612736	; 0xa0000000
  208aec:	e1a03643 	asr	r3, r3, #12
  208af0:	e3a02004 	mov	r2, #4
  208af4:	e5832000 	str	r2, [r3]
  208af8:	e51b3010 	ldr	r3, [fp, #-16]
  208afc:	e3530000 	cmp	r3, #0
  208b00:	0a000000 	beq	208b08 <i2c_init+0x174>
  208b04:	ebfff84e 	bl	206c44 <interrupts_enable>
  208b08:	e24bd004 	sub	sp, fp, #4
  208b0c:	e8bd8800 	pop	{fp, pc}
  208b10:	0020c554 	.word	0x0020c554
  208b14:	0020c0f8 	.word	0x0020c0f8
  208b18:	00202d1c 	.word	0x00202d1c

00208b1c <i2c_busy>:
  208b1c:	e52db004 	push	{fp}		; (str fp, [sp, #-4]!)
  208b20:	e28db000 	add	fp, sp, #0
  208b24:	e24dd004 	sub	sp, sp, #4
  208b28:	e50b0004 	str	r0, [fp, #-4]
  208b2c:	e51b3004 	ldr	r3, [fp, #-4]
  208b30:	e3530000 	cmp	r3, #0
  208b34:	ba000012 	blt	208b84 <i2c_busy+0x68>
  208b38:	e51b3004 	ldr	r3, [fp, #-4]
  208b3c:	e3530003 	cmp	r3, #3
  208b40:	ca00000f 	bgt	208b84 <i2c_busy+0x68>
  208b44:	e59f004c 	ldr	r0, [pc, #76]	; 208b98 <i2c_busy+0x7c>
  208b48:	e51b2004 	ldr	r2, [fp, #-4]
  208b4c:	e3a01028 	mov	r1, #40	; 0x28
  208b50:	e1a03002 	mov	r3, r2
  208b54:	e1a03083 	lsl	r3, r3, #1
  208b58:	e0833002 	add	r3, r3, r2
  208b5c:	e1a03183 	lsl	r3, r3, #3
  208b60:	e0623003 	rsb	r3, r2, r3
  208b64:	e1a03103 	lsl	r3, r3, #2
  208b68:	e0803003 	add	r3, r0, r3
  208b6c:	e0833001 	add	r3, r3, r1
  208b70:	e5933000 	ldr	r3, [r3]
  208b74:	e3530001 	cmp	r3, #1
  208b78:	93a03000 	movls	r3, #0
  208b7c:	83a03001 	movhi	r3, #1
  208b80:	ea000000 	b	208b88 <i2c_busy+0x6c>
  208b84:	e3a03000 	mov	r3, #0
  208b88:	e1a00003 	mov	r0, r3
  208b8c:	e28bd000 	add	sp, fp, #0
  208b90:	e8bd0800 	pop	{fp}
  208b94:	e12fff1e 	bx	lr
  208b98:	0020c554 	.word	0x0020c554

00208b9c <i2c_start_transaction>:
  208b9c:	e92d4800 	push	{fp, lr}
  208ba0:	e28db004 	add	fp, sp, #4
  208ba4:	e24dd018 	sub	sp, sp, #24
  208ba8:	e50b0010 	str	r0, [fp, #-16]
  208bac:	e50b1014 	str	r1, [fp, #-20]
  208bb0:	e50b2018 	str	r2, [fp, #-24]
  208bb4:	e50b301c 	str	r3, [fp, #-28]
  208bb8:	e51b3010 	ldr	r3, [fp, #-16]
  208bbc:	e3530000 	cmp	r3, #0
  208bc0:	ba000002 	blt	208bd0 <i2c_start_transaction+0x34>
  208bc4:	e51b3010 	ldr	r3, [fp, #-16]
  208bc8:	e3530003 	cmp	r3, #3
  208bcc:	da000001 	ble	208bd8 <i2c_start_transaction+0x3c>
  208bd0:	e3e03000 	mvn	r3, #0
  208bd4:	ea0000af 	b	208e98 <i2c_start_transaction+0x2fc>
  208bd8:	e51b0010 	ldr	r0, [fp, #-16]
  208bdc:	ebffffce 	bl	208b1c <i2c_busy>
  208be0:	e1a03000 	mov	r3, r0
  208be4:	e3530000 	cmp	r3, #0
  208be8:	0a000001 	beq	208bf4 <i2c_start_transaction+0x58>
  208bec:	e3e03000 	mvn	r3, #0
  208bf0:	ea0000a8 	b	208e98 <i2c_start_transaction+0x2fc>
  208bf4:	e51b2010 	ldr	r2, [fp, #-16]
  208bf8:	e1a03002 	mov	r3, r2
  208bfc:	e1a03083 	lsl	r3, r3, #1
  208c00:	e0833002 	add	r3, r3, r2
  208c04:	e1a03183 	lsl	r3, r3, #3
  208c08:	e0623003 	rsb	r3, r2, r3
  208c0c:	e1a03103 	lsl	r3, r3, #2
  208c10:	e1a02003 	mov	r2, r3
  208c14:	e59f3288 	ldr	r3, [pc, #648]	; 208ea4 <i2c_start_transaction+0x308>
  208c18:	e0823003 	add	r3, r2, r3
  208c1c:	e50b300c 	str	r3, [fp, #-12]
  208c20:	e51b300c 	ldr	r3, [fp, #-12]
  208c24:	e3a02000 	mov	r2, #0
  208c28:	e5832054 	str	r2, [r3, #84]	; 0x54
  208c2c:	e51b300c 	ldr	r3, [fp, #-12]
  208c30:	e3a02000 	mov	r2, #0
  208c34:	e5832058 	str	r2, [r3, #88]	; 0x58
  208c38:	e51b300c 	ldr	r3, [fp, #-12]
  208c3c:	e283300c 	add	r3, r3, #12
  208c40:	e50b3008 	str	r3, [fp, #-8]
  208c44:	e51b300c 	ldr	r3, [fp, #-12]
  208c48:	e51b2008 	ldr	r2, [fp, #-8]
  208c4c:	e5832024 	str	r2, [r3, #36]	; 0x24
  208c50:	e51b0008 	ldr	r0, [fp, #-8]
  208c54:	e3a01000 	mov	r1, #0
  208c58:	e3a02018 	mov	r2, #24
  208c5c:	eb000abf 	bl	20b760 <memset>
  208c60:	e51b301c 	ldr	r3, [fp, #-28]
  208c64:	e3530000 	cmp	r3, #0
  208c68:	da000027 	ble	208d0c <i2c_start_transaction+0x170>
  208c6c:	e51b3014 	ldr	r3, [fp, #-20]
  208c70:	e20330ff 	and	r3, r3, #255	; 0xff
  208c74:	e1a03083 	lsl	r3, r3, #1
  208c78:	e20320ff 	and	r2, r3, #255	; 0xff
  208c7c:	e51b300c 	ldr	r3, [fp, #-12]
  208c80:	e5c32008 	strb	r2, [r3, #8]
  208c84:	e51b3018 	ldr	r3, [fp, #-24]
  208c88:	e20320ff 	and	r2, r3, #255	; 0xff
  208c8c:	e51b300c 	ldr	r3, [fp, #-12]
  208c90:	e5c32009 	strb	r2, [r3, #9]
  208c94:	e51b2008 	ldr	r2, [fp, #-8]
  208c98:	e5d23000 	ldrb	r3, [r2]
  208c9c:	e3833001 	orr	r3, r3, #1
  208ca0:	e5c23000 	strb	r3, [r2]
  208ca4:	e59b300c 	ldr	r3, [fp, #12]
  208ca8:	e3530000 	cmp	r3, #0
  208cac:	13a03000 	movne	r3, #0
  208cb0:	03a03001 	moveq	r3, #1
  208cb4:	e20320ff 	and	r2, r3, #255	; 0xff
  208cb8:	e51b1008 	ldr	r1, [fp, #-8]
  208cbc:	e5d13000 	ldrb	r3, [r1]
  208cc0:	e2022001 	and	r2, r2, #1
  208cc4:	e3c33004 	bic	r3, r3, #4
  208cc8:	e1a02102 	lsl	r2, r2, #2
  208ccc:	e1823003 	orr	r3, r2, r3
  208cd0:	e5c13000 	strb	r3, [r1]
  208cd4:	e51b2008 	ldr	r2, [fp, #-8]
  208cd8:	e5d23000 	ldrb	r3, [r2]
  208cdc:	e3833008 	orr	r3, r3, #8
  208ce0:	e5c23000 	strb	r3, [r2]
  208ce4:	e51b300c 	ldr	r3, [fp, #-12]
  208ce8:	e2832008 	add	r2, r3, #8
  208cec:	e51b3008 	ldr	r3, [fp, #-8]
  208cf0:	e5832004 	str	r2, [r3, #4]
  208cf4:	e51b3008 	ldr	r3, [fp, #-8]
  208cf8:	e3a02002 	mov	r2, #2
  208cfc:	e1c320b2 	strh	r2, [r3, #2]
  208d00:	e51b3008 	ldr	r3, [fp, #-8]
  208d04:	e2833008 	add	r3, r3, #8
  208d08:	e50b3008 	str	r3, [fp, #-8]
  208d0c:	e51b301c 	ldr	r3, [fp, #-28]
  208d10:	e3530000 	cmp	r3, #0
  208d14:	0a000002 	beq	208d24 <i2c_start_transaction+0x188>
  208d18:	e59b300c 	ldr	r3, [fp, #12]
  208d1c:	e3530000 	cmp	r3, #0
  208d20:	1a000038 	bne	208e08 <i2c_start_transaction+0x26c>
  208d24:	e51b301c 	ldr	r3, [fp, #-28]
  208d28:	e3530000 	cmp	r3, #0
  208d2c:	c3a03000 	movgt	r3, #0
  208d30:	d3a03001 	movle	r3, #1
  208d34:	e20310ff 	and	r1, r3, #255	; 0xff
  208d38:	e51b2008 	ldr	r2, [fp, #-8]
  208d3c:	e5d23000 	ldrb	r3, [r2]
  208d40:	e2011001 	and	r1, r1, #1
  208d44:	e3c33001 	bic	r3, r3, #1
  208d48:	e1813003 	orr	r3, r1, r3
  208d4c:	e5c23000 	strb	r3, [r2]
  208d50:	e51b3008 	ldr	r3, [fp, #-8]
  208d54:	e5d33000 	ldrb	r3, [r3]
  208d58:	e2033001 	and	r3, r3, #1
  208d5c:	e20330ff 	and	r3, r3, #255	; 0xff
  208d60:	e3530000 	cmp	r3, #0
  208d64:	13a03000 	movne	r3, #0
  208d68:	03a03001 	moveq	r3, #1
  208d6c:	e20320ff 	and	r2, r3, #255	; 0xff
  208d70:	e51b1008 	ldr	r1, [fp, #-8]
  208d74:	e5d13000 	ldrb	r3, [r1]
  208d78:	e2022001 	and	r2, r2, #1
  208d7c:	e3c33002 	bic	r3, r3, #2
  208d80:	e1a02082 	lsl	r2, r2, #1
  208d84:	e1823003 	orr	r3, r2, r3
  208d88:	e5c13000 	strb	r3, [r1]
  208d8c:	e51b2008 	ldr	r2, [fp, #-8]
  208d90:	e5d23000 	ldrb	r3, [r2]
  208d94:	e3c33004 	bic	r3, r3, #4
  208d98:	e5c23000 	strb	r3, [r2]
  208d9c:	e51b2008 	ldr	r2, [fp, #-8]
  208da0:	e5d23000 	ldrb	r3, [r2]
  208da4:	e3833008 	orr	r3, r3, #8
  208da8:	e5c23000 	strb	r3, [r2]
  208dac:	e51b3014 	ldr	r3, [fp, #-20]
  208db0:	e20330ff 	and	r3, r3, #255	; 0xff
  208db4:	e1a03083 	lsl	r3, r3, #1
  208db8:	e20320ff 	and	r2, r3, #255	; 0xff
  208dbc:	e59b300c 	ldr	r3, [fp, #12]
  208dc0:	e3530000 	cmp	r3, #0
  208dc4:	13a03000 	movne	r3, #0
  208dc8:	03a03001 	moveq	r3, #1
  208dcc:	e20330ff 	and	r3, r3, #255	; 0xff
  208dd0:	e1823003 	orr	r3, r2, r3
  208dd4:	e20320ff 	and	r2, r3, #255	; 0xff
  208dd8:	e51b300c 	ldr	r3, [fp, #-12]
  208ddc:	e5c3200a 	strb	r2, [r3, #10]
  208de0:	e51b300c 	ldr	r3, [fp, #-12]
  208de4:	e283200a 	add	r2, r3, #10
  208de8:	e51b3008 	ldr	r3, [fp, #-8]
  208dec:	e5832004 	str	r2, [r3, #4]
  208df0:	e51b3008 	ldr	r3, [fp, #-8]
  208df4:	e3a02001 	mov	r2, #1
  208df8:	e1c320b2 	strh	r2, [r3, #2]
  208dfc:	e51b3008 	ldr	r3, [fp, #-8]
  208e00:	e2833008 	add	r3, r3, #8
  208e04:	e50b3008 	str	r3, [fp, #-8]
  208e08:	e51b2008 	ldr	r2, [fp, #-8]
  208e0c:	e5d23000 	ldrb	r3, [r2]
  208e10:	e3c33001 	bic	r3, r3, #1
  208e14:	e5c23000 	strb	r3, [r2]
  208e18:	e51b2008 	ldr	r2, [fp, #-8]
  208e1c:	e5d23000 	ldrb	r3, [r2]
  208e20:	e3833004 	orr	r3, r3, #4
  208e24:	e5c23000 	strb	r3, [r2]
  208e28:	e59b300c 	ldr	r3, [fp, #12]
  208e2c:	e3530000 	cmp	r3, #0
  208e30:	03a03000 	moveq	r3, #0
  208e34:	13a03001 	movne	r3, #1
  208e38:	e20320ff 	and	r2, r3, #255	; 0xff
  208e3c:	e51b1008 	ldr	r1, [fp, #-8]
  208e40:	e5d13000 	ldrb	r3, [r1]
  208e44:	e2022001 	and	r2, r2, #1
  208e48:	e3c33008 	bic	r3, r3, #8
  208e4c:	e1a02182 	lsl	r2, r2, #3
  208e50:	e1823003 	orr	r3, r2, r3
  208e54:	e5c13000 	strb	r3, [r1]
  208e58:	e51b3008 	ldr	r3, [fp, #-8]
  208e5c:	e59b2004 	ldr	r2, [fp, #4]
  208e60:	e5832004 	str	r2, [r3, #4]
  208e64:	e59b3008 	ldr	r3, [fp, #8]
  208e68:	e1a03803 	lsl	r3, r3, #16
  208e6c:	e1a02823 	lsr	r2, r3, #16
  208e70:	e51b3008 	ldr	r3, [fp, #-8]
  208e74:	e1c320b2 	strh	r2, [r3, #2]
  208e78:	e51b2008 	ldr	r2, [fp, #-8]
  208e7c:	e5d23000 	ldrb	r3, [r2]
  208e80:	e3833010 	orr	r3, r3, #16
  208e84:	e5c23000 	strb	r3, [r2]
  208e88:	e51b300c 	ldr	r3, [fp, #-12]
  208e8c:	e3a02002 	mov	r2, #2
  208e90:	e5832028 	str	r2, [r3, #40]	; 0x28
  208e94:	e3a03000 	mov	r3, #0
  208e98:	e1a00003 	mov	r0, r3
  208e9c:	e24bd004 	sub	sp, fp, #4
  208ea0:	e8bd8800 	pop	{fp, pc}
  208ea4:	0020c554 	.word	0x0020c554

00208ea8 <systick_low_priority_C_function>:
  208ea8:	e92d4800 	push	{fp, lr}
  208eac:	e28db004 	add	fp, sp, #4
  208eb0:	e3e03eed 	mvn	r3, #3792	; 0xed0
  208eb4:	e2433007 	sub	r3, r3, #7
  208eb8:	e3a02b01 	mov	r2, #1024	; 0x400
  208ebc:	e5832000 	str	r2, [r3]
  208ec0:	ebfffae2 	bl	207a50 <nxt_avr_1kHz_update>
  208ec4:	eb0000b3 	bl	209198 <nxt_motor_1kHz_process>
  208ec8:	e8bd8800 	pop	{fp, pc}

00208ecc <systick_isr_C_function>:
  208ecc:	e52db004 	push	{fp}		; (str fp, [sp, #-4]!)
  208ed0:	e28db000 	add	fp, sp, #0
  208ed4:	e24dd004 	sub	sp, sp, #4
  208ed8:	e3a034a7 	mov	r3, #-1493172224	; 0xa7000000
  208edc:	e1a03ac3 	asr	r3, r3, #21
  208ee0:	e5933000 	ldr	r3, [r3]
  208ee4:	e50b3004 	str	r3, [fp, #-4]
  208ee8:	e51b3004 	ldr	r3, [fp, #-4]
  208eec:	e1a02a23 	lsr	r2, r3, #20
  208ef0:	e59f3028 	ldr	r3, [pc, #40]	; 208f20 <systick_isr_C_function+0x54>
  208ef4:	e5933000 	ldr	r3, [r3]
  208ef8:	e0822003 	add	r2, r2, r3
  208efc:	e59f301c 	ldr	r3, [pc, #28]	; 208f20 <systick_isr_C_function+0x54>
  208f00:	e5832000 	str	r2, [r3]
  208f04:	e3e03eed 	mvn	r3, #3792	; 0xed0
  208f08:	e2433003 	sub	r3, r3, #3
  208f0c:	e3a02b01 	mov	r2, #1024	; 0x400
  208f10:	e5832000 	str	r2, [r3]
  208f14:	e28bd000 	add	sp, fp, #0
  208f18:	e8bd0800 	pop	{fp}
  208f1c:	e12fff1e 	bx	lr
  208f20:	0020c6c8 	.word	0x0020c6c8

00208f24 <systick_get_ms>:
  208f24:	e52db004 	push	{fp}		; (str fp, [sp, #-4]!)
  208f28:	e28db000 	add	fp, sp, #0
  208f2c:	e59f3010 	ldr	r3, [pc, #16]	; 208f44 <systick_get_ms+0x20>
  208f30:	e5933000 	ldr	r3, [r3]
  208f34:	e1a00003 	mov	r0, r3
  208f38:	e28bd000 	add	sp, fp, #0
  208f3c:	e8bd0800 	pop	{fp}
  208f40:	e12fff1e 	bx	lr
  208f44:	0020c6c8 	.word	0x0020c6c8

00208f48 <systick_wait_ms>:
  208f48:	e52db004 	push	{fp}		; (str fp, [sp, #-4]!)
  208f4c:	e28db000 	add	fp, sp, #0
  208f50:	e24dd008 	sub	sp, sp, #8
  208f54:	e50b0008 	str	r0, [fp, #-8]
  208f58:	e59f3030 	ldr	r3, [pc, #48]	; 208f90 <systick_wait_ms+0x48>
  208f5c:	e5932000 	ldr	r2, [r3]
  208f60:	e51b3008 	ldr	r3, [fp, #-8]
  208f64:	e0823003 	add	r3, r2, r3
  208f68:	e50b3004 	str	r3, [fp, #-4]
  208f6c:	e1a00000 	nop			; (mov r0, r0)
  208f70:	e59f3018 	ldr	r3, [pc, #24]	; 208f90 <systick_wait_ms+0x48>
  208f74:	e5932000 	ldr	r2, [r3]
  208f78:	e51b3004 	ldr	r3, [fp, #-4]
  208f7c:	e1520003 	cmp	r2, r3
  208f80:	3afffffa 	bcc	208f70 <systick_wait_ms+0x28>
  208f84:	e28bd000 	add	sp, fp, #0
  208f88:	e8bd0800 	pop	{fp}
  208f8c:	e12fff1e 	bx	lr
  208f90:	0020c6c8 	.word	0x0020c6c8

00208f94 <systick_wait_ns>:
  208f94:	e52db004 	push	{fp}		; (str fp, [sp, #-4]!)
  208f98:	e28db000 	add	fp, sp, #0
  208f9c:	e24dd008 	sub	sp, sp, #8
  208fa0:	e50b0008 	str	r0, [fp, #-8]
  208fa4:	e51b3008 	ldr	r3, [fp, #-8]
  208fa8:	e1a033a3 	lsr	r3, r3, #7
  208fac:	e2833001 	add	r3, r3, #1
  208fb0:	e50b3004 	str	r3, [fp, #-4]
  208fb4:	ea000002 	b	208fc4 <systick_wait_ns+0x30>
  208fb8:	e51b3004 	ldr	r3, [fp, #-4]
  208fbc:	e2433001 	sub	r3, r3, #1
  208fc0:	e50b3004 	str	r3, [fp, #-4]
  208fc4:	e51b3004 	ldr	r3, [fp, #-4]
  208fc8:	e3530000 	cmp	r3, #0
  208fcc:	1afffff9 	bne	208fb8 <systick_wait_ns+0x24>
  208fd0:	e28bd000 	add	sp, fp, #0
  208fd4:	e8bd0800 	pop	{fp}
  208fd8:	e12fff1e 	bx	lr

00208fdc <systick_init>:
  208fdc:	e92d4800 	push	{fp, lr}
  208fe0:	e28db004 	add	fp, sp, #4
  208fe4:	e24dd004 	sub	sp, sp, #4
  208fe8:	ebfff70c 	bl	206c20 <interrupts_get_and_disable>
  208fec:	e50b0008 	str	r0, [fp, #-8]
  208ff0:	e3a0000a 	mov	r0, #10
  208ff4:	ebfff94d 	bl	207530 <aic_mask_off>
  208ff8:	e59f3068 	ldr	r3, [pc, #104]	; 209068 <systick_init+0x8c>
  208ffc:	e3a0000a 	mov	r0, #10
  209000:	e3a01022 	mov	r1, #34	; 0x22
  209004:	e1a02003 	mov	r2, r3
  209008:	ebfff91a 	bl	207478 <aic_set_vector>
  20900c:	e3a0000a 	mov	r0, #10
  209010:	ebfff934 	bl	2074e8 <aic_mask_on>
  209014:	e3a00001 	mov	r0, #1
  209018:	ebfff944 	bl	207530 <aic_mask_off>
  20901c:	e59f3044 	ldr	r3, [pc, #68]	; 209068 <systick_init+0x8c>
  209020:	e3a00001 	mov	r0, #1
  209024:	e3a01024 	mov	r1, #36	; 0x24
  209028:	e1a02003 	mov	r2, r3
  20902c:	ebfff911 	bl	207478 <aic_set_vector>
  209030:	e3a00001 	mov	r0, #1
  209034:	ebfff92b 	bl	2074e8 <aic_mask_on>
  209038:	e3a024a6 	mov	r2, #-1509949440	; 0xa6000000
  20903c:	e1a02ac2 	asr	r2, r2, #21
  209040:	e3a03403 	mov	r3, #50331648	; 0x3000000
  209044:	e2833ebb 	add	r3, r3, #2992	; 0xbb0
  209048:	e283300a 	add	r3, r3, #10
  20904c:	e5823000 	str	r3, [r2]
  209050:	e51b3008 	ldr	r3, [fp, #-8]
  209054:	e3530000 	cmp	r3, #0
  209058:	0a000000 	beq	209060 <systick_init+0x84>
  20905c:	ebfff6f8 	bl	206c44 <interrupts_enable>
  209060:	e24bd004 	sub	sp, fp, #4
  209064:	e8bd8800 	pop	{fp, pc}
  209068:	00202d1c 	.word	0x00202d1c

0020906c <nxt_motor_get_count>:
  20906c:	e52db004 	push	{fp}		; (str fp, [sp, #-4]!)
  209070:	e28db000 	add	fp, sp, #0
  209074:	e24dd004 	sub	sp, sp, #4
  209078:	e50b0004 	str	r0, [fp, #-4]
  20907c:	e51b3004 	ldr	r3, [fp, #-4]
  209080:	e3530002 	cmp	r3, #2
  209084:	8a000003 	bhi	209098 <nxt_motor_get_count+0x2c>
  209088:	e59f301c 	ldr	r3, [pc, #28]	; 2090ac <nxt_motor_get_count+0x40>
  20908c:	e51b2004 	ldr	r2, [fp, #-4]
  209090:	e7933202 	ldr	r3, [r3, r2, lsl #4]
  209094:	ea000000 	b	20909c <nxt_motor_get_count+0x30>
  209098:	e3a03000 	mov	r3, #0
  20909c:	e1a00003 	mov	r0, r3
  2090a0:	e28bd000 	add	sp, fp, #0
  2090a4:	e8bd0800 	pop	{fp}
  2090a8:	e12fff1e 	bx	lr
  2090ac:	0020c6cc 	.word	0x0020c6cc

002090b0 <nxt_motor_set_count>:
  2090b0:	e52db004 	push	{fp}		; (str fp, [sp, #-4]!)
  2090b4:	e28db000 	add	fp, sp, #0
  2090b8:	e24dd008 	sub	sp, sp, #8
  2090bc:	e50b0004 	str	r0, [fp, #-4]
  2090c0:	e50b1008 	str	r1, [fp, #-8]
  2090c4:	e51b3004 	ldr	r3, [fp, #-4]
  2090c8:	e3530002 	cmp	r3, #2
  2090cc:	8a000003 	bhi	2090e0 <nxt_motor_set_count+0x30>
  2090d0:	e59f3014 	ldr	r3, [pc, #20]	; 2090ec <nxt_motor_set_count+0x3c>
  2090d4:	e51b2004 	ldr	r2, [fp, #-4]
  2090d8:	e51b1008 	ldr	r1, [fp, #-8]
  2090dc:	e7831202 	str	r1, [r3, r2, lsl #4]
  2090e0:	e28bd000 	add	sp, fp, #0
  2090e4:	e8bd0800 	pop	{fp}
  2090e8:	e12fff1e 	bx	lr
  2090ec:	0020c6cc 	.word	0x0020c6cc

002090f0 <nxt_motor_set_speed>:
  2090f0:	e92d4800 	push	{fp, lr}
  2090f4:	e28db004 	add	fp, sp, #4
  2090f8:	e24dd00c 	sub	sp, sp, #12
  2090fc:	e50b0008 	str	r0, [fp, #-8]
  209100:	e50b100c 	str	r1, [fp, #-12]
  209104:	e50b2010 	str	r2, [fp, #-16]
  209108:	e51b3008 	ldr	r3, [fp, #-8]
  20910c:	e3530002 	cmp	r3, #2
  209110:	8a00001d 	bhi	20918c <nxt_motor_set_speed+0x9c>
  209114:	e51b300c 	ldr	r3, [fp, #-12]
  209118:	e3530064 	cmp	r3, #100	; 0x64
  20911c:	da000001 	ble	209128 <nxt_motor_set_speed+0x38>
  209120:	e3a03064 	mov	r3, #100	; 0x64
  209124:	e50b300c 	str	r3, [fp, #-12]
  209128:	e51b300c 	ldr	r3, [fp, #-12]
  20912c:	e3730064 	cmn	r3, #100	; 0x64
  209130:	aa000001 	bge	20913c <nxt_motor_set_speed+0x4c>
  209134:	e3e03063 	mvn	r3, #99	; 0x63
  209138:	e50b300c 	str	r3, [fp, #-12]
  20913c:	e59f1050 	ldr	r1, [pc, #80]	; 209194 <nxt_motor_set_speed+0xa4>
  209140:	e51b2008 	ldr	r2, [fp, #-8]
  209144:	e3a03004 	mov	r3, #4
  209148:	e1a02202 	lsl	r2, r2, #4
  20914c:	e0812002 	add	r2, r1, r2
  209150:	e0823003 	add	r3, r2, r3
  209154:	e3a02000 	mov	r2, #0
  209158:	e5832000 	str	r2, [r3]
  20915c:	e59f1030 	ldr	r1, [pc, #48]	; 209194 <nxt_motor_set_speed+0xa4>
  209160:	e51b2008 	ldr	r2, [fp, #-8]
  209164:	e3a03008 	mov	r3, #8
  209168:	e1a02202 	lsl	r2, r2, #4
  20916c:	e0812002 	add	r2, r1, r2
  209170:	e0823003 	add	r3, r2, r3
  209174:	e51b200c 	ldr	r2, [fp, #-12]
  209178:	e5832000 	str	r2, [r3]
  20917c:	e51b0008 	ldr	r0, [fp, #-8]
  209180:	e51b100c 	ldr	r1, [fp, #-12]
  209184:	e51b2010 	ldr	r2, [fp, #-16]
  209188:	ebfffada 	bl	207cf8 <nxt_avr_set_motor>
  20918c:	e24bd004 	sub	sp, fp, #4
  209190:	e8bd8800 	pop	{fp, pc}
  209194:	0020c6cc 	.word	0x0020c6cc

00209198 <nxt_motor_1kHz_process>:
  209198:	e92d4800 	push	{fp, lr}
  20919c:	e28db004 	add	fp, sp, #4
  2091a0:	e24dd004 	sub	sp, sp, #4
  2091a4:	e59f3110 	ldr	r3, [pc, #272]	; 2092bc <nxt_motor_1kHz_process+0x124>
  2091a8:	e5933000 	ldr	r3, [r3]
  2091ac:	e3530000 	cmp	r3, #0
  2091b0:	0a00003f 	beq	2092b4 <nxt_motor_1kHz_process+0x11c>
  2091b4:	e59f3104 	ldr	r3, [pc, #260]	; 2092c0 <nxt_motor_1kHz_process+0x128>
  2091b8:	e3a02000 	mov	r2, #0
  2091bc:	e5832000 	str	r2, [r3]
  2091c0:	e3a034a2 	mov	r3, #-1577058304	; 0xa2000000
  2091c4:	e1a039c3 	asr	r3, r3, #19
  2091c8:	e3a02341 	mov	r2, #67108865	; 0x4000001
  2091cc:	e2822902 	add	r2, r2, #32768	; 0x8000
  2091d0:	e5832000 	str	r2, [r3]
  2091d4:	e3a03000 	mov	r3, #0
  2091d8:	e50b3008 	str	r3, [fp, #-8]
  2091dc:	ea000031 	b	2092a8 <nxt_motor_1kHz_process+0x110>
  2091e0:	e59f10dc 	ldr	r1, [pc, #220]	; 2092c4 <nxt_motor_1kHz_process+0x12c>
  2091e4:	e51b2008 	ldr	r2, [fp, #-8]
  2091e8:	e3a03004 	mov	r3, #4
  2091ec:	e1a02202 	lsl	r2, r2, #4
  2091f0:	e0812002 	add	r2, r1, r2
  2091f4:	e0823003 	add	r3, r2, r3
  2091f8:	e5933000 	ldr	r3, [r3]
  2091fc:	e3530000 	cmp	r3, #0
  209200:	0a000025 	beq	20929c <nxt_motor_1kHz_process+0x104>
  209204:	e59f10b8 	ldr	r1, [pc, #184]	; 2092c4 <nxt_motor_1kHz_process+0x12c>
  209208:	e51b2008 	ldr	r2, [fp, #-8]
  20920c:	e3a03004 	mov	r3, #4
  209210:	e1a02202 	lsl	r2, r2, #4
  209214:	e0812002 	add	r2, r1, r2
  209218:	e0823003 	add	r3, r2, r3
  20921c:	e5933000 	ldr	r3, [r3]
  209220:	e3730001 	cmn	r3, #1
  209224:	b3a03000 	movlt	r3, #0
  209228:	a3a03001 	movge	r3, #1
  20922c:	e20320ff 	and	r2, r3, #255	; 0xff
  209230:	e59f008c 	ldr	r0, [pc, #140]	; 2092c4 <nxt_motor_1kHz_process+0x12c>
  209234:	e51b1008 	ldr	r1, [fp, #-8]
  209238:	e3a03004 	mov	r3, #4
  20923c:	e1a01201 	lsl	r1, r1, #4
  209240:	e0801001 	add	r1, r0, r1
  209244:	e0813003 	add	r3, r1, r3
  209248:	e5933000 	ldr	r3, [r3]
  20924c:	e3530001 	cmp	r3, #1
  209250:	c3a03000 	movgt	r3, #0
  209254:	d3a03001 	movle	r3, #1
  209258:	e20330ff 	and	r3, r3, #255	; 0xff
  20925c:	e0023003 	and	r3, r2, r3
  209260:	e20330ff 	and	r3, r3, #255	; 0xff
  209264:	e3530000 	cmp	r3, #0
  209268:	0a00000b 	beq	20929c <nxt_motor_1kHz_process+0x104>
  20926c:	e51b0008 	ldr	r0, [fp, #-8]
  209270:	e3a01000 	mov	r1, #0
  209274:	e3a02001 	mov	r2, #1
  209278:	ebfffa9e 	bl	207cf8 <nxt_avr_set_motor>
  20927c:	e59f1040 	ldr	r1, [pc, #64]	; 2092c4 <nxt_motor_1kHz_process+0x12c>
  209280:	e51b2008 	ldr	r2, [fp, #-8]
  209284:	e3a03004 	mov	r3, #4
  209288:	e1a02202 	lsl	r2, r2, #4
  20928c:	e0812002 	add	r2, r1, r2
  209290:	e0823003 	add	r3, r2, r3
  209294:	e3a02000 	mov	r2, #0
  209298:	e5832000 	str	r2, [r3]
  20929c:	e51b3008 	ldr	r3, [fp, #-8]
  2092a0:	e2833001 	add	r3, r3, #1
  2092a4:	e50b3008 	str	r3, [fp, #-8]
  2092a8:	e51b3008 	ldr	r3, [fp, #-8]
  2092ac:	e3530002 	cmp	r3, #2
  2092b0:	9affffca 	bls	2091e0 <nxt_motor_1kHz_process+0x48>
  2092b4:	e24bd004 	sub	sp, fp, #4
  2092b8:	e8bd8800 	pop	{fp, pc}
  2092bc:	0020c6fc 	.word	0x0020c6fc
  2092c0:	0020c700 	.word	0x0020c700
  2092c4:	0020c6cc 	.word	0x0020c6cc

002092c8 <nxt_motor_quad_decode>:
  2092c8:	e52db004 	push	{fp}		; (str fp, [sp, #-4]!)
  2092cc:	e28db000 	add	fp, sp, #0
  2092d0:	e24dd010 	sub	sp, sp, #16
  2092d4:	e50b000c 	str	r0, [fp, #-12]
  2092d8:	e50b1010 	str	r1, [fp, #-16]
  2092dc:	e51b3010 	ldr	r3, [fp, #-16]
  2092e0:	e2033002 	and	r3, r3, #2
  2092e4:	e50b3004 	str	r3, [fp, #-4]
  2092e8:	e51b3010 	ldr	r3, [fp, #-16]
  2092ec:	e2033001 	and	r3, r3, #1
  2092f0:	e50b3008 	str	r3, [fp, #-8]
  2092f4:	e51b300c 	ldr	r3, [fp, #-12]
  2092f8:	e593200c 	ldr	r2, [r3, #12]
  2092fc:	e51b3008 	ldr	r3, [fp, #-8]
  209300:	e1520003 	cmp	r2, r3
  209304:	0a000055 	beq	209460 <nxt_motor_quad_decode+0x198>
  209308:	e51b3008 	ldr	r3, [fp, #-8]
  20930c:	e3530000 	cmp	r3, #0
  209310:	0a000011 	beq	20935c <nxt_motor_quad_decode+0x94>
  209314:	e51b3004 	ldr	r3, [fp, #-4]
  209318:	e3530000 	cmp	r3, #0
  20931c:	1a00000e 	bne	20935c <nxt_motor_quad_decode+0x94>
  209320:	e51b300c 	ldr	r3, [fp, #-12]
  209324:	e5933000 	ldr	r3, [r3]
  209328:	e2832001 	add	r2, r3, #1
  20932c:	e51b300c 	ldr	r3, [fp, #-12]
  209330:	e5832000 	str	r2, [r3]
  209334:	e51b300c 	ldr	r3, [fp, #-12]
  209338:	e5933004 	ldr	r3, [r3, #4]
  20933c:	e3530000 	cmp	r3, #0
  209340:	0a000043 	beq	209454 <nxt_motor_quad_decode+0x18c>
  209344:	e51b300c 	ldr	r3, [fp, #-12]
  209348:	e5933004 	ldr	r3, [r3, #4]
  20934c:	e2432001 	sub	r2, r3, #1
  209350:	e51b300c 	ldr	r3, [fp, #-12]
  209354:	e5832004 	str	r2, [r3, #4]
  209358:	ea00003d 	b	209454 <nxt_motor_quad_decode+0x18c>
  20935c:	e51b3008 	ldr	r3, [fp, #-8]
  209360:	e3530000 	cmp	r3, #0
  209364:	0a000011 	beq	2093b0 <nxt_motor_quad_decode+0xe8>
  209368:	e51b3004 	ldr	r3, [fp, #-4]
  20936c:	e3530000 	cmp	r3, #0
  209370:	0a00000e 	beq	2093b0 <nxt_motor_quad_decode+0xe8>
  209374:	e51b300c 	ldr	r3, [fp, #-12]
  209378:	e5933000 	ldr	r3, [r3]
  20937c:	e2432001 	sub	r2, r3, #1
  209380:	e51b300c 	ldr	r3, [fp, #-12]
  209384:	e5832000 	str	r2, [r3]
  209388:	e51b300c 	ldr	r3, [fp, #-12]
  20938c:	e5933004 	ldr	r3, [r3, #4]
  209390:	e3530000 	cmp	r3, #0
  209394:	0a00002e 	beq	209454 <nxt_motor_quad_decode+0x18c>
  209398:	e51b300c 	ldr	r3, [fp, #-12]
  20939c:	e5933004 	ldr	r3, [r3, #4]
  2093a0:	e2832001 	add	r2, r3, #1
  2093a4:	e51b300c 	ldr	r3, [fp, #-12]
  2093a8:	e5832004 	str	r2, [r3, #4]
  2093ac:	ea000028 	b	209454 <nxt_motor_quad_decode+0x18c>
  2093b0:	e51b3008 	ldr	r3, [fp, #-8]
  2093b4:	e3530000 	cmp	r3, #0
  2093b8:	1a000011 	bne	209404 <nxt_motor_quad_decode+0x13c>
  2093bc:	e51b3004 	ldr	r3, [fp, #-4]
  2093c0:	e3530000 	cmp	r3, #0
  2093c4:	0a00000e 	beq	209404 <nxt_motor_quad_decode+0x13c>
  2093c8:	e51b300c 	ldr	r3, [fp, #-12]
  2093cc:	e5933000 	ldr	r3, [r3]
  2093d0:	e2832001 	add	r2, r3, #1
  2093d4:	e51b300c 	ldr	r3, [fp, #-12]
  2093d8:	e5832000 	str	r2, [r3]
  2093dc:	e51b300c 	ldr	r3, [fp, #-12]
  2093e0:	e5933004 	ldr	r3, [r3, #4]
  2093e4:	e3530000 	cmp	r3, #0
  2093e8:	0a000019 	beq	209454 <nxt_motor_quad_decode+0x18c>
  2093ec:	e51b300c 	ldr	r3, [fp, #-12]
  2093f0:	e5933004 	ldr	r3, [r3, #4]
  2093f4:	e2432001 	sub	r2, r3, #1
  2093f8:	e51b300c 	ldr	r3, [fp, #-12]
  2093fc:	e5832004 	str	r2, [r3, #4]
  209400:	ea000013 	b	209454 <nxt_motor_quad_decode+0x18c>
  209404:	e51b3008 	ldr	r3, [fp, #-8]
  209408:	e3530000 	cmp	r3, #0
  20940c:	1a000010 	bne	209454 <nxt_motor_quad_decode+0x18c>
  209410:	e51b3004 	ldr	r3, [fp, #-4]
  209414:	e3530000 	cmp	r3, #0
  209418:	1a00000d 	bne	209454 <nxt_motor_quad_decode+0x18c>
  20941c:	e51b300c 	ldr	r3, [fp, #-12]
  209420:	e5933000 	ldr	r3, [r3]
  209424:	e2432001 	sub	r2, r3, #1
  209428:	e51b300c 	ldr	r3, [fp, #-12]
  20942c:	e5832000 	str	r2, [r3]
  209430:	e51b300c 	ldr	r3, [fp, #-12]
  209434:	e5933004 	ldr	r3, [r3, #4]
  209438:	e3530000 	cmp	r3, #0
  20943c:	0a000004 	beq	209454 <nxt_motor_quad_decode+0x18c>
  209440:	e51b300c 	ldr	r3, [fp, #-12]
  209444:	e5933004 	ldr	r3, [r3, #4]
  209448:	e2832001 	add	r2, r3, #1
  20944c:	e51b300c 	ldr	r3, [fp, #-12]
  209450:	e5832004 	str	r2, [r3, #4]
  209454:	e51b300c 	ldr	r3, [fp, #-12]
  209458:	e51b2008 	ldr	r2, [fp, #-8]
  20945c:	e583200c 	str	r2, [r3, #12]
  209460:	e28bd000 	add	sp, fp, #0
  209464:	e8bd0800 	pop	{fp}
  209468:	e12fff1e 	bx	lr

0020946c <nxt_motor_isr_C_function>:
  20946c:	e92d4800 	push	{fp, lr}
  209470:	e28db004 	add	fp, sp, #4
  209474:	e24dd010 	sub	sp, sp, #16
  209478:	ebfff5e8 	bl	206c20 <interrupts_get_and_disable>
  20947c:	e1a03000 	mov	r3, r0
  209480:	e50b3008 	str	r3, [fp, #-8]
  209484:	e3e03ebb 	mvn	r3, #2992	; 0xbb0
  209488:	e2433003 	sub	r3, r3, #3
  20948c:	e5933000 	ldr	r3, [r3]
  209490:	e50b300c 	str	r3, [fp, #-12]
  209494:	e3e03d2f 	mvn	r3, #3008	; 0xbc0
  209498:	e2433003 	sub	r3, r3, #3
  20949c:	e5933000 	ldr	r3, [r3]
  2094a0:	e50b3010 	str	r3, [fp, #-16]
  2094a4:	e59f30c4 	ldr	r3, [pc, #196]	; 209570 <nxt_motor_isr_C_function+0x104>
  2094a8:	e5933000 	ldr	r3, [r3]
  2094ac:	e2832001 	add	r2, r3, #1
  2094b0:	e59f30b8 	ldr	r3, [pc, #184]	; 209570 <nxt_motor_isr_C_function+0x104>
  2094b4:	e5832000 	str	r2, [r3]
  2094b8:	e59f30b0 	ldr	r3, [pc, #176]	; 209570 <nxt_motor_isr_C_function+0x104>
  2094bc:	e5933000 	ldr	r3, [r3]
  2094c0:	e3530004 	cmp	r3, #4
  2094c4:	9a000004 	bls	2094dc <nxt_motor_isr_C_function+0x70>
  2094c8:	e3e03ebb 	mvn	r3, #2992	; 0xbb0
  2094cc:	e243300b 	sub	r3, r3, #11
  2094d0:	e3a02341 	mov	r2, #67108865	; 0x4000001
  2094d4:	e2822902 	add	r2, r2, #32768	; 0x8000
  2094d8:	e5832000 	str	r2, [r3]
  2094dc:	e51b3010 	ldr	r3, [fp, #-16]
  2094e0:	e1a037a3 	lsr	r3, r3, #15
  2094e4:	e2032001 	and	r2, r3, #1
  2094e8:	e51b3010 	ldr	r3, [fp, #-16]
  2094ec:	e2033002 	and	r3, r3, #2
  2094f0:	e1823003 	orr	r3, r2, r3
  2094f4:	e50b3014 	str	r3, [fp, #-20]
  2094f8:	e59f0074 	ldr	r0, [pc, #116]	; 209574 <nxt_motor_isr_C_function+0x108>
  2094fc:	e51b1014 	ldr	r1, [fp, #-20]
  209500:	ebffff70 	bl	2092c8 <nxt_motor_quad_decode>
  209504:	e51b3010 	ldr	r3, [fp, #-16]
  209508:	e1a03d23 	lsr	r3, r3, #26
  20950c:	e2032001 	and	r2, r3, #1
  209510:	e51b3010 	ldr	r3, [fp, #-16]
  209514:	e1a03423 	lsr	r3, r3, #8
  209518:	e2033002 	and	r3, r3, #2
  20951c:	e1823003 	orr	r3, r2, r3
  209520:	e50b3014 	str	r3, [fp, #-20]
  209524:	e59f004c 	ldr	r0, [pc, #76]	; 209578 <nxt_motor_isr_C_function+0x10c>
  209528:	e51b1014 	ldr	r1, [fp, #-20]
  20952c:	ebffff65 	bl	2092c8 <nxt_motor_quad_decode>
  209530:	e51b3010 	ldr	r3, [fp, #-16]
  209534:	e2032001 	and	r2, r3, #1
  209538:	e51b3010 	ldr	r3, [fp, #-16]
  20953c:	e1a033a3 	lsr	r3, r3, #7
  209540:	e2033002 	and	r3, r3, #2
  209544:	e1823003 	orr	r3, r2, r3
  209548:	e50b3014 	str	r3, [fp, #-20]
  20954c:	e59f0028 	ldr	r0, [pc, #40]	; 20957c <nxt_motor_isr_C_function+0x110>
  209550:	e51b1014 	ldr	r1, [fp, #-20]
  209554:	ebffff5b 	bl	2092c8 <nxt_motor_quad_decode>
  209558:	e51b3008 	ldr	r3, [fp, #-8]
  20955c:	e3530000 	cmp	r3, #0
  209560:	0a000000 	beq	209568 <nxt_motor_isr_C_function+0xfc>
  209564:	ebfff5b6 	bl	206c44 <interrupts_enable>
  209568:	e24bd004 	sub	sp, fp, #4
  20956c:	e8bd8800 	pop	{fp, pc}
  209570:	0020c700 	.word	0x0020c700
  209574:	0020c6cc 	.word	0x0020c6cc
  209578:	0020c6dc 	.word	0x0020c6dc
  20957c:	0020c6ec 	.word	0x0020c6ec

00209580 <nxt_motor_init>:
  209580:	e92d4800 	push	{fp, lr}
  209584:	e28db004 	add	fp, sp, #4
  209588:	e24dd004 	sub	sp, sp, #4
  20958c:	e3a03482 	mov	r3, #-2113929216	; 0x82000000
  209590:	e1a03ac3 	asr	r3, r3, #21
  209594:	e3a02004 	mov	r2, #4
  209598:	e5832000 	str	r2, [r3]
  20959c:	e3e03ebb 	mvn	r3, #2992	; 0xbb0
  2095a0:	e243300b 	sub	r3, r3, #11
  2095a4:	e3e02000 	mvn	r2, #0
  2095a8:	e5832000 	str	r2, [r3]
  2095ac:	e3a034a1 	mov	r3, #-1593835520	; 0xa1000000
  2095b0:	e1a039c3 	asr	r3, r3, #19
  2095b4:	e3a02c83 	mov	r2, #33536	; 0x8300
  2095b8:	e28223c1 	add	r2, r2, #67108867	; 0x4000003
  2095bc:	e5832000 	str	r2, [r3]
  2095c0:	e3a034a3 	mov	r3, #-1560281088	; 0xa3000000
  2095c4:	e1a039c3 	asr	r3, r3, #19
  2095c8:	e3a02c83 	mov	r2, #33536	; 0x8300
  2095cc:	e28223c1 	add	r2, r2, #67108867	; 0x4000003
  2095d0:	e5832000 	str	r2, [r3]
  2095d4:	e3a0320a 	mov	r3, #-1610612736	; 0xa0000000
  2095d8:	e1a039c3 	asr	r3, r3, #19
  2095dc:	e3a02c83 	mov	r2, #33536	; 0x8300
  2095e0:	e28223c1 	add	r2, r2, #67108867	; 0x4000003
  2095e4:	e5832000 	str	r2, [r3]
  2095e8:	e3e03ebe 	mvn	r3, #3040	; 0xbe0
  2095ec:	e243300b 	sub	r3, r3, #11
  2095f0:	e3a02c83 	mov	r2, #33536	; 0x8300
  2095f4:	e28223c1 	add	r2, r2, #67108867	; 0x4000003
  2095f8:	e5832000 	str	r2, [r3]
  2095fc:	e3a00002 	mov	r0, #2
  209600:	ebfff7ca 	bl	207530 <aic_mask_off>
  209604:	e59f3080 	ldr	r3, [pc, #128]	; 20968c <nxt_motor_init+0x10c>
  209608:	e3a00002 	mov	r0, #2
  20960c:	e3a01004 	mov	r1, #4
  209610:	e1a02003 	mov	r2, r3
  209614:	ebfff797 	bl	207478 <aic_set_vector>
  209618:	e3a00002 	mov	r0, #2
  20961c:	ebfff7b1 	bl	2074e8 <aic_mask_on>
  209620:	e3a034a2 	mov	r3, #-1577058304	; 0xa2000000
  209624:	e1a039c3 	asr	r3, r3, #19
  209628:	e3a02341 	mov	r2, #67108865	; 0x4000001
  20962c:	e2822902 	add	r2, r2, #32768	; 0x8000
  209630:	e5832000 	str	r2, [r3]
  209634:	e3a03000 	mov	r3, #0
  209638:	e50b3008 	str	r3, [fp, #-8]
  20963c:	ea00000a 	b	20966c <nxt_motor_init+0xec>
  209640:	e59f1048 	ldr	r1, [pc, #72]	; 209690 <nxt_motor_init+0x110>
  209644:	e51b2008 	ldr	r2, [fp, #-8]
  209648:	e3a03004 	mov	r3, #4
  20964c:	e1a02202 	lsl	r2, r2, #4
  209650:	e0812002 	add	r2, r1, r2
  209654:	e0823003 	add	r3, r2, r3
  209658:	e3a02000 	mov	r2, #0
  20965c:	e5832000 	str	r2, [r3]
  209660:	e51b3008 	ldr	r3, [fp, #-8]
  209664:	e2833001 	add	r3, r3, #1
  209668:	e50b3008 	str	r3, [fp, #-8]
  20966c:	e51b3008 	ldr	r3, [fp, #-8]
  209670:	e3530002 	cmp	r3, #2
  209674:	9afffff1 	bls	209640 <nxt_motor_init+0xc0>
  209678:	e59f3014 	ldr	r3, [pc, #20]	; 209694 <nxt_motor_init+0x114>
  20967c:	e3a02001 	mov	r2, #1
  209680:	e5832000 	str	r2, [r3]
  209684:	e24bd004 	sub	sp, fp, #4
  209688:	e8bd8800 	pop	{fp, pc}
  20968c:	00202d1c 	.word	0x00202d1c
  209690:	0020c6cc 	.word	0x0020c6cc
  209694:	0020c6fc 	.word	0x0020c6fc

00209698 <bt_isr_C_function>:
  209698:	e52db004 	push	{fp}		; (str fp, [sp, #-4]!)
  20969c:	e28db000 	add	fp, sp, #0
  2096a0:	e24dd008 	sub	sp, sp, #8
  2096a4:	e3e03bef 	mvn	r3, #244736	; 0x3bc00
  2096a8:	e2433ffa 	sub	r3, r3, #1000	; 0x3e8
  2096ac:	e2433003 	sub	r3, r3, #3
  2096b0:	e5932000 	ldr	r2, [r3]
  2096b4:	e3a03143 	mov	r3, #-1073741808	; 0xc0000010
  2096b8:	e28335ff 	add	r3, r3, #1069547520	; 0x3fc00000
  2096bc:	e28339f1 	add	r3, r3, #3948544	; 0x3c4000
  2096c0:	e5933000 	ldr	r3, [r3]
  2096c4:	e0023003 	and	r3, r2, r3
  2096c8:	e50b3008 	str	r3, [fp, #-8]
  2096cc:	e51b3008 	ldr	r3, [fp, #-8]
  2096d0:	e2033008 	and	r3, r3, #8
  2096d4:	e3530000 	cmp	r3, #0
  2096d8:	0a00005c 	beq	209850 <bt_isr_C_function+0x1b8>
  2096dc:	e59f3188 	ldr	r3, [pc, #392]	; 20986c <bt_isr_C_function+0x1d4>
  2096e0:	e5d33000 	ldrb	r3, [r3]
  2096e4:	e3530000 	cmp	r3, #0
  2096e8:	0a000002 	beq	2096f8 <bt_isr_C_function+0x60>
  2096ec:	e3530001 	cmp	r3, #1
  2096f0:	0a000027 	beq	209794 <bt_isr_C_function+0xfc>
  2096f4:	ea00004b 	b	209828 <bt_isr_C_function+0x190>
  2096f8:	e59f3170 	ldr	r3, [pc, #368]	; 209870 <bt_isr_C_function+0x1d8>
  2096fc:	e5d33000 	ldrb	r3, [r3]
  209700:	e1a02003 	mov	r2, r3
  209704:	e59f3168 	ldr	r3, [pc, #360]	; 209874 <bt_isr_C_function+0x1dc>
  209708:	e1c320b0 	strh	r2, [r3]
  20970c:	e59f315c 	ldr	r3, [pc, #348]	; 209870 <bt_isr_C_function+0x1d8>
  209710:	e5d33001 	ldrb	r3, [r3, #1]
  209714:	e1a03403 	lsl	r3, r3, #8
  209718:	e1a03803 	lsl	r3, r3, #16
  20971c:	e1a02823 	lsr	r2, r3, #16
  209720:	e59f314c 	ldr	r3, [pc, #332]	; 209874 <bt_isr_C_function+0x1dc>
  209724:	e1d330b0 	ldrh	r3, [r3]
  209728:	e1a03803 	lsl	r3, r3, #16
  20972c:	e1a03823 	lsr	r3, r3, #16
  209730:	e1823003 	orr	r3, r2, r3
  209734:	e1a03803 	lsl	r3, r3, #16
  209738:	e1a03823 	lsr	r3, r3, #16
  20973c:	e1a03803 	lsl	r3, r3, #16
  209740:	e1a02823 	lsr	r2, r3, #16
  209744:	e59f3128 	ldr	r3, [pc, #296]	; 209874 <bt_isr_C_function+0x1dc>
  209748:	e1c320b0 	strh	r2, [r3]
  20974c:	e3a034ff 	mov	r3, #-16777216	; 0xff000000
  209750:	e283373f 	add	r3, r3, #16515072	; 0xfc0000
  209754:	e2833c41 	add	r3, r3, #16640	; 0x4100
  209758:	e59f2110 	ldr	r2, [pc, #272]	; 209870 <bt_isr_C_function+0x1d8>
  20975c:	e5832000 	str	r2, [r3]
  209760:	e3e03bef 	mvn	r3, #244736	; 0x3bc00
  209764:	e2433fbe 	sub	r3, r3, #760	; 0x2f8
  209768:	e2433003 	sub	r3, r3, #3
  20976c:	e59f2100 	ldr	r2, [pc, #256]	; 209874 <bt_isr_C_function+0x1dc>
  209770:	e1d220b0 	ldrh	r2, [r2]
  209774:	e5832000 	str	r2, [r3]
  209778:	e59f30ec 	ldr	r3, [pc, #236]	; 20986c <bt_isr_C_function+0x1d4>
  20977c:	e3a02001 	mov	r2, #1
  209780:	e5c32000 	strb	r2, [r3]
  209784:	e59f30ec 	ldr	r3, [pc, #236]	; 209878 <bt_isr_C_function+0x1e0>
  209788:	e3a02000 	mov	r2, #0
  20978c:	e5c32000 	strb	r2, [r3]
  209790:	ea000024 	b	209828 <bt_isr_C_function+0x190>
  209794:	e3a03000 	mov	r3, #0
  209798:	e50b3004 	str	r3, [fp, #-4]
  20979c:	ea00000a 	b	2097cc <bt_isr_C_function+0x134>
  2097a0:	e59f20c8 	ldr	r2, [pc, #200]	; 209870 <bt_isr_C_function+0x1d8>
  2097a4:	e51b3004 	ldr	r3, [fp, #-4]
  2097a8:	e0823003 	add	r3, r2, r3
  2097ac:	e5d32000 	ldrb	r2, [r3]
  2097b0:	e59f10c4 	ldr	r1, [pc, #196]	; 20987c <bt_isr_C_function+0x1e4>
  2097b4:	e51b3004 	ldr	r3, [fp, #-4]
  2097b8:	e0813003 	add	r3, r1, r3
  2097bc:	e5c32000 	strb	r2, [r3]
  2097c0:	e51b3004 	ldr	r3, [fp, #-4]
  2097c4:	e2833001 	add	r3, r3, #1
  2097c8:	e50b3004 	str	r3, [fp, #-4]
  2097cc:	e59f30a0 	ldr	r3, [pc, #160]	; 209874 <bt_isr_C_function+0x1dc>
  2097d0:	e1d330b0 	ldrh	r3, [r3]
  2097d4:	e1a02003 	mov	r2, r3
  2097d8:	e51b3004 	ldr	r3, [fp, #-4]
  2097dc:	e1520003 	cmp	r2, r3
  2097e0:	caffffee 	bgt	2097a0 <bt_isr_C_function+0x108>
  2097e4:	e3a034ff 	mov	r3, #-16777216	; 0xff000000
  2097e8:	e283373f 	add	r3, r3, #16515072	; 0xfc0000
  2097ec:	e2833c41 	add	r3, r3, #16640	; 0x4100
  2097f0:	e59f2078 	ldr	r2, [pc, #120]	; 209870 <bt_isr_C_function+0x1d8>
  2097f4:	e5832000 	str	r2, [r3]
  2097f8:	e3e03bef 	mvn	r3, #244736	; 0x3bc00
  2097fc:	e2433fbe 	sub	r3, r3, #760	; 0x2f8
  209800:	e2433003 	sub	r3, r3, #3
  209804:	e3a02002 	mov	r2, #2
  209808:	e5832000 	str	r2, [r3]
  20980c:	e59f3058 	ldr	r3, [pc, #88]	; 20986c <bt_isr_C_function+0x1d4>
  209810:	e3a02000 	mov	r2, #0
  209814:	e5c32000 	strb	r2, [r3]
  209818:	e59f3058 	ldr	r3, [pc, #88]	; 209878 <bt_isr_C_function+0x1e0>
  20981c:	e3a02001 	mov	r2, #1
  209820:	e5c32000 	strb	r2, [r3]
  209824:	e1a00000 	nop			; (mov r0, r0)
  209828:	e3e03bef 	mvn	r3, #244736	; 0x3bc00
  20982c:	e2433e3f 	sub	r3, r3, #1008	; 0x3f0
  209830:	e2433003 	sub	r3, r3, #3
  209834:	e3a02008 	mov	r2, #8
  209838:	e5832000 	str	r2, [r3]
  20983c:	e3a0328f 	mov	r3, #-268435448	; 0xf0000008
  209840:	e28336ff 	add	r3, r3, #267386880	; 0xff00000
  209844:	e2833931 	add	r3, r3, #802816	; 0xc4000
  209848:	e3a02008 	mov	r2, #8
  20984c:	e5832000 	str	r2, [r3]
  209850:	e3a03322 	mov	r3, #-2013265920	; 0x88000000
  209854:	e1a036c3 	asr	r3, r3, #13
  209858:	e3a02c01 	mov	r2, #256	; 0x100
  20985c:	e5832000 	str	r2, [r3]
  209860:	e28bd000 	add	sp, fp, #0
  209864:	e8bd0800 	pop	{fp}
  209868:	e12fff1e 	bx	lr
  20986c:	0020c910 	.word	0x0020c910
  209870:	0020ccc0 	.word	0x0020ccc0
  209874:	0020c912 	.word	0x0020c912
  209878:	0020c914 	.word	0x0020c914
  20987c:	0020cdc0 	.word	0x0020cdc0

00209880 <bt_init>:
  209880:	e92d4800 	push	{fp, lr}
  209884:	e28db004 	add	fp, sp, #4
  209888:	e24dd008 	sub	sp, sp, #8
  20988c:	ebfff4e3 	bl	206c20 <interrupts_get_and_disable>
  209890:	e50b0008 	str	r0, [fp, #-8]
  209894:	e59f32d8 	ldr	r3, [pc, #728]	; 209b74 <bt_init+0x2f4>
  209898:	e3a02000 	mov	r2, #0
  20989c:	e5c32000 	strb	r2, [r3]
  2098a0:	e59f32cc 	ldr	r3, [pc, #716]	; 209b74 <bt_init+0x2f4>
  2098a4:	e5d32000 	ldrb	r2, [r3]
  2098a8:	e59f32c8 	ldr	r3, [pc, #712]	; 209b78 <bt_init+0x2f8>
  2098ac:	e5c32000 	strb	r2, [r3]
  2098b0:	e59f32c4 	ldr	r3, [pc, #708]	; 209b7c <bt_init+0x2fc>
  2098b4:	e3a02000 	mov	r2, #0
  2098b8:	e5832000 	str	r2, [r3]
  2098bc:	e3a03482 	mov	r3, #-2113929216	; 0x82000000
  2098c0:	e1a03ac3 	asr	r3, r3, #21
  2098c4:	e3a02004 	mov	r2, #4
  2098c8:	e5832000 	str	r2, [r3]
  2098cc:	e3a03482 	mov	r3, #-2113929216	; 0x82000000
  2098d0:	e1a03ac3 	asr	r3, r3, #21
  2098d4:	e3a02080 	mov	r2, #128	; 0x80
  2098d8:	e5832000 	str	r2, [r3]
  2098dc:	e3e03ebf 	mvn	r3, #3056	; 0xbf0
  2098e0:	e243300b 	sub	r3, r3, #11
  2098e4:	e3a0263e 	mov	r2, #65011712	; 0x3e00000
  2098e8:	e5832000 	str	r2, [r3]
  2098ec:	e3a03000 	mov	r3, #0
  2098f0:	e2433eb9 	sub	r3, r3, #2960	; 0xb90
  2098f4:	e3a0263e 	mov	r2, #65011712	; 0x3e00000
  2098f8:	e5832000 	str	r2, [r3]
  2098fc:	e3a0320a 	mov	r3, #-1610612736	; 0xa0000000
  209900:	e1a039c3 	asr	r3, r3, #19
  209904:	e3a02102 	mov	r2, #-2147483648	; 0x80000000
  209908:	e2822b02 	add	r2, r2, #2048	; 0x800
  20990c:	e5832000 	str	r2, [r3]
  209910:	e3a03000 	mov	r3, #0
  209914:	e2433ebf 	sub	r3, r3, #3056	; 0xbf0
  209918:	e3a02102 	mov	r2, #-2147483648	; 0x80000000
  20991c:	e2822b02 	add	r2, r2, #2048	; 0x800
  209920:	e5832000 	str	r2, [r3]
  209924:	e3a03000 	mov	r3, #0
  209928:	e2433ebd 	sub	r3, r3, #3024	; 0xbd0
  20992c:	e3a02102 	mov	r2, #-2147483648	; 0x80000000
  209930:	e2822b02 	add	r2, r2, #2048	; 0x800
  209934:	e5832000 	str	r2, [r3]
  209938:	e3a034a3 	mov	r3, #-1560281088	; 0xa3000000
  20993c:	e1a039c3 	asr	r3, r3, #19
  209940:	e3a02302 	mov	r2, #134217728	; 0x8000000
  209944:	e5832000 	str	r2, [r3]
  209948:	e3a0320a 	mov	r3, #-1610612736	; 0xa0000000
  20994c:	e1a039c3 	asr	r3, r3, #19
  209950:	e3a02302 	mov	r2, #134217728	; 0x8000000
  209954:	e5832000 	str	r2, [r3]
  209958:	e3e03d2f 	mvn	r3, #3008	; 0xbc0
  20995c:	e243300b 	sub	r3, r3, #11
  209960:	e3a02302 	mov	r2, #134217728	; 0x8000000
  209964:	e5832000 	str	r2, [r3]
  209968:	e3a03000 	mov	r3, #0
  20996c:	e2433ebf 	sub	r3, r3, #3056	; 0xbf0
  209970:	e3a02302 	mov	r2, #134217728	; 0x8000000
  209974:	e5832000 	str	r2, [r3]
  209978:	e3a00007 	mov	r0, #7
  20997c:	ebfff6eb 	bl	207530 <aic_mask_off>
  209980:	e59f31f8 	ldr	r3, [pc, #504]	; 209b80 <bt_init+0x300>
  209984:	e3a00007 	mov	r0, #7
  209988:	e3a01025 	mov	r1, #37	; 0x25
  20998c:	e1a02003 	mov	r2, r3
  209990:	ebfff6b8 	bl	207478 <aic_set_vector>
  209994:	e3a00007 	mov	r0, #7
  209998:	ebfff6f6 	bl	207578 <aic_clear>
  20999c:	e3a00007 	mov	r0, #7
  2099a0:	ebfff6d0 	bl	2074e8 <aic_mask_on>
  2099a4:	e3a03322 	mov	r3, #-2013265920	; 0x88000000
  2099a8:	e1a036c3 	asr	r3, r3, #13
  2099ac:	e3a02c01 	mov	r2, #256	; 0x100
  2099b0:	e5832000 	str	r2, [r3]
  2099b4:	e3a03322 	mov	r3, #-2013265920	; 0x88000000
  2099b8:	e1a036c3 	asr	r3, r3, #13
  2099bc:	e3a02b02 	mov	r2, #2048	; 0x800
  2099c0:	e5832000 	str	r2, [r3]
  2099c4:	e3e03bef 	mvn	r3, #244736	; 0x3bc00
  2099c8:	e2433ff6 	sub	r3, r3, #984	; 0x3d8
  2099cc:	e2433003 	sub	r3, r3, #3
  2099d0:	e3a02000 	mov	r2, #0
  2099d4:	e5832000 	str	r2, [r3]
  2099d8:	e3e03bef 	mvn	r3, #244736	; 0x3bc00
  2099dc:	e2433e3f 	sub	r3, r3, #1008	; 0x3f0
  2099e0:	e2433003 	sub	r3, r3, #3
  2099e4:	e3a02c01 	mov	r2, #256	; 0x100
  2099e8:	e5832000 	str	r2, [r3]
  2099ec:	e3a0324f 	mov	r3, #-268435452	; 0xf0000004
  2099f0:	e28336ff 	add	r3, r3, #267386880	; 0xff00000
  2099f4:	e2833931 	add	r3, r3, #802816	; 0xc4000
  2099f8:	e3a02702 	mov	r2, #524288	; 0x80000
  2099fc:	e2822d23 	add	r2, r2, #2240	; 0x8c0
  209a00:	e2822002 	add	r2, r2, #2
  209a04:	e5832000 	str	r2, [r3]
  209a08:	e3a03183 	mov	r3, #-1073741792	; 0xc0000020
  209a0c:	e28335ff 	add	r3, r3, #1069547520	; 0x3fc00000
  209a10:	e28339f1 	add	r3, r3, #3948544	; 0x3c4000
  209a14:	e3a0200d 	mov	r2, #13
  209a18:	e5832000 	str	r2, [r3]
  209a1c:	e3e03bef 	mvn	r3, #244736	; 0x3bc00
  209a20:	e2433fb7 	sub	r3, r3, #732	; 0x2dc
  209a24:	e2433003 	sub	r3, r3, #3
  209a28:	e3a02c02 	mov	r2, #512	; 0x200
  209a2c:	e2822002 	add	r2, r2, #2
  209a30:	e5832000 	str	r2, [r3]
  209a34:	e3e03bef 	mvn	r3, #244736	; 0x3bc00
  209a38:	e2433fbe 	sub	r3, r3, #760	; 0x2f8
  209a3c:	e2433003 	sub	r3, r3, #3
  209a40:	e3a02000 	mov	r2, #0
  209a44:	e5832000 	str	r2, [r3]
  209a48:	e3e03bef 	mvn	r3, #244736	; 0x3bc00
  209a4c:	e2433e2f 	sub	r3, r3, #752	; 0x2f0
  209a50:	e2433003 	sub	r3, r3, #3
  209a54:	e3a02000 	mov	r2, #0
  209a58:	e5832000 	str	r2, [r3]
  209a5c:	e3e03bef 	mvn	r3, #244736	; 0x3bc00
  209a60:	e2433fbb 	sub	r3, r3, #748	; 0x2ec
  209a64:	e2433003 	sub	r3, r3, #3
  209a68:	e3a02000 	mov	r2, #0
  209a6c:	e5832000 	str	r2, [r3]
  209a70:	e3e03bef 	mvn	r3, #244736	; 0x3bc00
  209a74:	e2433fb9 	sub	r3, r3, #740	; 0x2e4
  209a78:	e2433003 	sub	r3, r3, #3
  209a7c:	e3a02000 	mov	r2, #0
  209a80:	e5832000 	str	r2, [r3]
  209a84:	e3e03bef 	mvn	r3, #244736	; 0x3bc00
  209a88:	e2433ff9 	sub	r3, r3, #996	; 0x3e4
  209a8c:	e2433003 	sub	r3, r3, #3
  209a90:	e5933000 	ldr	r3, [r3]
  209a94:	e54b3009 	strb	r3, [fp, #-9]
  209a98:	e3e03bef 	mvn	r3, #244736	; 0x3bc00
  209a9c:	e2433ffa 	sub	r3, r3, #1000	; 0x3e8
  209aa0:	e2433003 	sub	r3, r3, #3
  209aa4:	e5933000 	ldr	r3, [r3]
  209aa8:	e54b3009 	strb	r3, [fp, #-9]
  209aac:	e3a034ff 	mov	r3, #-16777216	; 0xff000000
  209ab0:	e283373f 	add	r3, r3, #16515072	; 0xfc0000
  209ab4:	e2833c41 	add	r3, r3, #16640	; 0x4100
  209ab8:	e59f20c4 	ldr	r2, [pc, #196]	; 209b84 <bt_init+0x304>
  209abc:	e5832000 	str	r2, [r3]
  209ac0:	e3e03bef 	mvn	r3, #244736	; 0x3bc00
  209ac4:	e2433fbe 	sub	r3, r3, #760	; 0x2f8
  209ac8:	e2433003 	sub	r3, r3, #3
  209acc:	e3a02080 	mov	r2, #128	; 0x80
  209ad0:	e5832000 	str	r2, [r3]
  209ad4:	e3e03bef 	mvn	r3, #244736	; 0x3bc00
  209ad8:	e2433fbb 	sub	r3, r3, #748	; 0x2ec
  209adc:	e2433003 	sub	r3, r3, #3
  209ae0:	e59f209c 	ldr	r2, [pc, #156]	; 209b84 <bt_init+0x304>
  209ae4:	e2822080 	add	r2, r2, #128	; 0x80
  209ae8:	e5832000 	str	r2, [r3]
  209aec:	e3e03bef 	mvn	r3, #244736	; 0x3bc00
  209af0:	e2433fba 	sub	r3, r3, #744	; 0x2e8
  209af4:	e2433003 	sub	r3, r3, #3
  209af8:	e3a02080 	mov	r2, #128	; 0x80
  209afc:	e5832000 	str	r2, [r3]
  209b00:	e3a03322 	mov	r3, #-2013265920	; 0x88000000
  209b04:	e1a036c3 	asr	r3, r3, #13
  209b08:	e3a02050 	mov	r2, #80	; 0x50
  209b0c:	e5832000 	str	r2, [r3]
  209b10:	e3e03bef 	mvn	r3, #244736	; 0x3bc00
  209b14:	e2433fb7 	sub	r3, r3, #732	; 0x2dc
  209b18:	e2433003 	sub	r3, r3, #3
  209b1c:	e3a02c01 	mov	r2, #256	; 0x100
  209b20:	e2822001 	add	r2, r2, #1
  209b24:	e5832000 	str	r2, [r3]
  209b28:	e3a0328f 	mov	r3, #-268435448	; 0xf0000008
  209b2c:	e28336ff 	add	r3, r3, #267386880	; 0xff00000
  209b30:	e2833931 	add	r3, r3, #802816	; 0xc4000
  209b34:	e3a02008 	mov	r2, #8
  209b38:	e5832000 	str	r2, [r3]
  209b3c:	e3a03143 	mov	r3, #-1073741808	; 0xc0000010
  209b40:	e28335ff 	add	r3, r3, #1069547520	; 0x3fc00000
  209b44:	e28339f1 	add	r3, r3, #3948544	; 0x3c4000
  209b48:	e3a02000 	mov	r2, #0
  209b4c:	e5832000 	str	r2, [r3]
  209b50:	e59f202c 	ldr	r2, [pc, #44]	; 209b84 <bt_init+0x304>
  209b54:	e59f302c 	ldr	r3, [pc, #44]	; 209b88 <bt_init+0x308>
  209b58:	e5832000 	str	r2, [r3]
  209b5c:	e51b3008 	ldr	r3, [fp, #-8]
  209b60:	e3530000 	cmp	r3, #0
  209b64:	0a000000 	beq	209b6c <bt_init+0x2ec>
  209b68:	ebfff435 	bl	206c44 <interrupts_enable>
  209b6c:	e24bd004 	sub	sp, fp, #4
  209b70:	e8bd8800 	pop	{fp, pc}
  209b74:	0020c705 	.word	0x0020c705
  209b78:	0020c704 	.word	0x0020c704
  209b7c:	0020c90c 	.word	0x0020c90c
  209b80:	00202d1c 	.word	0x00202d1c
  209b84:	0020ccc0 	.word	0x0020ccc0
  209b88:	0020c908 	.word	0x0020c908

00209b8c <bt_send>:
  209b8c:	e92d4800 	push	{fp, lr}
  209b90:	e28db004 	add	fp, sp, #4
  209b94:	e24dd008 	sub	sp, sp, #8
  209b98:	e50b0008 	str	r0, [fp, #-8]
  209b9c:	e50b100c 	str	r1, [fp, #-12]
  209ba0:	e3e03bef 	mvn	r3, #244736	; 0x3bc00
  209ba4:	e2433e2e 	sub	r3, r3, #736	; 0x2e0
  209ba8:	e2433003 	sub	r3, r3, #3
  209bac:	e5933000 	ldr	r3, [r3]
  209bb0:	e3530000 	cmp	r3, #0
  209bb4:	1a000021 	bne	209c40 <bt_send+0xb4>
  209bb8:	e59f3088 	ldr	r3, [pc, #136]	; 209c48 <bt_send+0xbc>
  209bbc:	e5d33000 	ldrb	r3, [r3]
  209bc0:	e1a02403 	lsl	r2, r3, #8
  209bc4:	e59f3080 	ldr	r3, [pc, #128]	; 209c4c <bt_send+0xc0>
  209bc8:	e0823003 	add	r3, r2, r3
  209bcc:	e1a00003 	mov	r0, r3
  209bd0:	e51b1008 	ldr	r1, [fp, #-8]
  209bd4:	e51b200c 	ldr	r2, [fp, #-12]
  209bd8:	eb000665 	bl	20b574 <memcpy>
  209bdc:	e3e03bef 	mvn	r3, #244736	; 0x3bc00
  209be0:	e2433fb9 	sub	r3, r3, #740	; 0x2e4
  209be4:	e2433003 	sub	r3, r3, #3
  209be8:	e59f105c 	ldr	r1, [pc, #92]	; 209c4c <bt_send+0xc0>
  209bec:	e59f2054 	ldr	r2, [pc, #84]	; 209c48 <bt_send+0xbc>
  209bf0:	e5d22000 	ldrb	r2, [r2]
  209bf4:	e1a02402 	lsl	r2, r2, #8
  209bf8:	e0812002 	add	r2, r1, r2
  209bfc:	e5832000 	str	r2, [r3]
  209c00:	e3e03bef 	mvn	r3, #244736	; 0x3bc00
  209c04:	e2433e2e 	sub	r3, r3, #736	; 0x2e0
  209c08:	e2433003 	sub	r3, r3, #3
  209c0c:	e51b200c 	ldr	r2, [fp, #-12]
  209c10:	e5832000 	str	r2, [r3]
  209c14:	e59f302c 	ldr	r3, [pc, #44]	; 209c48 <bt_send+0xbc>
  209c18:	e5d33000 	ldrb	r3, [r3]
  209c1c:	e2832001 	add	r2, r3, #1
  209c20:	e1a03fc2 	asr	r3, r2, #31
  209c24:	e1a03fa3 	lsr	r3, r3, #31
  209c28:	e0822003 	add	r2, r2, r3
  209c2c:	e2022001 	and	r2, r2, #1
  209c30:	e0633002 	rsb	r3, r3, r2
  209c34:	e20320ff 	and	r2, r3, #255	; 0xff
  209c38:	e59f3008 	ldr	r3, [pc, #8]	; 209c48 <bt_send+0xbc>
  209c3c:	e5c32000 	strb	r2, [r3]
  209c40:	e24bd004 	sub	sp, fp, #4
  209c44:	e8bd8800 	pop	{fp, pc}
  209c48:	0020c705 	.word	0x0020c705
  209c4c:	0020c708 	.word	0x0020c708

00209c50 <bt_clear_arm7_cmd>:
  209c50:	e52db004 	push	{fp}		; (str fp, [sp, #-4]!)
  209c54:	e28db000 	add	fp, sp, #0
  209c58:	e3e03d2f 	mvn	r3, #3008	; 0xbc0
  209c5c:	e243300b 	sub	r3, r3, #11
  209c60:	e3a02302 	mov	r2, #134217728	; 0x8000000
  209c64:	e5832000 	str	r2, [r3]
  209c68:	e28bd000 	add	sp, fp, #0
  209c6c:	e8bd0800 	pop	{fp}
  209c70:	e12fff1e 	bx	lr

00209c74 <display_update>:
  209c74:	e92d4800 	push	{fp, lr}
  209c78:	e28db004 	add	fp, sp, #4
  209c7c:	e59f300c 	ldr	r3, [pc, #12]	; 209c90 <display_update+0x1c>
  209c80:	e3a02000 	mov	r2, #0
  209c84:	e5832000 	str	r2, [r3]
  209c88:	eb000436 	bl	20ad68 <nxt_lcd_update>
  209c8c:	e8bd8800 	pop	{fp, pc}
  209c90:	0020cca0 	.word	0x0020cca0

00209c94 <display_force_update>:
  209c94:	e92d4800 	push	{fp, lr}
  209c98:	e28db004 	add	fp, sp, #4
  209c9c:	eb000413 	bl	20acf0 <nxt_lcd_force_update>
  209ca0:	e8bd8800 	pop	{fp, pc}

00209ca4 <display_clear>:
  209ca4:	e92d4800 	push	{fp, lr}
  209ca8:	e28db004 	add	fp, sp, #4
  209cac:	e24dd004 	sub	sp, sp, #4
  209cb0:	e50b0008 	str	r0, [fp, #-8]
  209cb4:	e59f3028 	ldr	r3, [pc, #40]	; 209ce4 <display_clear+0x40>
  209cb8:	e5933000 	ldr	r3, [r3]
  209cbc:	e1a00003 	mov	r0, r3
  209cc0:	e3a01000 	mov	r1, #0
  209cc4:	e3a02e32 	mov	r2, #800	; 0x320
  209cc8:	eb0006a4 	bl	20b760 <memset>
  209ccc:	e51b3008 	ldr	r3, [fp, #-8]
  209cd0:	e3530000 	cmp	r3, #0
  209cd4:	0a000000 	beq	209cdc <display_clear+0x38>
  209cd8:	ebffffe5 	bl	209c74 <display_update>
  209cdc:	e24bd004 	sub	sp, fp, #4
  209ce0:	e8bd8800 	pop	{fp, pc}
  209ce4:	0020baf0 	.word	0x0020baf0

00209ce8 <display_goto_xy>:
  209ce8:	e52db004 	push	{fp}		; (str fp, [sp, #-4]!)
  209cec:	e28db000 	add	fp, sp, #0
  209cf0:	e24dd008 	sub	sp, sp, #8
  209cf4:	e50b0004 	str	r0, [fp, #-4]
  209cf8:	e50b1008 	str	r1, [fp, #-8]
  209cfc:	e59f301c 	ldr	r3, [pc, #28]	; 209d20 <display_goto_xy+0x38>
  209d00:	e51b2004 	ldr	r2, [fp, #-4]
  209d04:	e5832000 	str	r2, [r3]
  209d08:	e59f3014 	ldr	r3, [pc, #20]	; 209d24 <display_goto_xy+0x3c>
  209d0c:	e51b2008 	ldr	r2, [fp, #-8]
  209d10:	e5832000 	str	r2, [r3]
  209d14:	e28bd000 	add	sp, fp, #0
  209d18:	e8bd0800 	pop	{fp}
  209d1c:	e12fff1e 	bx	lr
  209d20:	0020ce40 	.word	0x0020ce40
  209d24:	0020ce44 	.word	0x0020ce44

00209d28 <display_char>:
  209d28:	e52db004 	push	{fp}		; (str fp, [sp, #-4]!)
  209d2c:	e28db000 	add	fp, sp, #0
  209d30:	e24dd010 	sub	sp, sp, #16
  209d34:	e50b0010 	str	r0, [fp, #-16]
  209d38:	e51b3010 	ldr	r3, [fp, #-16]
  209d3c:	e3530000 	cmp	r3, #0
  209d40:	ba000042 	blt	209e50 <display_char+0x128>
  209d44:	e51b3010 	ldr	r3, [fp, #-16]
  209d48:	e353007f 	cmp	r3, #127	; 0x7f
  209d4c:	ca00003f 	bgt	209e50 <display_char+0x128>
  209d50:	e59f3104 	ldr	r3, [pc, #260]	; 209e5c <display_char+0x134>
  209d54:	e5933000 	ldr	r3, [r3]
  209d58:	e3530000 	cmp	r3, #0
  209d5c:	ba00003b 	blt	209e50 <display_char+0x128>
  209d60:	e59f30f4 	ldr	r3, [pc, #244]	; 209e5c <display_char+0x134>
  209d64:	e5933000 	ldr	r3, [r3]
  209d68:	e353000f 	cmp	r3, #15
  209d6c:	ca000037 	bgt	209e50 <display_char+0x128>
  209d70:	e59f30e8 	ldr	r3, [pc, #232]	; 209e60 <display_char+0x138>
  209d74:	e5933000 	ldr	r3, [r3]
  209d78:	e3530000 	cmp	r3, #0
  209d7c:	ba000033 	blt	209e50 <display_char+0x128>
  209d80:	e59f30d8 	ldr	r3, [pc, #216]	; 209e60 <display_char+0x138>
  209d84:	e5933000 	ldr	r3, [r3]
  209d88:	e3530007 	cmp	r3, #7
  209d8c:	ca00002f 	bgt	209e50 <display_char+0x128>
  209d90:	e59f30cc 	ldr	r3, [pc, #204]	; 209e64 <display_char+0x13c>
  209d94:	e5933000 	ldr	r3, [r3]
  209d98:	e1a01003 	mov	r1, r3
  209d9c:	e59f30bc 	ldr	r3, [pc, #188]	; 209e60 <display_char+0x138>
  209da0:	e5933000 	ldr	r3, [r3]
  209da4:	e1a02003 	mov	r2, r3
  209da8:	e1a03002 	mov	r3, r2
  209dac:	e1a03103 	lsl	r3, r3, #2
  209db0:	e0833002 	add	r3, r3, r2
  209db4:	e1a02103 	lsl	r2, r3, #2
  209db8:	e0833002 	add	r3, r3, r2
  209dbc:	e1a03103 	lsl	r3, r3, #2
  209dc0:	e1a00003 	mov	r0, r3
  209dc4:	e59f3090 	ldr	r3, [pc, #144]	; 209e5c <display_char+0x134>
  209dc8:	e5932000 	ldr	r2, [r3]
  209dcc:	e1a03002 	mov	r3, r2
  209dd0:	e1a03083 	lsl	r3, r3, #1
  209dd4:	e0833002 	add	r3, r3, r2
  209dd8:	e1a03083 	lsl	r3, r3, #1
  209ddc:	e0803003 	add	r3, r0, r3
  209de0:	e0813003 	add	r3, r1, r3
  209de4:	e50b3008 	str	r3, [fp, #-8]
  209de8:	e59f1078 	ldr	r1, [pc, #120]	; 209e68 <display_char+0x140>
  209dec:	e51b2010 	ldr	r2, [fp, #-16]
  209df0:	e1a03002 	mov	r3, r2
  209df4:	e1a03103 	lsl	r3, r3, #2
  209df8:	e0833002 	add	r3, r3, r2
  209dfc:	e0813003 	add	r3, r1, r3
  209e00:	e50b300c 	str	r3, [fp, #-12]
  209e04:	e3a03000 	mov	r3, #0
  209e08:	e50b3004 	str	r3, [fp, #-4]
  209e0c:	ea00000c 	b	209e44 <display_char+0x11c>
  209e10:	e51b300c 	ldr	r3, [fp, #-12]
  209e14:	e5d32000 	ldrb	r2, [r3]
  209e18:	e51b3008 	ldr	r3, [fp, #-8]
  209e1c:	e5c32000 	strb	r2, [r3]
  209e20:	e51b3008 	ldr	r3, [fp, #-8]
  209e24:	e2833001 	add	r3, r3, #1
  209e28:	e50b3008 	str	r3, [fp, #-8]
  209e2c:	e51b300c 	ldr	r3, [fp, #-12]
  209e30:	e2833001 	add	r3, r3, #1
  209e34:	e50b300c 	str	r3, [fp, #-12]
  209e38:	e51b3004 	ldr	r3, [fp, #-4]
  209e3c:	e2833001 	add	r3, r3, #1
  209e40:	e50b3004 	str	r3, [fp, #-4]
  209e44:	e51b3004 	ldr	r3, [fp, #-4]
  209e48:	e3530004 	cmp	r3, #4
  209e4c:	daffffef 	ble	209e10 <display_char+0xe8>
  209e50:	e28bd000 	add	sp, fp, #0
  209e54:	e8bd0800 	pop	{fp}
  209e58:	e12fff1e 	bx	lr
  209e5c:	0020ce40 	.word	0x0020ce40
  209e60:	0020ce44 	.word	0x0020ce44
  209e64:	0020baf0 	.word	0x0020baf0
  209e68:	0020c118 	.word	0x0020c118

00209e6c <display_string>:
  209e6c:	e92d4800 	push	{fp, lr}
  209e70:	e28db004 	add	fp, sp, #4
  209e74:	e24dd004 	sub	sp, sp, #4
  209e78:	e50b0008 	str	r0, [fp, #-8]
  209e7c:	ea00001c 	b	209ef4 <display_string+0x88>
  209e80:	e51b3008 	ldr	r3, [fp, #-8]
  209e84:	e5d33000 	ldrb	r3, [r3]
  209e88:	e1a03c03 	lsl	r3, r3, #24
  209e8c:	e1a03c43 	asr	r3, r3, #24
  209e90:	e353000a 	cmp	r3, #10
  209e94:	0a00000b 	beq	209ec8 <display_string+0x5c>
  209e98:	e51b3008 	ldr	r3, [fp, #-8]
  209e9c:	e5d33000 	ldrb	r3, [r3]
  209ea0:	e1a03c03 	lsl	r3, r3, #24
  209ea4:	e1a03c43 	asr	r3, r3, #24
  209ea8:	e1a00003 	mov	r0, r3
  209eac:	ebffff9d 	bl	209d28 <display_char>
  209eb0:	e59f3054 	ldr	r3, [pc, #84]	; 209f0c <display_string+0xa0>
  209eb4:	e5933000 	ldr	r3, [r3]
  209eb8:	e2832001 	add	r2, r3, #1
  209ebc:	e59f3048 	ldr	r3, [pc, #72]	; 209f0c <display_string+0xa0>
  209ec0:	e5832000 	str	r2, [r3]
  209ec4:	ea000007 	b	209ee8 <display_string+0x7c>
  209ec8:	e59f303c 	ldr	r3, [pc, #60]	; 209f0c <display_string+0xa0>
  209ecc:	e3a02000 	mov	r2, #0
  209ed0:	e5832000 	str	r2, [r3]
  209ed4:	e59f3034 	ldr	r3, [pc, #52]	; 209f10 <display_string+0xa4>
  209ed8:	e5933000 	ldr	r3, [r3]
  209edc:	e2832001 	add	r2, r3, #1
  209ee0:	e59f3028 	ldr	r3, [pc, #40]	; 209f10 <display_string+0xa4>
  209ee4:	e5832000 	str	r2, [r3]
  209ee8:	e51b3008 	ldr	r3, [fp, #-8]
  209eec:	e2833001 	add	r3, r3, #1
  209ef0:	e50b3008 	str	r3, [fp, #-8]
  209ef4:	e51b3008 	ldr	r3, [fp, #-8]
  209ef8:	e5d33000 	ldrb	r3, [r3]
  209efc:	e3530000 	cmp	r3, #0
  209f00:	1affffde 	bne	209e80 <display_string+0x14>
  209f04:	e24bd004 	sub	sp, fp, #4
  209f08:	e8bd8800 	pop	{fp, pc}
  209f0c:	0020ce40 	.word	0x0020ce40
  209f10:	0020ce44 	.word	0x0020ce44

00209f14 <display_hex>:
  209f14:	e92d4800 	push	{fp, lr}
  209f18:	e28db004 	add	fp, sp, #4
  209f1c:	e24dd01c 	sub	sp, sp, #28
  209f20:	e50b001c 	str	r0, [fp, #-28]
  209f24:	e50b1020 	str	r1, [fp, #-32]
  209f28:	e24b3018 	sub	r3, fp, #24
  209f2c:	e2833008 	add	r3, r3, #8
  209f30:	e50b3008 	str	r3, [fp, #-8]
  209f34:	e3a03000 	mov	r3, #0
  209f38:	e50b300c 	str	r3, [fp, #-12]
  209f3c:	e51b3008 	ldr	r3, [fp, #-8]
  209f40:	e3a02000 	mov	r2, #0
  209f44:	e5c32000 	strb	r2, [r3]
  209f48:	e51b3020 	ldr	r3, [fp, #-32]
  209f4c:	e3530008 	cmp	r3, #8
  209f50:	9a000011 	bls	209f9c <display_hex+0x88>
  209f54:	e3a03008 	mov	r3, #8
  209f58:	e50b3020 	str	r3, [fp, #-32]
  209f5c:	ea00000e 	b	209f9c <display_hex+0x88>
  209f60:	e51b3008 	ldr	r3, [fp, #-8]
  209f64:	e2433001 	sub	r3, r3, #1
  209f68:	e50b3008 	str	r3, [fp, #-8]
  209f6c:	e51b300c 	ldr	r3, [fp, #-12]
  209f70:	e2833001 	add	r3, r3, #1
  209f74:	e50b300c 	str	r3, [fp, #-12]
  209f78:	e51b301c 	ldr	r3, [fp, #-28]
  209f7c:	e203300f 	and	r3, r3, #15
  209f80:	e59f2068 	ldr	r2, [pc, #104]	; 209ff0 <display_hex+0xdc>
  209f84:	e7d22003 	ldrb	r2, [r2, r3]
  209f88:	e51b3008 	ldr	r3, [fp, #-8]
  209f8c:	e5c32000 	strb	r2, [r3]
  209f90:	e51b301c 	ldr	r3, [fp, #-28]
  209f94:	e1a03223 	lsr	r3, r3, #4
  209f98:	e50b301c 	str	r3, [fp, #-28]
  209f9c:	e51b301c 	ldr	r3, [fp, #-28]
  209fa0:	e3530000 	cmp	r3, #0
  209fa4:	1affffed 	bne	209f60 <display_hex+0x4c>
  209fa8:	ea000008 	b	209fd0 <display_hex+0xbc>
  209fac:	e51b3008 	ldr	r3, [fp, #-8]
  209fb0:	e2433001 	sub	r3, r3, #1
  209fb4:	e50b3008 	str	r3, [fp, #-8]
  209fb8:	e51b300c 	ldr	r3, [fp, #-12]
  209fbc:	e2833001 	add	r3, r3, #1
  209fc0:	e50b300c 	str	r3, [fp, #-12]
  209fc4:	e51b3008 	ldr	r3, [fp, #-8]
  209fc8:	e3a02030 	mov	r2, #48	; 0x30
  209fcc:	e5c32000 	strb	r2, [r3]
  209fd0:	e51b200c 	ldr	r2, [fp, #-12]
  209fd4:	e51b3020 	ldr	r3, [fp, #-32]
  209fd8:	e1520003 	cmp	r2, r3
  209fdc:	3afffff2 	bcc	209fac <display_hex+0x98>
  209fe0:	e51b0008 	ldr	r0, [fp, #-8]
  209fe4:	ebffffa0 	bl	209e6c <display_string>
  209fe8:	e24bd004 	sub	sp, fp, #4
  209fec:	e8bd8800 	pop	{fp, pc}
  209ff0:	0020c048 	.word	0x0020c048

00209ff4 <display_unsigned_worker>:
  209ff4:	e92d4800 	push	{fp, lr}
  209ff8:	e28db004 	add	fp, sp, #4
  209ffc:	e24dd020 	sub	sp, sp, #32
  20a000:	e50b001c 	str	r0, [fp, #-28]
  20a004:	e50b1020 	str	r1, [fp, #-32]
  20a008:	e50b2024 	str	r2, [fp, #-36]	; 0x24
  20a00c:	e24b3018 	sub	r3, fp, #24
  20a010:	e283300b 	add	r3, r3, #11
  20a014:	e50b3008 	str	r3, [fp, #-8]
  20a018:	e3a03000 	mov	r3, #0
  20a01c:	e50b300c 	str	r3, [fp, #-12]
  20a020:	e51b3008 	ldr	r3, [fp, #-8]
  20a024:	e3a02000 	mov	r2, #0
  20a028:	e5c32000 	strb	r2, [r3]
  20a02c:	e51b3020 	ldr	r3, [fp, #-32]
  20a030:	e353000b 	cmp	r3, #11
  20a034:	9a00001c 	bls	20a0ac <display_unsigned_worker+0xb8>
  20a038:	e3a0300b 	mov	r3, #11
  20a03c:	e50b3020 	str	r3, [fp, #-32]
  20a040:	ea000019 	b	20a0ac <display_unsigned_worker+0xb8>
  20a044:	e51b3008 	ldr	r3, [fp, #-8]
  20a048:	e2433001 	sub	r3, r3, #1
  20a04c:	e50b3008 	str	r3, [fp, #-8]
  20a050:	e51b300c 	ldr	r3, [fp, #-12]
  20a054:	e2833001 	add	r3, r3, #1
  20a058:	e50b300c 	str	r3, [fp, #-12]
  20a05c:	e51b101c 	ldr	r1, [fp, #-28]
  20a060:	e59f3100 	ldr	r3, [pc, #256]	; 20a168 <display_unsigned_worker+0x174>
  20a064:	e0832391 	umull	r2, r3, r1, r3
  20a068:	e1a021a3 	lsr	r2, r3, #3
  20a06c:	e1a03002 	mov	r3, r2
  20a070:	e1a03103 	lsl	r3, r3, #2
  20a074:	e0833002 	add	r3, r3, r2
  20a078:	e1a03083 	lsl	r3, r3, #1
  20a07c:	e0632001 	rsb	r2, r3, r1
  20a080:	e20230ff 	and	r3, r2, #255	; 0xff
  20a084:	e2833030 	add	r3, r3, #48	; 0x30
  20a088:	e20330ff 	and	r3, r3, #255	; 0xff
  20a08c:	e20320ff 	and	r2, r3, #255	; 0xff
  20a090:	e51b3008 	ldr	r3, [fp, #-8]
  20a094:	e5c32000 	strb	r2, [r3]
  20a098:	e51b201c 	ldr	r2, [fp, #-28]
  20a09c:	e59f30c4 	ldr	r3, [pc, #196]	; 20a168 <display_unsigned_worker+0x174>
  20a0a0:	e0831392 	umull	r1, r3, r2, r3
  20a0a4:	e1a031a3 	lsr	r3, r3, #3
  20a0a8:	e50b301c 	str	r3, [fp, #-28]
  20a0ac:	e51b301c 	ldr	r3, [fp, #-28]
  20a0b0:	e3530000 	cmp	r3, #0
  20a0b4:	1affffe2 	bne	20a044 <display_unsigned_worker+0x50>
  20a0b8:	e51b300c 	ldr	r3, [fp, #-12]
  20a0bc:	e3530000 	cmp	r3, #0
  20a0c0:	1a000008 	bne	20a0e8 <display_unsigned_worker+0xf4>
  20a0c4:	e51b3008 	ldr	r3, [fp, #-8]
  20a0c8:	e2433001 	sub	r3, r3, #1
  20a0cc:	e50b3008 	str	r3, [fp, #-8]
  20a0d0:	e51b300c 	ldr	r3, [fp, #-12]
  20a0d4:	e2833001 	add	r3, r3, #1
  20a0d8:	e50b300c 	str	r3, [fp, #-12]
  20a0dc:	e51b3008 	ldr	r3, [fp, #-8]
  20a0e0:	e3a02030 	mov	r2, #48	; 0x30
  20a0e4:	e5c32000 	strb	r2, [r3]
  20a0e8:	e51b3024 	ldr	r3, [fp, #-36]	; 0x24
  20a0ec:	e3530000 	cmp	r3, #0
  20a0f0:	0a000013 	beq	20a144 <display_unsigned_worker+0x150>
  20a0f4:	e51b3008 	ldr	r3, [fp, #-8]
  20a0f8:	e2433001 	sub	r3, r3, #1
  20a0fc:	e50b3008 	str	r3, [fp, #-8]
  20a100:	e51b300c 	ldr	r3, [fp, #-12]
  20a104:	e2833001 	add	r3, r3, #1
  20a108:	e50b300c 	str	r3, [fp, #-12]
  20a10c:	e51b3008 	ldr	r3, [fp, #-8]
  20a110:	e3a0202d 	mov	r2, #45	; 0x2d
  20a114:	e5c32000 	strb	r2, [r3]
  20a118:	ea00000a 	b	20a148 <display_unsigned_worker+0x154>
  20a11c:	e51b3008 	ldr	r3, [fp, #-8]
  20a120:	e2433001 	sub	r3, r3, #1
  20a124:	e50b3008 	str	r3, [fp, #-8]
  20a128:	e51b300c 	ldr	r3, [fp, #-12]
  20a12c:	e2833001 	add	r3, r3, #1
  20a130:	e50b300c 	str	r3, [fp, #-12]
  20a134:	e51b3008 	ldr	r3, [fp, #-8]
  20a138:	e3a02020 	mov	r2, #32
  20a13c:	e5c32000 	strb	r2, [r3]
  20a140:	ea000000 	b	20a148 <display_unsigned_worker+0x154>
  20a144:	e1a00000 	nop			; (mov r0, r0)
  20a148:	e51b200c 	ldr	r2, [fp, #-12]
  20a14c:	e51b3020 	ldr	r3, [fp, #-32]
  20a150:	e1520003 	cmp	r2, r3
  20a154:	3afffff0 	bcc	20a11c <display_unsigned_worker+0x128>
  20a158:	e51b0008 	ldr	r0, [fp, #-8]
  20a15c:	ebffff42 	bl	209e6c <display_string>
  20a160:	e24bd004 	sub	sp, fp, #4
  20a164:	e8bd8800 	pop	{fp, pc}
  20a168:	cccccccd 	.word	0xcccccccd

0020a16c <display_unsigned>:
  20a16c:	e92d4800 	push	{fp, lr}
  20a170:	e28db004 	add	fp, sp, #4
  20a174:	e24dd008 	sub	sp, sp, #8
  20a178:	e50b0008 	str	r0, [fp, #-8]
  20a17c:	e50b100c 	str	r1, [fp, #-12]
  20a180:	e51b0008 	ldr	r0, [fp, #-8]
  20a184:	e51b100c 	ldr	r1, [fp, #-12]
  20a188:	e3a02000 	mov	r2, #0
  20a18c:	ebffff98 	bl	209ff4 <display_unsigned_worker>
  20a190:	e24bd004 	sub	sp, fp, #4
  20a194:	e8bd8800 	pop	{fp, pc}

0020a198 <display_int>:
  20a198:	e92d4800 	push	{fp, lr}
  20a19c:	e28db004 	add	fp, sp, #4
  20a1a0:	e24dd008 	sub	sp, sp, #8
  20a1a4:	e50b0008 	str	r0, [fp, #-8]
  20a1a8:	e50b100c 	str	r1, [fp, #-12]
  20a1ac:	e51b3008 	ldr	r3, [fp, #-8]
  20a1b0:	e3530000 	cmp	r3, #0
  20a1b4:	b2633000 	rsblt	r3, r3, #0
  20a1b8:	e1a02003 	mov	r2, r3
  20a1bc:	e51b3008 	ldr	r3, [fp, #-8]
  20a1c0:	e1a03fa3 	lsr	r3, r3, #31
  20a1c4:	e1a00002 	mov	r0, r2
  20a1c8:	e51b100c 	ldr	r1, [fp, #-12]
  20a1cc:	e1a02003 	mov	r2, r3
  20a1d0:	ebffff87 	bl	209ff4 <display_unsigned_worker>
  20a1d4:	e24bd004 	sub	sp, fp, #4
  20a1d8:	e8bd8800 	pop	{fp, pc}

0020a1dc <display_init>:
  20a1dc:	e92d4800 	push	{fp, lr}
  20a1e0:	e28db004 	add	fp, sp, #4
  20a1e4:	e59f2094 	ldr	r2, [pc, #148]	; 20a280 <display_init+0xa4>
  20a1e8:	e5d23001 	ldrb	r3, [r2, #1]
  20a1ec:	e3833040 	orr	r3, r3, #64	; 0x40
  20a1f0:	e5c23001 	strb	r3, [r2, #1]
  20a1f4:	e59f2084 	ldr	r2, [pc, #132]	; 20a280 <display_init+0xa4>
  20a1f8:	e5d23001 	ldrb	r3, [r2, #1]
  20a1fc:	e3833020 	orr	r3, r3, #32
  20a200:	e5c23001 	strb	r3, [r2, #1]
  20a204:	e59f2074 	ldr	r2, [pc, #116]	; 20a280 <display_init+0xa4>
  20a208:	e1d230b0 	ldrh	r3, [r2]
  20a20c:	e3c33f4d 	bic	r3, r3, #308	; 0x134
  20a210:	e3c33003 	bic	r3, r3, #3
  20a214:	e38330c8 	orr	r3, r3, #200	; 0xc8
  20a218:	e1c230b0 	strh	r3, [r2]
  20a21c:	e59f205c 	ldr	r2, [pc, #92]	; 20a280 <display_init+0xa4>
  20a220:	e5d23001 	ldrb	r3, [r2, #1]
  20a224:	e3833080 	orr	r3, r3, #128	; 0x80
  20a228:	e5c23001 	strb	r3, [r2, #1]
  20a22c:	e59f204c 	ldr	r2, [pc, #76]	; 20a280 <display_init+0xa4>
  20a230:	e5d23001 	ldrb	r3, [r2, #1]
  20a234:	e3c3300a 	bic	r3, r3, #10
  20a238:	e3833014 	orr	r3, r3, #20
  20a23c:	e5c23001 	strb	r3, [r2, #1]
  20a240:	e59f3038 	ldr	r3, [pc, #56]	; 20a280 <display_init+0xa4>
  20a244:	e3a02000 	mov	r2, #0
  20a248:	e5c32002 	strb	r2, [r3, #2]
  20a24c:	e59f302c 	ldr	r3, [pc, #44]	; 20a280 <display_init+0xa4>
  20a250:	e3a02000 	mov	r2, #0
  20a254:	e5c32003 	strb	r2, [r3, #3]
  20a258:	e3a00000 	mov	r0, #0
  20a25c:	ebfffe90 	bl	209ca4 <display_clear>
  20a260:	e59f301c 	ldr	r3, [pc, #28]	; 20a284 <display_init+0xa8>
  20a264:	e3a02001 	mov	r2, #1
  20a268:	e5832000 	str	r2, [r3]
  20a26c:	e59f3014 	ldr	r3, [pc, #20]	; 20a288 <display_init+0xac>
  20a270:	e5933000 	ldr	r3, [r3]
  20a274:	e1a00003 	mov	r0, r3
  20a278:	eb0002db 	bl	20adec <nxt_lcd_init>
  20a27c:	e8bd8800 	pop	{fp, pc}
  20a280:	0020c918 	.word	0x0020c918
  20a284:	0020baf4 	.word	0x0020baf4
  20a288:	0020baf0 	.word	0x0020baf0

0020a28c <init_sensors>:
  20a28c:	e92d4800 	push	{fp, lr}
  20a290:	e28db004 	add	fp, sp, #4
  20a294:	e24dd004 	sub	sp, sp, #4
  20a298:	e3a03000 	mov	r3, #0
  20a29c:	e50b3008 	str	r3, [fp, #-8]
  20a2a0:	ea00000a 	b	20a2d0 <init_sensors+0x44>
  20a2a4:	e51b0008 	ldr	r0, [fp, #-8]
  20a2a8:	eb000029 	bl	20a354 <unset_digi0>
  20a2ac:	e51b0008 	ldr	r0, [fp, #-8]
  20a2b0:	eb00005a 	bl	20a420 <unset_digi1>
  20a2b4:	e51b3008 	ldr	r3, [fp, #-8]
  20a2b8:	e1a00003 	mov	r0, r3
  20a2bc:	e3a01000 	mov	r1, #0
  20a2c0:	ebfff6bd 	bl	207dbc <nxt_avr_set_input_power>
  20a2c4:	e51b3008 	ldr	r3, [fp, #-8]
  20a2c8:	e2833001 	add	r3, r3, #1
  20a2cc:	e50b3008 	str	r3, [fp, #-8]
  20a2d0:	e51b3008 	ldr	r3, [fp, #-8]
  20a2d4:	e3530003 	cmp	r3, #3
  20a2d8:	dafffff1 	ble	20a2a4 <init_sensors+0x18>
  20a2dc:	e3a0320a 	mov	r3, #-1610612736	; 0xa0000000
  20a2e0:	e1a039c3 	asr	r3, r3, #19
  20a2e4:	e3a0220a 	mov	r2, #-1610612736	; 0xa0000000
  20a2e8:	e1a029c2 	asr	r2, r2, #19
  20a2ec:	e5922000 	ldr	r2, [r2]
  20a2f0:	e38220e0 	orr	r2, r2, #224	; 0xe0
  20a2f4:	e5832000 	str	r2, [r3]
  20a2f8:	e3a034a3 	mov	r3, #-1560281088	; 0xa3000000
  20a2fc:	e1a039c3 	asr	r3, r3, #19
  20a300:	e3a024a3 	mov	r2, #-1560281088	; 0xa3000000
  20a304:	e1a029c2 	asr	r2, r2, #19
  20a308:	e5922000 	ldr	r2, [r2]
  20a30c:	e38220e0 	orr	r2, r2, #224	; 0xe0
  20a310:	e5832000 	str	r2, [r3]
  20a314:	e3a03000 	mov	r3, #0
  20a318:	e2433ebf 	sub	r3, r3, #3056	; 0xbf0
  20a31c:	e3a02000 	mov	r2, #0
  20a320:	e2422ebf 	sub	r2, r2, #3056	; 0xbf0
  20a324:	e5922000 	ldr	r2, [r2]
  20a328:	e38220e0 	orr	r2, r2, #224	; 0xe0
  20a32c:	e5832000 	str	r2, [r3]
  20a330:	e3e03d2f 	mvn	r3, #3008	; 0xbc0
  20a334:	e243300b 	sub	r3, r3, #11
  20a338:	e3e02d2f 	mvn	r2, #3008	; 0xbc0
  20a33c:	e242200b 	sub	r2, r2, #11
  20a340:	e5922000 	ldr	r2, [r2]
  20a344:	e38220e0 	orr	r2, r2, #224	; 0xe0
  20a348:	e5832000 	str	r2, [r3]
  20a34c:	e24bd004 	sub	sp, fp, #4
  20a350:	e8bd8800 	pop	{fp, pc}

0020a354 <unset_digi0>:
  20a354:	e52db004 	push	{fp}		; (str fp, [sp, #-4]!)
  20a358:	e28db000 	add	fp, sp, #0
  20a35c:	e24dd014 	sub	sp, sp, #20
  20a360:	e50b0014 	str	r0, [fp, #-20]
  20a364:	e59f30b0 	ldr	r3, [pc, #176]	; 20a41c <unset_digi0+0xc8>
  20a368:	e24bc010 	sub	ip, fp, #16
  20a36c:	e893000f 	ldm	r3, {r0, r1, r2, r3}
  20a370:	e88c000f 	stm	ip, {r0, r1, r2, r3}
  20a374:	e3a0320a 	mov	r3, #-1610612736	; 0xa0000000
  20a378:	e1a039c3 	asr	r3, r3, #19
  20a37c:	e3a0220a 	mov	r2, #-1610612736	; 0xa0000000
  20a380:	e1a029c2 	asr	r2, r2, #19
  20a384:	e5921000 	ldr	r1, [r2]
  20a388:	e51b0014 	ldr	r0, [fp, #-20]
  20a38c:	e3e0200f 	mvn	r2, #15
  20a390:	e1a00100 	lsl	r0, r0, #2
  20a394:	e08b0000 	add	r0, fp, r0
  20a398:	e0802002 	add	r2, r0, r2
  20a39c:	e5922000 	ldr	r2, [r2]
  20a3a0:	e1812002 	orr	r2, r1, r2
  20a3a4:	e5832000 	str	r2, [r3]
  20a3a8:	e3a03000 	mov	r3, #0
  20a3ac:	e2433ebf 	sub	r3, r3, #3056	; 0xbf0
  20a3b0:	e3a02000 	mov	r2, #0
  20a3b4:	e2422ebf 	sub	r2, r2, #3056	; 0xbf0
  20a3b8:	e5921000 	ldr	r1, [r2]
  20a3bc:	e51b0014 	ldr	r0, [fp, #-20]
  20a3c0:	e3e0200f 	mvn	r2, #15
  20a3c4:	e1a00100 	lsl	r0, r0, #2
  20a3c8:	e08b0000 	add	r0, fp, r0
  20a3cc:	e0802002 	add	r2, r0, r2
  20a3d0:	e5922000 	ldr	r2, [r2]
  20a3d4:	e1812002 	orr	r2, r1, r2
  20a3d8:	e5832000 	str	r2, [r3]
  20a3dc:	e3e03d2f 	mvn	r3, #3008	; 0xbc0
  20a3e0:	e243300b 	sub	r3, r3, #11
  20a3e4:	e3e02d2f 	mvn	r2, #3008	; 0xbc0
  20a3e8:	e242200b 	sub	r2, r2, #11
  20a3ec:	e5921000 	ldr	r1, [r2]
  20a3f0:	e51b0014 	ldr	r0, [fp, #-20]
  20a3f4:	e3e0200f 	mvn	r2, #15
  20a3f8:	e1a00100 	lsl	r0, r0, #2
  20a3fc:	e08b0000 	add	r0, fp, r0
  20a400:	e0802002 	add	r2, r0, r2
  20a404:	e5922000 	ldr	r2, [r2]
  20a408:	e1812002 	orr	r2, r1, r2
  20a40c:	e5832000 	str	r2, [r3]
  20a410:	e28bd000 	add	sp, fp, #0
  20a414:	e8bd0800 	pop	{fp}
  20a418:	e12fff1e 	bx	lr
  20a41c:	0020c3a8 	.word	0x0020c3a8

0020a420 <unset_digi1>:
  20a420:	e52db004 	push	{fp}		; (str fp, [sp, #-4]!)
  20a424:	e28db000 	add	fp, sp, #0
  20a428:	e24dd014 	sub	sp, sp, #20
  20a42c:	e50b0014 	str	r0, [fp, #-20]
  20a430:	e59f30b0 	ldr	r3, [pc, #176]	; 20a4e8 <unset_digi1+0xc8>
  20a434:	e24bc010 	sub	ip, fp, #16
  20a438:	e893000f 	ldm	r3, {r0, r1, r2, r3}
  20a43c:	e88c000f 	stm	ip, {r0, r1, r2, r3}
  20a440:	e3a0320a 	mov	r3, #-1610612736	; 0xa0000000
  20a444:	e1a039c3 	asr	r3, r3, #19
  20a448:	e3a0220a 	mov	r2, #-1610612736	; 0xa0000000
  20a44c:	e1a029c2 	asr	r2, r2, #19
  20a450:	e5921000 	ldr	r1, [r2]
  20a454:	e51b0014 	ldr	r0, [fp, #-20]
  20a458:	e3e0200f 	mvn	r2, #15
  20a45c:	e1a00100 	lsl	r0, r0, #2
  20a460:	e08b0000 	add	r0, fp, r0
  20a464:	e0802002 	add	r2, r0, r2
  20a468:	e5922000 	ldr	r2, [r2]
  20a46c:	e1812002 	orr	r2, r1, r2
  20a470:	e5832000 	str	r2, [r3]
  20a474:	e3a03000 	mov	r3, #0
  20a478:	e2433ebf 	sub	r3, r3, #3056	; 0xbf0
  20a47c:	e3a02000 	mov	r2, #0
  20a480:	e2422ebf 	sub	r2, r2, #3056	; 0xbf0
  20a484:	e5921000 	ldr	r1, [r2]
  20a488:	e51b0014 	ldr	r0, [fp, #-20]
  20a48c:	e3e0200f 	mvn	r2, #15
  20a490:	e1a00100 	lsl	r0, r0, #2
  20a494:	e08b0000 	add	r0, fp, r0
  20a498:	e0802002 	add	r2, r0, r2
  20a49c:	e5922000 	ldr	r2, [r2]
  20a4a0:	e1812002 	orr	r2, r1, r2
  20a4a4:	e5832000 	str	r2, [r3]
  20a4a8:	e3e03d2f 	mvn	r3, #3008	; 0xbc0
  20a4ac:	e243300b 	sub	r3, r3, #11
  20a4b0:	e3e02d2f 	mvn	r2, #3008	; 0xbc0
  20a4b4:	e242200b 	sub	r2, r2, #11
  20a4b8:	e5921000 	ldr	r1, [r2]
  20a4bc:	e51b0014 	ldr	r0, [fp, #-20]
  20a4c0:	e3e0200f 	mvn	r2, #15
  20a4c4:	e1a00100 	lsl	r0, r0, #2
  20a4c8:	e08b0000 	add	r0, fp, r0
  20a4cc:	e0802002 	add	r2, r0, r2
  20a4d0:	e5922000 	ldr	r2, [r2]
  20a4d4:	e1812002 	orr	r2, r1, r2
  20a4d8:	e5832000 	str	r2, [r3]
  20a4dc:	e28bd000 	add	sp, fp, #0
  20a4e0:	e8bd0800 	pop	{fp}
  20a4e4:	e12fff1e 	bx	lr
  20a4e8:	0020c398 	.word	0x0020c398

0020a4ec <twi_status>:
  20a4ec:	e52db004 	push	{fp}		; (str fp, [sp, #-4]!)
  20a4f0:	e28db000 	add	fp, sp, #0
  20a4f4:	e59f303c 	ldr	r3, [pc, #60]	; 20a538 <twi_status+0x4c>
  20a4f8:	e5933000 	ldr	r3, [r3]
  20a4fc:	e3530003 	cmp	r3, #3
  20a500:	8a000007 	bhi	20a524 <twi_status+0x38>
  20a504:	e59f302c 	ldr	r3, [pc, #44]	; 20a538 <twi_status+0x4c>
  20a508:	e5933000 	ldr	r3, [r3]
  20a50c:	e3530001 	cmp	r3, #1
  20a510:	8a000001 	bhi	20a51c <twi_status+0x30>
  20a514:	e3e03000 	mvn	r3, #0
  20a518:	ea000000 	b	20a520 <twi_status+0x34>
  20a51c:	e3a03000 	mov	r3, #0
  20a520:	ea000000 	b	20a528 <twi_status+0x3c>
  20a524:	e3a03001 	mov	r3, #1
  20a528:	e1a00003 	mov	r0, r3
  20a52c:	e28bd000 	add	sp, fp, #0
  20a530:	e8bd0800 	pop	{fp}
  20a534:	e12fff1e 	bx	lr
  20a538:	0020cca4 	.word	0x0020cca4

0020a53c <twi_isr_C_function>:
  20a53c:	e52db004 	push	{fp}		; (str fp, [sp, #-4]!)
  20a540:	e28db000 	add	fp, sp, #0
  20a544:	e24dd004 	sub	sp, sp, #4
  20a548:	e3e03a47 	mvn	r3, #290816	; 0x47000
  20a54c:	e2433efd 	sub	r3, r3, #4048	; 0xfd0
  20a550:	e243300f 	sub	r3, r3, #15
  20a554:	e5932000 	ldr	r2, [r3]
  20a558:	e59f31b8 	ldr	r3, [pc, #440]	; 20a718 <twi_isr_C_function+0x1dc>
  20a55c:	e5933000 	ldr	r3, [r3]
  20a560:	e0023003 	and	r3, r2, r3
  20a564:	e50b3004 	str	r3, [fp, #-4]
  20a568:	e51b3004 	ldr	r3, [fp, #-4]
  20a56c:	e2033002 	and	r3, r3, #2
  20a570:	e3530000 	cmp	r3, #0
  20a574:	0a000024 	beq	20a60c <twi_isr_C_function+0xd0>
  20a578:	e59f319c 	ldr	r3, [pc, #412]	; 20a71c <twi_isr_C_function+0x1e0>
  20a57c:	e5932000 	ldr	r2, [r3]
  20a580:	e3e03a47 	mvn	r3, #290816	; 0x47000
  20a584:	e2433d3f 	sub	r3, r3, #4032	; 0xfc0
  20a588:	e243300f 	sub	r3, r3, #15
  20a58c:	e5933000 	ldr	r3, [r3]
  20a590:	e20330ff 	and	r3, r3, #255	; 0xff
  20a594:	e5c23000 	strb	r3, [r2]
  20a598:	e2822001 	add	r2, r2, #1
  20a59c:	e59f3178 	ldr	r3, [pc, #376]	; 20a71c <twi_isr_C_function+0x1e0>
  20a5a0:	e5832000 	str	r2, [r3]
  20a5a4:	e59f3174 	ldr	r3, [pc, #372]	; 20a720 <twi_isr_C_function+0x1e4>
  20a5a8:	e5933000 	ldr	r3, [r3]
  20a5ac:	e2432001 	sub	r2, r3, #1
  20a5b0:	e59f3168 	ldr	r3, [pc, #360]	; 20a720 <twi_isr_C_function+0x1e4>
  20a5b4:	e5832000 	str	r2, [r3]
  20a5b8:	e59f3160 	ldr	r3, [pc, #352]	; 20a720 <twi_isr_C_function+0x1e4>
  20a5bc:	e5933000 	ldr	r3, [r3]
  20a5c0:	e3530001 	cmp	r3, #1
  20a5c4:	1a000003 	bne	20a5d8 <twi_isr_C_function+0x9c>
  20a5c8:	e3a0332e 	mov	r3, #-1207959552	; 0xb8000000
  20a5cc:	e1a03643 	asr	r3, r3, #12
  20a5d0:	e3a02002 	mov	r2, #2
  20a5d4:	e5832000 	str	r2, [r3]
  20a5d8:	e59f3140 	ldr	r3, [pc, #320]	; 20a720 <twi_isr_C_function+0x1e4>
  20a5dc:	e5933000 	ldr	r3, [r3]
  20a5e0:	e3530000 	cmp	r3, #0
  20a5e4:	1a00003c 	bne	20a6dc <twi_isr_C_function+0x1a0>
  20a5e8:	e59f3134 	ldr	r3, [pc, #308]	; 20a724 <twi_isr_C_function+0x1e8>
  20a5ec:	e3a02003 	mov	r2, #3
  20a5f0:	e5832000 	str	r2, [r3]
  20a5f4:	e3e03a47 	mvn	r3, #290816	; 0x47000
  20a5f8:	e2433efd 	sub	r3, r3, #4048	; 0xfd0
  20a5fc:	e2433007 	sub	r3, r3, #7
  20a600:	e3a02002 	mov	r2, #2
  20a604:	e5832000 	str	r2, [r3]
  20a608:	ea000033 	b	20a6dc <twi_isr_C_function+0x1a0>
  20a60c:	e51b3004 	ldr	r3, [fp, #-4]
  20a610:	e2033004 	and	r3, r3, #4
  20a614:	e3530000 	cmp	r3, #0
  20a618:	0a000022 	beq	20a6a8 <twi_isr_C_function+0x16c>
  20a61c:	e59f30fc 	ldr	r3, [pc, #252]	; 20a720 <twi_isr_C_function+0x1e4>
  20a620:	e5933000 	ldr	r3, [r3]
  20a624:	e3530000 	cmp	r3, #0
  20a628:	0a00000f 	beq	20a66c <twi_isr_C_function+0x130>
  20a62c:	e3e03a47 	mvn	r3, #290816	; 0x47000
  20a630:	e2433d3f 	sub	r3, r3, #4032	; 0xfc0
  20a634:	e243300b 	sub	r3, r3, #11
  20a638:	e59f20dc 	ldr	r2, [pc, #220]	; 20a71c <twi_isr_C_function+0x1e0>
  20a63c:	e5922000 	ldr	r2, [r2]
  20a640:	e5d21000 	ldrb	r1, [r2]
  20a644:	e5831000 	str	r1, [r3]
  20a648:	e2822001 	add	r2, r2, #1
  20a64c:	e59f30c8 	ldr	r3, [pc, #200]	; 20a71c <twi_isr_C_function+0x1e0>
  20a650:	e5832000 	str	r2, [r3]
  20a654:	e59f30c4 	ldr	r3, [pc, #196]	; 20a720 <twi_isr_C_function+0x1e4>
  20a658:	e5933000 	ldr	r3, [r3]
  20a65c:	e2432001 	sub	r2, r3, #1
  20a660:	e59f30b8 	ldr	r3, [pc, #184]	; 20a720 <twi_isr_C_function+0x1e4>
  20a664:	e5832000 	str	r2, [r3]
  20a668:	ea00001b 	b	20a6dc <twi_isr_C_function+0x1a0>
  20a66c:	e3e03a47 	mvn	r3, #290816	; 0x47000
  20a670:	e2433efd 	sub	r3, r3, #4048	; 0xfd0
  20a674:	e2433007 	sub	r3, r3, #7
  20a678:	e3a02004 	mov	r2, #4
  20a67c:	e5832000 	str	r2, [r3]
  20a680:	e3e03a47 	mvn	r3, #290816	; 0x47000
  20a684:	e2433efd 	sub	r3, r3, #4048	; 0xfd0
  20a688:	e243300b 	sub	r3, r3, #11
  20a68c:	e3a02001 	mov	r2, #1
  20a690:	e5832000 	str	r2, [r3]
  20a694:	e59f207c 	ldr	r2, [pc, #124]	; 20a718 <twi_isr_C_function+0x1dc>
  20a698:	e3a03c01 	mov	r3, #256	; 0x100
  20a69c:	e2833001 	add	r3, r3, #1
  20a6a0:	e5823000 	str	r3, [r2]
  20a6a4:	ea00000c 	b	20a6dc <twi_isr_C_function+0x1a0>
  20a6a8:	e51b3004 	ldr	r3, [fp, #-4]
  20a6ac:	e2033001 	and	r3, r3, #1
  20a6b0:	e20330ff 	and	r3, r3, #255	; 0xff
  20a6b4:	e3530000 	cmp	r3, #0
  20a6b8:	0a000007 	beq	20a6dc <twi_isr_C_function+0x1a0>
  20a6bc:	e59f3060 	ldr	r3, [pc, #96]	; 20a724 <twi_isr_C_function+0x1e8>
  20a6c0:	e3a02003 	mov	r2, #3
  20a6c4:	e5832000 	str	r2, [r3]
  20a6c8:	e3e03a47 	mvn	r3, #290816	; 0x47000
  20a6cc:	e2433efd 	sub	r3, r3, #4048	; 0xfd0
  20a6d0:	e2433007 	sub	r3, r3, #7
  20a6d4:	e3a02001 	mov	r2, #1
  20a6d8:	e5832000 	str	r2, [r3]
  20a6dc:	e51b3004 	ldr	r3, [fp, #-4]
  20a6e0:	e2033c01 	and	r3, r3, #256	; 0x100
  20a6e4:	e3530000 	cmp	r3, #0
  20a6e8:	0a000007 	beq	20a70c <twi_isr_C_function+0x1d0>
  20a6ec:	e3e03a47 	mvn	r3, #290816	; 0x47000
  20a6f0:	e2433efd 	sub	r3, r3, #4048	; 0xfd0
  20a6f4:	e2433007 	sub	r3, r3, #7
  20a6f8:	e3e02000 	mvn	r2, #0
  20a6fc:	e5832000 	str	r2, [r3]
  20a700:	e59f301c 	ldr	r3, [pc, #28]	; 20a724 <twi_isr_C_function+0x1e8>
  20a704:	e3a02000 	mov	r2, #0
  20a708:	e5832000 	str	r2, [r3]
  20a70c:	e28bd000 	add	sp, fp, #0
  20a710:	e8bd0800 	pop	{fp}
  20a714:	e12fff1e 	bx	lr
  20a718:	0020ccb0 	.word	0x0020ccb0
  20a71c:	0020ccac 	.word	0x0020ccac
  20a720:	0020cca8 	.word	0x0020cca8
  20a724:	0020cca4 	.word	0x0020cca4

0020a728 <twi_reset>:
  20a728:	e92d4800 	push	{fp, lr}
  20a72c:	e28db004 	add	fp, sp, #4
  20a730:	e24dd004 	sub	sp, sp, #4
  20a734:	e3a03009 	mov	r3, #9
  20a738:	e50b3008 	str	r3, [fp, #-8]
  20a73c:	e3e03a47 	mvn	r3, #290816	; 0x47000
  20a740:	e2433efd 	sub	r3, r3, #4048	; 0xfd0
  20a744:	e2433007 	sub	r3, r3, #7
  20a748:	e3e02000 	mvn	r2, #0
  20a74c:	e5832000 	str	r2, [r3]
  20a750:	e3a03482 	mov	r3, #-2113929216	; 0x82000000
  20a754:	e1a03ac3 	asr	r3, r3, #21
  20a758:	e3a02f81 	mov	r2, #516	; 0x204
  20a75c:	e5832000 	str	r2, [r3]
  20a760:	e3a03000 	mov	r3, #0
  20a764:	e2433ebb 	sub	r3, r3, #2992	; 0xbb0
  20a768:	e3a02018 	mov	r2, #24
  20a76c:	e5832000 	str	r2, [r3]
  20a770:	e3a0320a 	mov	r3, #-1610612736	; 0xa0000000
  20a774:	e1a039c3 	asr	r3, r3, #19
  20a778:	e3a02018 	mov	r2, #24
  20a77c:	e5832000 	str	r2, [r3]
  20a780:	e3e03ebe 	mvn	r3, #3040	; 0xbe0
  20a784:	e243300b 	sub	r3, r3, #11
  20a788:	e3a02008 	mov	r2, #8
  20a78c:	e5832000 	str	r2, [r3]
  20a790:	e3a03000 	mov	r3, #0
  20a794:	e2433ebf 	sub	r3, r3, #3056	; 0xbf0
  20a798:	e3a02010 	mov	r2, #16
  20a79c:	e5832000 	str	r2, [r3]
  20a7a0:	ea000010 	b	20a7e8 <twi_reset+0xc0>
  20a7a4:	e3e03d2f 	mvn	r3, #3008	; 0xbc0
  20a7a8:	e243300b 	sub	r3, r3, #11
  20a7ac:	e3a02010 	mov	r2, #16
  20a7b0:	e5832000 	str	r2, [r3]
  20a7b4:	e3a00e5d 	mov	r0, #1488	; 0x5d0
  20a7b8:	e280000c 	add	r0, r0, #12
  20a7bc:	ebfff9f4 	bl	208f94 <systick_wait_ns>
  20a7c0:	e3a03000 	mov	r3, #0
  20a7c4:	e2433ebd 	sub	r3, r3, #3024	; 0xbd0
  20a7c8:	e3a02010 	mov	r2, #16
  20a7cc:	e5832000 	str	r2, [r3]
  20a7d0:	e3a00e5d 	mov	r0, #1488	; 0x5d0
  20a7d4:	e280000c 	add	r0, r0, #12
  20a7d8:	ebfff9ed 	bl	208f94 <systick_wait_ns>
  20a7dc:	e51b3008 	ldr	r3, [fp, #-8]
  20a7e0:	e2433001 	sub	r3, r3, #1
  20a7e4:	e50b3008 	str	r3, [fp, #-8]
  20a7e8:	e51b3008 	ldr	r3, [fp, #-8]
  20a7ec:	e3530000 	cmp	r3, #0
  20a7f0:	0a000005 	beq	20a80c <twi_reset+0xe4>
  20a7f4:	e3e03d2f 	mvn	r3, #3008	; 0xbc0
  20a7f8:	e2433003 	sub	r3, r3, #3
  20a7fc:	e5933000 	ldr	r3, [r3]
  20a800:	e2033008 	and	r3, r3, #8
  20a804:	e3530000 	cmp	r3, #0
  20a808:	0affffe5 	beq	20a7a4 <twi_reset+0x7c>
  20a80c:	e3e03ebf 	mvn	r3, #3056	; 0xbf0
  20a810:	e243300b 	sub	r3, r3, #11
  20a814:	e3a02018 	mov	r2, #24
  20a818:	e5832000 	str	r2, [r3]
  20a81c:	e3a03000 	mov	r3, #0
  20a820:	e2433eb9 	sub	r3, r3, #2960	; 0xb90
  20a824:	e3a02018 	mov	r2, #24
  20a828:	e5832000 	str	r2, [r3]
  20a82c:	e3a0332e 	mov	r3, #-1207959552	; 0xb8000000
  20a830:	e1a03643 	asr	r3, r3, #12
  20a834:	e3a02088 	mov	r2, #136	; 0x88
  20a838:	e5832000 	str	r2, [r3]
  20a83c:	e3e03a47 	mvn	r3, #290816	; 0x47000
  20a840:	e2433efe 	sub	r3, r3, #4064	; 0xfe0
  20a844:	e243300f 	sub	r3, r3, #15
  20a848:	e3a02c39 	mov	r2, #14592	; 0x3900
  20a84c:	e2822039 	add	r2, r2, #57	; 0x39
  20a850:	e5832000 	str	r2, [r3]
  20a854:	e3a0332e 	mov	r3, #-1207959552	; 0xb8000000
  20a858:	e1a03643 	asr	r3, r3, #12
  20a85c:	e3a02004 	mov	r2, #4
  20a860:	e5832000 	str	r2, [r3]
  20a864:	e3e03a47 	mvn	r3, #290816	; 0x47000
  20a868:	e2433efd 	sub	r3, r3, #4048	; 0xfd0
  20a86c:	e243300b 	sub	r3, r3, #11
  20a870:	e3a02c01 	mov	r2, #256	; 0x100
  20a874:	e5832000 	str	r2, [r3]
  20a878:	e59f300c 	ldr	r3, [pc, #12]	; 20a88c <twi_reset+0x164>
  20a87c:	e3a02000 	mov	r2, #0
  20a880:	e5832000 	str	r2, [r3]
  20a884:	e24bd004 	sub	sp, fp, #4
  20a888:	e8bd8800 	pop	{fp, pc}
  20a88c:	0020ccb0 	.word	0x0020ccb0

0020a890 <twi_init>:
  20a890:	e92d4800 	push	{fp, lr}
  20a894:	e28db004 	add	fp, sp, #4
  20a898:	e24dd004 	sub	sp, sp, #4
  20a89c:	ebfff0df 	bl	206c20 <interrupts_get_and_disable>
  20a8a0:	e50b0008 	str	r0, [fp, #-8]
  20a8a4:	e3e03a47 	mvn	r3, #290816	; 0x47000
  20a8a8:	e2433efd 	sub	r3, r3, #4048	; 0xfd0
  20a8ac:	e2433007 	sub	r3, r3, #7
  20a8b0:	e3e02000 	mvn	r2, #0
  20a8b4:	e5832000 	str	r2, [r3]
  20a8b8:	e3a00009 	mov	r0, #9
  20a8bc:	ebfff31b 	bl	207530 <aic_mask_off>
  20a8c0:	e59f3044 	ldr	r3, [pc, #68]	; 20a90c <twi_init+0x7c>
  20a8c4:	e3a00009 	mov	r0, #9
  20a8c8:	e3a01005 	mov	r1, #5
  20a8cc:	e1a02003 	mov	r2, r3
  20a8d0:	ebfff2e8 	bl	207478 <aic_set_vector>
  20a8d4:	e3a00009 	mov	r0, #9
  20a8d8:	ebfff302 	bl	2074e8 <aic_mask_on>
  20a8dc:	ebffff91 	bl	20a728 <twi_reset>
  20a8e0:	e59f3028 	ldr	r3, [pc, #40]	; 20a910 <twi_init+0x80>
  20a8e4:	e3a02002 	mov	r2, #2
  20a8e8:	e5832000 	str	r2, [r3]
  20a8ec:	e51b3008 	ldr	r3, [fp, #-8]
  20a8f0:	e3530000 	cmp	r3, #0
  20a8f4:	0a000000 	beq	20a8fc <twi_init+0x6c>
  20a8f8:	ebfff0d1 	bl	206c44 <interrupts_enable>
  20a8fc:	e3a03001 	mov	r3, #1
  20a900:	e1a00003 	mov	r0, r3
  20a904:	e24bd004 	sub	sp, fp, #4
  20a908:	e8bd8800 	pop	{fp, pc}
  20a90c:	00202d1c 	.word	0x00202d1c
  20a910:	0020cca4 	.word	0x0020cca4

0020a914 <twi_start_read>:
  20a914:	e52db004 	push	{fp}		; (str fp, [sp, #-4]!)
  20a918:	e28db000 	add	fp, sp, #0
  20a91c:	e24dd00c 	sub	sp, sp, #12
  20a920:	e50b0004 	str	r0, [fp, #-4]
  20a924:	e50b1008 	str	r1, [fp, #-8]
  20a928:	e50b200c 	str	r2, [fp, #-12]
  20a92c:	e59f308c 	ldr	r3, [pc, #140]	; 20a9c0 <twi_start_read+0xac>
  20a930:	e5933000 	ldr	r3, [r3]
  20a934:	e3530003 	cmp	r3, #3
  20a938:	8a00001d 	bhi	20a9b4 <twi_start_read+0xa0>
  20a93c:	e59f307c 	ldr	r3, [pc, #124]	; 20a9c0 <twi_start_read+0xac>
  20a940:	e3a02004 	mov	r2, #4
  20a944:	e5832000 	str	r2, [r3]
  20a948:	e59f3074 	ldr	r3, [pc, #116]	; 20a9c4 <twi_start_read+0xb0>
  20a94c:	e51b2008 	ldr	r2, [fp, #-8]
  20a950:	e5832000 	str	r2, [r3]
  20a954:	e59f306c 	ldr	r3, [pc, #108]	; 20a9c8 <twi_start_read+0xb4>
  20a958:	e51b200c 	ldr	r2, [fp, #-12]
  20a95c:	e5832000 	str	r2, [r3]
  20a960:	e3e03a47 	mvn	r3, #290816	; 0x47000
  20a964:	e2433eff 	sub	r3, r3, #4080	; 0xff0
  20a968:	e243300b 	sub	r3, r3, #11
  20a96c:	e51b2004 	ldr	r2, [fp, #-4]
  20a970:	e202207f 	and	r2, r2, #127	; 0x7f
  20a974:	e1a02802 	lsl	r2, r2, #16
  20a978:	e3822a01 	orr	r2, r2, #4096	; 0x1000
  20a97c:	e5832000 	str	r2, [r3]
  20a980:	e59f2044 	ldr	r2, [pc, #68]	; 20a9cc <twi_start_read+0xb8>
  20a984:	e3a03c01 	mov	r3, #256	; 0x100
  20a988:	e2833002 	add	r3, r3, #2
  20a98c:	e5823000 	str	r3, [r2]
  20a990:	e3a0332e 	mov	r3, #-1207959552	; 0xb8000000
  20a994:	e1a03643 	asr	r3, r3, #12
  20a998:	e3a02001 	mov	r2, #1
  20a99c:	e5832000 	str	r2, [r3]
  20a9a0:	e3e03a47 	mvn	r3, #290816	; 0x47000
  20a9a4:	e2433efd 	sub	r3, r3, #4048	; 0xfd0
  20a9a8:	e243300b 	sub	r3, r3, #11
  20a9ac:	e3a02002 	mov	r2, #2
  20a9b0:	e5832000 	str	r2, [r3]
  20a9b4:	e28bd000 	add	sp, fp, #0
  20a9b8:	e8bd0800 	pop	{fp}
  20a9bc:	e12fff1e 	bx	lr
  20a9c0:	0020cca4 	.word	0x0020cca4
  20a9c4:	0020ccac 	.word	0x0020ccac
  20a9c8:	0020cca8 	.word	0x0020cca8
  20a9cc:	0020ccb0 	.word	0x0020ccb0

0020a9d0 <twi_start_write>:
  20a9d0:	e52db004 	push	{fp}		; (str fp, [sp, #-4]!)
  20a9d4:	e28db000 	add	fp, sp, #0
  20a9d8:	e24dd00c 	sub	sp, sp, #12
  20a9dc:	e50b0004 	str	r0, [fp, #-4]
  20a9e0:	e50b1008 	str	r1, [fp, #-8]
  20a9e4:	e50b200c 	str	r2, [fp, #-12]
  20a9e8:	e59f30b0 	ldr	r3, [pc, #176]	; 20aaa0 <twi_start_write+0xd0>
  20a9ec:	e5933000 	ldr	r3, [r3]
  20a9f0:	e3530003 	cmp	r3, #3
  20a9f4:	8a000026 	bhi	20aa94 <twi_start_write+0xc4>
  20a9f8:	e59f30a0 	ldr	r3, [pc, #160]	; 20aaa0 <twi_start_write+0xd0>
  20a9fc:	e3a02005 	mov	r2, #5
  20aa00:	e5832000 	str	r2, [r3]
  20aa04:	e59f3098 	ldr	r3, [pc, #152]	; 20aaa4 <twi_start_write+0xd4>
  20aa08:	e51b2008 	ldr	r2, [fp, #-8]
  20aa0c:	e5832000 	str	r2, [r3]
  20aa10:	e59f3090 	ldr	r3, [pc, #144]	; 20aaa8 <twi_start_write+0xd8>
  20aa14:	e51b200c 	ldr	r2, [fp, #-12]
  20aa18:	e5832000 	str	r2, [r3]
  20aa1c:	e3e03a47 	mvn	r3, #290816	; 0x47000
  20aa20:	e2433eff 	sub	r3, r3, #4080	; 0xff0
  20aa24:	e243300b 	sub	r3, r3, #11
  20aa28:	e51b2004 	ldr	r2, [fp, #-4]
  20aa2c:	e202207f 	and	r2, r2, #127	; 0x7f
  20aa30:	e1a02802 	lsl	r2, r2, #16
  20aa34:	e5832000 	str	r2, [r3]
  20aa38:	e3e03a47 	mvn	r3, #290816	; 0x47000
  20aa3c:	e2433d3f 	sub	r3, r3, #4032	; 0xfc0
  20aa40:	e243300b 	sub	r3, r3, #11
  20aa44:	e59f2058 	ldr	r2, [pc, #88]	; 20aaa4 <twi_start_write+0xd4>
  20aa48:	e5922000 	ldr	r2, [r2]
  20aa4c:	e5d21000 	ldrb	r1, [r2]
  20aa50:	e5831000 	str	r1, [r3]
  20aa54:	e2822001 	add	r2, r2, #1
  20aa58:	e59f3044 	ldr	r3, [pc, #68]	; 20aaa4 <twi_start_write+0xd4>
  20aa5c:	e5832000 	str	r2, [r3]
  20aa60:	e59f3040 	ldr	r3, [pc, #64]	; 20aaa8 <twi_start_write+0xd8>
  20aa64:	e5933000 	ldr	r3, [r3]
  20aa68:	e2432001 	sub	r2, r3, #1
  20aa6c:	e59f3034 	ldr	r3, [pc, #52]	; 20aaa8 <twi_start_write+0xd8>
  20aa70:	e5832000 	str	r2, [r3]
  20aa74:	e59f3030 	ldr	r3, [pc, #48]	; 20aaac <twi_start_write+0xdc>
  20aa78:	e3a02f41 	mov	r2, #260	; 0x104
  20aa7c:	e5832000 	str	r2, [r3]
  20aa80:	e3e03a47 	mvn	r3, #290816	; 0x47000
  20aa84:	e2433efd 	sub	r3, r3, #4048	; 0xfd0
  20aa88:	e243300b 	sub	r3, r3, #11
  20aa8c:	e3a02004 	mov	r2, #4
  20aa90:	e5832000 	str	r2, [r3]
  20aa94:	e28bd000 	add	sp, fp, #0
  20aa98:	e8bd0800 	pop	{fp}
  20aa9c:	e12fff1e 	bx	lr
  20aaa0:	0020cca4 	.word	0x0020cca4
  20aaa4:	0020ccac 	.word	0x0020ccac
  20aaa8:	0020cca8 	.word	0x0020cca8
  20aaac:	0020ccb0 	.word	0x0020ccb0

0020aab0 <nxt_lcd_command>:
  20aab0:	e92d4800 	push	{fp, lr}
  20aab4:	e28db004 	add	fp, sp, #4
  20aab8:	e24dd008 	sub	sp, sp, #8
  20aabc:	e1a03000 	mov	r3, r0
  20aac0:	e54b300c 	strb	r3, [fp, #-12]
  20aac4:	e55b300c 	ldrb	r3, [fp, #-12]
  20aac8:	e54b3005 	strb	r3, [fp, #-5]
  20aacc:	e24b3005 	sub	r3, fp, #5
  20aad0:	e3a00000 	mov	r0, #0
  20aad4:	e1a01003 	mov	r1, r3
  20aad8:	e3a02001 	mov	r2, #1
  20aadc:	eb0001f8 	bl	20b2c4 <nxt_spi_write>
  20aae0:	e24bd004 	sub	sp, fp, #4
  20aae4:	e8bd8800 	pop	{fp, pc}

0020aae8 <nxt_lcd_set_col>:
  20aae8:	e92d4800 	push	{fp, lr}
  20aaec:	e28db004 	add	fp, sp, #4
  20aaf0:	e24dd004 	sub	sp, sp, #4
  20aaf4:	e50b0008 	str	r0, [fp, #-8]
  20aaf8:	e51b3008 	ldr	r3, [fp, #-8]
  20aafc:	e20330ff 	and	r3, r3, #255	; 0xff
  20ab00:	e203300f 	and	r3, r3, #15
  20ab04:	e1a00003 	mov	r0, r3
  20ab08:	ebffffe8 	bl	20aab0 <nxt_lcd_command>
  20ab0c:	e51b3008 	ldr	r3, [fp, #-8]
  20ab10:	e1a03223 	lsr	r3, r3, #4
  20ab14:	e20330ff 	and	r3, r3, #255	; 0xff
  20ab18:	e203300f 	and	r3, r3, #15
  20ab1c:	e20330ff 	and	r3, r3, #255	; 0xff
  20ab20:	e3833010 	orr	r3, r3, #16
  20ab24:	e20330ff 	and	r3, r3, #255	; 0xff
  20ab28:	e1a00003 	mov	r0, r3
  20ab2c:	ebffffdf 	bl	20aab0 <nxt_lcd_command>
  20ab30:	e24bd004 	sub	sp, fp, #4
  20ab34:	e8bd8800 	pop	{fp, pc}

0020ab38 <nxt_lcd_set_multiplex_rate>:
  20ab38:	e92d4800 	push	{fp, lr}
  20ab3c:	e28db004 	add	fp, sp, #4
  20ab40:	e24dd004 	sub	sp, sp, #4
  20ab44:	e50b0008 	str	r0, [fp, #-8]
  20ab48:	e51b3008 	ldr	r3, [fp, #-8]
  20ab4c:	e20330ff 	and	r3, r3, #255	; 0xff
  20ab50:	e2033003 	and	r3, r3, #3
  20ab54:	e20330ff 	and	r3, r3, #255	; 0xff
  20ab58:	e3833020 	orr	r3, r3, #32
  20ab5c:	e20330ff 	and	r3, r3, #255	; 0xff
  20ab60:	e1a00003 	mov	r0, r3
  20ab64:	ebffffd1 	bl	20aab0 <nxt_lcd_command>
  20ab68:	e24bd004 	sub	sp, fp, #4
  20ab6c:	e8bd8800 	pop	{fp, pc}

0020ab70 <nxt_lcd_set_page_address>:
  20ab70:	e92d4800 	push	{fp, lr}
  20ab74:	e28db004 	add	fp, sp, #4
  20ab78:	e24dd004 	sub	sp, sp, #4
  20ab7c:	e50b0008 	str	r0, [fp, #-8]
  20ab80:	e51b3008 	ldr	r3, [fp, #-8]
  20ab84:	e20330ff 	and	r3, r3, #255	; 0xff
  20ab88:	e203300f 	and	r3, r3, #15
  20ab8c:	e20330ff 	and	r3, r3, #255	; 0xff
  20ab90:	e1e03003 	mvn	r3, r3
  20ab94:	e203304f 	and	r3, r3, #79	; 0x4f
  20ab98:	e1e03003 	mvn	r3, r3
  20ab9c:	e20330ff 	and	r3, r3, #255	; 0xff
  20aba0:	e1a00003 	mov	r0, r3
  20aba4:	ebffffc1 	bl	20aab0 <nxt_lcd_command>
  20aba8:	e24bd004 	sub	sp, fp, #4
  20abac:	e8bd8800 	pop	{fp, pc}

0020abb0 <nxt_lcd_set_pot>:
  20abb0:	e92d4800 	push	{fp, lr}
  20abb4:	e28db004 	add	fp, sp, #4
  20abb8:	e24dd004 	sub	sp, sp, #4
  20abbc:	e50b0008 	str	r0, [fp, #-8]
  20abc0:	e3a00081 	mov	r0, #129	; 0x81
  20abc4:	ebffffb9 	bl	20aab0 <nxt_lcd_command>
  20abc8:	e51b3008 	ldr	r3, [fp, #-8]
  20abcc:	e20330ff 	and	r3, r3, #255	; 0xff
  20abd0:	e1a00003 	mov	r0, r3
  20abd4:	ebffffb5 	bl	20aab0 <nxt_lcd_command>
  20abd8:	e24bd004 	sub	sp, fp, #4
  20abdc:	e8bd8800 	pop	{fp, pc}

0020abe0 <nxt_lcd_set_ram_address_control>:
  20abe0:	e92d4800 	push	{fp, lr}
  20abe4:	e28db004 	add	fp, sp, #4
  20abe8:	e24dd004 	sub	sp, sp, #4
  20abec:	e50b0008 	str	r0, [fp, #-8]
  20abf0:	e51b3008 	ldr	r3, [fp, #-8]
  20abf4:	e20330ff 	and	r3, r3, #255	; 0xff
  20abf8:	e2033007 	and	r3, r3, #7
  20abfc:	e20330ff 	and	r3, r3, #255	; 0xff
  20ac00:	e1e03003 	mvn	r3, r3
  20ac04:	e2033077 	and	r3, r3, #119	; 0x77
  20ac08:	e1e03003 	mvn	r3, r3
  20ac0c:	e20330ff 	and	r3, r3, #255	; 0xff
  20ac10:	e1a00003 	mov	r0, r3
  20ac14:	ebffffa5 	bl	20aab0 <nxt_lcd_command>
  20ac18:	e24bd004 	sub	sp, fp, #4
  20ac1c:	e8bd8800 	pop	{fp, pc}

0020ac20 <nxt_lcd_enable>:
  20ac20:	e92d4800 	push	{fp, lr}
  20ac24:	e28db004 	add	fp, sp, #4
  20ac28:	e24dd004 	sub	sp, sp, #4
  20ac2c:	e50b0008 	str	r0, [fp, #-8]
  20ac30:	e51b3008 	ldr	r3, [fp, #-8]
  20ac34:	e3530000 	cmp	r3, #0
  20ac38:	0a000001 	beq	20ac44 <nxt_lcd_enable+0x24>
  20ac3c:	e3a030af 	mov	r3, #175	; 0xaf
  20ac40:	ea000000 	b	20ac48 <nxt_lcd_enable+0x28>
  20ac44:	e3a030ae 	mov	r3, #174	; 0xae
  20ac48:	e1a00003 	mov	r0, r3
  20ac4c:	ebffff97 	bl	20aab0 <nxt_lcd_command>
  20ac50:	e24bd004 	sub	sp, fp, #4
  20ac54:	e8bd8800 	pop	{fp, pc}

0020ac58 <nxt_lcd_set_map_control>:
  20ac58:	e92d4800 	push	{fp, lr}
  20ac5c:	e28db004 	add	fp, sp, #4
  20ac60:	e24dd004 	sub	sp, sp, #4
  20ac64:	e50b0008 	str	r0, [fp, #-8]
  20ac68:	e51b3008 	ldr	r3, [fp, #-8]
  20ac6c:	e20330ff 	and	r3, r3, #255	; 0xff
  20ac70:	e2033003 	and	r3, r3, #3
  20ac74:	e20330ff 	and	r3, r3, #255	; 0xff
  20ac78:	e1a03083 	lsl	r3, r3, #1
  20ac7c:	e20330ff 	and	r3, r3, #255	; 0xff
  20ac80:	e1e03d03 	mvn	r3, r3, lsl #26
  20ac84:	e1e03d23 	mvn	r3, r3, lsr #26
  20ac88:	e20330ff 	and	r3, r3, #255	; 0xff
  20ac8c:	e1a00003 	mov	r0, r3
  20ac90:	ebffff86 	bl	20aab0 <nxt_lcd_command>
  20ac94:	e24bd004 	sub	sp, fp, #4
  20ac98:	e8bd8800 	pop	{fp, pc}

0020ac9c <nxt_lcd_reset>:
  20ac9c:	e92d4800 	push	{fp, lr}
  20aca0:	e28db004 	add	fp, sp, #4
  20aca4:	e3a000e2 	mov	r0, #226	; 0xe2
  20aca8:	ebffff80 	bl	20aab0 <nxt_lcd_command>
  20acac:	e8bd8800 	pop	{fp, pc}

0020acb0 <nxt_lcd_set_bias_ratio>:
  20acb0:	e92d4800 	push	{fp, lr}
  20acb4:	e28db004 	add	fp, sp, #4
  20acb8:	e24dd004 	sub	sp, sp, #4
  20acbc:	e50b0008 	str	r0, [fp, #-8]
  20acc0:	e51b3008 	ldr	r3, [fp, #-8]
  20acc4:	e20330ff 	and	r3, r3, #255	; 0xff
  20acc8:	e2033003 	and	r3, r3, #3
  20accc:	e20330ff 	and	r3, r3, #255	; 0xff
  20acd0:	e1e03003 	mvn	r3, r3
  20acd4:	e2033017 	and	r3, r3, #23
  20acd8:	e1e03003 	mvn	r3, r3
  20acdc:	e20330ff 	and	r3, r3, #255	; 0xff
  20ace0:	e1a00003 	mov	r0, r3
  20ace4:	ebffff71 	bl	20aab0 <nxt_lcd_command>
  20ace8:	e24bd004 	sub	sp, fp, #4
  20acec:	e8bd8800 	pop	{fp, pc}

0020acf0 <nxt_lcd_force_update>:
  20acf0:	e92d4800 	push	{fp, lr}
  20acf4:	e28db004 	add	fp, sp, #4
  20acf8:	e24dd008 	sub	sp, sp, #8
  20acfc:	e59f3060 	ldr	r3, [pc, #96]	; 20ad64 <nxt_lcd_force_update+0x74>
  20ad00:	e5933000 	ldr	r3, [r3]
  20ad04:	e50b300c 	str	r3, [fp, #-12]
  20ad08:	e3a03000 	mov	r3, #0
  20ad0c:	e50b3008 	str	r3, [fp, #-8]
  20ad10:	ea00000e 	b	20ad50 <nxt_lcd_force_update+0x60>
  20ad14:	e3a00000 	mov	r0, #0
  20ad18:	ebffff72 	bl	20aae8 <nxt_lcd_set_col>
  20ad1c:	e51b3008 	ldr	r3, [fp, #-8]
  20ad20:	e1a00003 	mov	r0, r3
  20ad24:	ebffff91 	bl	20ab70 <nxt_lcd_set_page_address>
  20ad28:	e3a00001 	mov	r0, #1
  20ad2c:	e51b100c 	ldr	r1, [fp, #-12]
  20ad30:	e3a02064 	mov	r2, #100	; 0x64
  20ad34:	eb000162 	bl	20b2c4 <nxt_spi_write>
  20ad38:	e51b300c 	ldr	r3, [fp, #-12]
  20ad3c:	e2833064 	add	r3, r3, #100	; 0x64
  20ad40:	e50b300c 	str	r3, [fp, #-12]
  20ad44:	e51b3008 	ldr	r3, [fp, #-8]
  20ad48:	e2833001 	add	r3, r3, #1
  20ad4c:	e50b3008 	str	r3, [fp, #-8]
  20ad50:	e51b3008 	ldr	r3, [fp, #-8]
  20ad54:	e3530007 	cmp	r3, #7
  20ad58:	daffffed 	ble	20ad14 <nxt_lcd_force_update+0x24>
  20ad5c:	e24bd004 	sub	sp, fp, #4
  20ad60:	e8bd8800 	pop	{fp, pc}
  20ad64:	0020ccb4 	.word	0x0020ccb4

0020ad68 <nxt_lcd_update>:
  20ad68:	e92d4800 	push	{fp, lr}
  20ad6c:	e28db004 	add	fp, sp, #4
  20ad70:	eb000191 	bl	20b3bc <nxt_spi_refresh>
  20ad74:	e8bd8800 	pop	{fp, pc}

0020ad78 <nxt_lcd_power_up>:
  20ad78:	e92d4800 	push	{fp, lr}
  20ad7c:	e28db004 	add	fp, sp, #4
  20ad80:	e3a00014 	mov	r0, #20
  20ad84:	ebfff86f 	bl	208f48 <systick_wait_ms>
  20ad88:	ebffffc3 	bl	20ac9c <nxt_lcd_reset>
  20ad8c:	e3a00014 	mov	r0, #20
  20ad90:	ebfff86c 	bl	208f48 <systick_wait_ms>
  20ad94:	e3a00003 	mov	r0, #3
  20ad98:	ebffff66 	bl	20ab38 <nxt_lcd_set_multiplex_rate>
  20ad9c:	e3a00003 	mov	r0, #3
  20ada0:	ebffffc2 	bl	20acb0 <nxt_lcd_set_bias_ratio>
  20ada4:	e3a00060 	mov	r0, #96	; 0x60
  20ada8:	ebffff80 	bl	20abb0 <nxt_lcd_set_pot>
  20adac:	e3a00001 	mov	r0, #1
  20adb0:	ebffff8a 	bl	20abe0 <nxt_lcd_set_ram_address_control>
  20adb4:	e3a00002 	mov	r0, #2
  20adb8:	ebffffa6 	bl	20ac58 <nxt_lcd_set_map_control>
  20adbc:	e59f3014 	ldr	r3, [pc, #20]	; 20add8 <nxt_lcd_power_up+0x60>
  20adc0:	e5933000 	ldr	r3, [r3]
  20adc4:	e1a00003 	mov	r0, r3
  20adc8:	eb00016c 	bl	20b380 <nxt_spi_set_display>
  20adcc:	e3a00001 	mov	r0, #1
  20add0:	ebffff92 	bl	20ac20 <nxt_lcd_enable>
  20add4:	e8bd8800 	pop	{fp, pc}
  20add8:	0020ccb4 	.word	0x0020ccb4

0020addc <nxt_lcd_power_down>:
  20addc:	e92d4800 	push	{fp, lr}
  20ade0:	e28db004 	add	fp, sp, #4
  20ade4:	ebffffac 	bl	20ac9c <nxt_lcd_reset>
  20ade8:	e8bd8800 	pop	{fp, pc}

0020adec <nxt_lcd_init>:
  20adec:	e92d4800 	push	{fp, lr}
  20adf0:	e28db004 	add	fp, sp, #4
  20adf4:	e24dd004 	sub	sp, sp, #4
  20adf8:	e50b0008 	str	r0, [fp, #-8]
  20adfc:	e59f3014 	ldr	r3, [pc, #20]	; 20ae18 <nxt_lcd_init+0x2c>
  20ae00:	e51b2008 	ldr	r2, [fp, #-8]
  20ae04:	e5832000 	str	r2, [r3]
  20ae08:	eb00006f 	bl	20afcc <nxt_spi_init>
  20ae0c:	ebffffd9 	bl	20ad78 <nxt_lcd_power_up>
  20ae10:	e24bd004 	sub	sp, fp, #4
  20ae14:	e8bd8800 	pop	{fp, pc}
  20ae18:	0020ccb4 	.word	0x0020ccb4

0020ae1c <spi_set_mode>:
  20ae1c:	e52db004 	push	{fp}		; (str fp, [sp, #-4]!)
  20ae20:	e28db000 	add	fp, sp, #0
  20ae24:	e24dd008 	sub	sp, sp, #8
  20ae28:	e1a03000 	mov	r3, r0
  20ae2c:	e54b3008 	strb	r3, [fp, #-8]
  20ae30:	e59f3098 	ldr	r3, [pc, #152]	; 20aed0 <spi_set_mode+0xb4>
  20ae34:	e5d33000 	ldrb	r3, [r3]
  20ae38:	e55b2008 	ldrb	r2, [fp, #-8]
  20ae3c:	e1520003 	cmp	r2, r3
  20ae40:	0a00001e 	beq	20aec0 <spi_set_mode+0xa4>
  20ae44:	e3a034ff 	mov	r3, #-16777216	; 0xff000000
  20ae48:	e28338fe 	add	r3, r3, #16646144	; 0xfe0000
  20ae4c:	e2833010 	add	r3, r3, #16
  20ae50:	e5933000 	ldr	r3, [r3]
  20ae54:	e50b3004 	str	r3, [fp, #-4]
  20ae58:	ea000004 	b	20ae70 <spi_set_mode+0x54>
  20ae5c:	e3a034ff 	mov	r3, #-16777216	; 0xff000000
  20ae60:	e28338fe 	add	r3, r3, #16646144	; 0xfe0000
  20ae64:	e2833010 	add	r3, r3, #16
  20ae68:	e5933000 	ldr	r3, [r3]
  20ae6c:	e50b3004 	str	r3, [fp, #-4]
  20ae70:	e51b3004 	ldr	r3, [fp, #-4]
  20ae74:	e2033c02 	and	r3, r3, #512	; 0x200
  20ae78:	e3530000 	cmp	r3, #0
  20ae7c:	0afffff6 	beq	20ae5c <spi_set_mode+0x40>
  20ae80:	e55b3008 	ldrb	r3, [fp, #-8]
  20ae84:	e3530000 	cmp	r3, #0
  20ae88:	0a000004 	beq	20aea0 <spi_set_mode+0x84>
  20ae8c:	e3a03000 	mov	r3, #0
  20ae90:	e2433ebd 	sub	r3, r3, #3024	; 0xbd0
  20ae94:	e3a02a01 	mov	r2, #4096	; 0x1000
  20ae98:	e5832000 	str	r2, [r3]
  20ae9c:	ea000003 	b	20aeb0 <spi_set_mode+0x94>
  20aea0:	e3e03d2f 	mvn	r3, #3008	; 0xbc0
  20aea4:	e243300b 	sub	r3, r3, #11
  20aea8:	e3a02a01 	mov	r2, #4096	; 0x1000
  20aeac:	e5832000 	str	r2, [r3]
  20aeb0:	e59f3018 	ldr	r3, [pc, #24]	; 20aed0 <spi_set_mode+0xb4>
  20aeb4:	e55b2008 	ldrb	r2, [fp, #-8]
  20aeb8:	e5c32000 	strb	r2, [r3]
  20aebc:	ea000000 	b	20aec4 <spi_set_mode+0xa8>
  20aec0:	e1a00000 	nop			; (mov r0, r0)
  20aec4:	e28bd000 	add	sp, fp, #0
  20aec8:	e8bd0800 	pop	{fp}
  20aecc:	e12fff1e 	bx	lr
  20aed0:	0020bafc 	.word	0x0020bafc

0020aed4 <spi_isr_C_function>:
  20aed4:	e92d4800 	push	{fp, lr}
  20aed8:	e28db004 	add	fp, sp, #4
  20aedc:	e59f30d8 	ldr	r3, [pc, #216]	; 20afbc <spi_isr_C_function+0xe8>
  20aee0:	e5d33000 	ldrb	r3, [r3]
  20aee4:	e20330ff 	and	r3, r3, #255	; 0xff
  20aee8:	e3530000 	cmp	r3, #0
  20aeec:	1a000013 	bne	20af40 <spi_isr_C_function+0x6c>
  20aef0:	e59f30c8 	ldr	r3, [pc, #200]	; 20afc0 <spi_isr_C_function+0xec>
  20aef4:	e5d33000 	ldrb	r3, [r3]
  20aef8:	e20330ff 	and	r3, r3, #255	; 0xff
  20aefc:	e3530000 	cmp	r3, #0
  20af00:	0a000008 	beq	20af28 <spi_isr_C_function+0x54>
  20af04:	e59f30b8 	ldr	r3, [pc, #184]	; 20afc4 <spi_isr_C_function+0xf0>
  20af08:	e5933000 	ldr	r3, [r3]
  20af0c:	e1a02003 	mov	r2, r3
  20af10:	e59f30b0 	ldr	r3, [pc, #176]	; 20afc8 <spi_isr_C_function+0xf4>
  20af14:	e5832000 	str	r2, [r3]
  20af18:	e59f30a0 	ldr	r3, [pc, #160]	; 20afc0 <spi_isr_C_function+0xec>
  20af1c:	e3a02000 	mov	r2, #0
  20af20:	e5c32000 	strb	r2, [r3]
  20af24:	ea000005 	b	20af40 <spi_isr_C_function+0x6c>
  20af28:	e3e03b7f 	mvn	r3, #130048	; 0x1fc00
  20af2c:	e2433ff9 	sub	r3, r3, #996	; 0x3e4
  20af30:	e2433003 	sub	r3, r3, #3
  20af34:	e3a02020 	mov	r2, #32
  20af38:	e5832000 	str	r2, [r3]
  20af3c:	ea00001d 	b	20afb8 <spi_isr_C_function+0xe4>
  20af40:	e3a00001 	mov	r0, #1
  20af44:	ebffffb4 	bl	20ae1c <spi_set_mode>
  20af48:	e3e03b7f 	mvn	r3, #130048	; 0x1fc00
  20af4c:	e2433fb9 	sub	r3, r3, #740	; 0x2e4
  20af50:	e2433003 	sub	r3, r3, #3
  20af54:	e59f206c 	ldr	r2, [pc, #108]	; 20afc8 <spi_isr_C_function+0xf4>
  20af58:	e5922000 	ldr	r2, [r2]
  20af5c:	e5832000 	str	r2, [r3]
  20af60:	e3e03b7f 	mvn	r3, #130048	; 0x1fc00
  20af64:	e2433e2e 	sub	r3, r3, #736	; 0x2e0
  20af68:	e2433003 	sub	r3, r3, #3
  20af6c:	e3a02084 	mov	r2, #132	; 0x84
  20af70:	e5832000 	str	r2, [r3]
  20af74:	e59f3040 	ldr	r3, [pc, #64]	; 20afbc <spi_isr_C_function+0xe8>
  20af78:	e5d33000 	ldrb	r3, [r3]
  20af7c:	e20330ff 	and	r3, r3, #255	; 0xff
  20af80:	e2832001 	add	r2, r3, #1
  20af84:	e1a03fc2 	asr	r3, r2, #31
  20af88:	e1a03ea3 	lsr	r3, r3, #29
  20af8c:	e0822003 	add	r2, r2, r3
  20af90:	e2022007 	and	r2, r2, #7
  20af94:	e0633002 	rsb	r3, r3, r2
  20af98:	e20320ff 	and	r2, r3, #255	; 0xff
  20af9c:	e59f3018 	ldr	r3, [pc, #24]	; 20afbc <spi_isr_C_function+0xe8>
  20afa0:	e5c32000 	strb	r2, [r3]
  20afa4:	e59f301c 	ldr	r3, [pc, #28]	; 20afc8 <spi_isr_C_function+0xf4>
  20afa8:	e5933000 	ldr	r3, [r3]
  20afac:	e2832064 	add	r2, r3, #100	; 0x64
  20afb0:	e59f3010 	ldr	r3, [pc, #16]	; 20afc8 <spi_isr_C_function+0xf4>
  20afb4:	e5832000 	str	r2, [r3]
  20afb8:	e8bd8800 	pop	{fp, pc}
  20afbc:	0020ccbd 	.word	0x0020ccbd
  20afc0:	0020ccbc 	.word	0x0020ccbc
  20afc4:	0020ccb8 	.word	0x0020ccb8
  20afc8:	0020baf8 	.word	0x0020baf8

0020afcc <nxt_spi_init>:
  20afcc:	e92d4800 	push	{fp, lr}
  20afd0:	e28db004 	add	fp, sp, #4
  20afd4:	e24dd004 	sub	sp, sp, #4
  20afd8:	ebffef10 	bl	206c20 <interrupts_get_and_disable>
  20afdc:	e50b0008 	str	r0, [fp, #-8]
  20afe0:	e3a03482 	mov	r3, #-2113929216	; 0x82000000
  20afe4:	e1a03ac3 	asr	r3, r3, #21
  20afe8:	e3a02020 	mov	r2, #32
  20afec:	e5832000 	str	r2, [r3]
  20aff0:	e3a0320a 	mov	r3, #-1610612736	; 0xa0000000
  20aff4:	e1a039c3 	asr	r3, r3, #19
  20aff8:	e3a02a01 	mov	r2, #4096	; 0x1000
  20affc:	e5832000 	str	r2, [r3]
  20b000:	e3a03000 	mov	r3, #0
  20b004:	e2433ebf 	sub	r3, r3, #3056	; 0xbf0
  20b008:	e3a02a01 	mov	r2, #4096	; 0x1000
  20b00c:	e5832000 	str	r2, [r3]
  20b010:	e3e03d2f 	mvn	r3, #3008	; 0xbc0
  20b014:	e243300b 	sub	r3, r3, #11
  20b018:	e3a02a01 	mov	r2, #4096	; 0x1000
  20b01c:	e5832000 	str	r2, [r3]
  20b020:	e3e03ebf 	mvn	r3, #3056	; 0xbf0
  20b024:	e243300b 	sub	r3, r3, #11
  20b028:	e3a02901 	mov	r2, #16384	; 0x4000
  20b02c:	e5832000 	str	r2, [r3]
  20b030:	e3a03000 	mov	r3, #0
  20b034:	e2433eb9 	sub	r3, r3, #2960	; 0xb90
  20b038:	e3a02901 	mov	r2, #16384	; 0x4000
  20b03c:	e5832000 	str	r2, [r3]
  20b040:	e3e03ebe 	mvn	r3, #3040	; 0xbe0
  20b044:	e243300b 	sub	r3, r3, #11
  20b048:	e3a02901 	mov	r2, #16384	; 0x4000
  20b04c:	e5832000 	str	r2, [r3]
  20b050:	e3a034a5 	mov	r3, #-1526726656	; 0xa5000000
  20b054:	e1a039c3 	asr	r3, r3, #19
  20b058:	e3a02901 	mov	r2, #16384	; 0x4000
  20b05c:	e5832000 	str	r2, [r3]
  20b060:	e3e03eba 	mvn	r3, #2976	; 0xba0
  20b064:	e243300b 	sub	r3, r3, #11
  20b068:	e3a02901 	mov	r2, #16384	; 0x4000
  20b06c:	e5832000 	str	r2, [r3]
  20b070:	e3a034a3 	mov	r3, #-1560281088	; 0xa3000000
  20b074:	e1a039c3 	asr	r3, r3, #19
  20b078:	e3a02901 	mov	r2, #16384	; 0x4000
  20b07c:	e5832000 	str	r2, [r3]
  20b080:	e3e03ebd 	mvn	r3, #3024	; 0xbd0
  20b084:	e243300b 	sub	r3, r3, #11
  20b088:	e3a02901 	mov	r2, #16384	; 0x4000
  20b08c:	e5832000 	str	r2, [r3]
  20b090:	e3e03d2f 	mvn	r3, #3008	; 0xbc0
  20b094:	e243300b 	sub	r3, r3, #11
  20b098:	e3a02901 	mov	r2, #16384	; 0x4000
  20b09c:	e5832000 	str	r2, [r3]
  20b0a0:	e3e03ebb 	mvn	r3, #2992	; 0xbb0
  20b0a4:	e243300b 	sub	r3, r3, #11
  20b0a8:	e3a02901 	mov	r2, #16384	; 0x4000
  20b0ac:	e5832000 	str	r2, [r3]
  20b0b0:	e3e03ebf 	mvn	r3, #3056	; 0xbf0
  20b0b4:	e243300b 	sub	r3, r3, #11
  20b0b8:	e3a02a02 	mov	r2, #8192	; 0x2000
  20b0bc:	e5832000 	str	r2, [r3]
  20b0c0:	e3a03000 	mov	r3, #0
  20b0c4:	e2433eb9 	sub	r3, r3, #2960	; 0xb90
  20b0c8:	e3a02a02 	mov	r2, #8192	; 0x2000
  20b0cc:	e5832000 	str	r2, [r3]
  20b0d0:	e3e03ebe 	mvn	r3, #3040	; 0xbe0
  20b0d4:	e243300b 	sub	r3, r3, #11
  20b0d8:	e3a02a02 	mov	r2, #8192	; 0x2000
  20b0dc:	e5832000 	str	r2, [r3]
  20b0e0:	e3a034a5 	mov	r3, #-1526726656	; 0xa5000000
  20b0e4:	e1a039c3 	asr	r3, r3, #19
  20b0e8:	e3a02a02 	mov	r2, #8192	; 0x2000
  20b0ec:	e5832000 	str	r2, [r3]
  20b0f0:	e3e03eba 	mvn	r3, #2976	; 0xba0
  20b0f4:	e243300b 	sub	r3, r3, #11
  20b0f8:	e3a02a02 	mov	r2, #8192	; 0x2000
  20b0fc:	e5832000 	str	r2, [r3]
  20b100:	e3a034a3 	mov	r3, #-1560281088	; 0xa3000000
  20b104:	e1a039c3 	asr	r3, r3, #19
  20b108:	e3a02a02 	mov	r2, #8192	; 0x2000
  20b10c:	e5832000 	str	r2, [r3]
  20b110:	e3e03ebd 	mvn	r3, #3024	; 0xbd0
  20b114:	e243300b 	sub	r3, r3, #11
  20b118:	e3a02a02 	mov	r2, #8192	; 0x2000
  20b11c:	e5832000 	str	r2, [r3]
  20b120:	e3e03d2f 	mvn	r3, #3008	; 0xbc0
  20b124:	e243300b 	sub	r3, r3, #11
  20b128:	e3a02a02 	mov	r2, #8192	; 0x2000
  20b12c:	e5832000 	str	r2, [r3]
  20b130:	e3e03ebb 	mvn	r3, #2992	; 0xbb0
  20b134:	e243300b 	sub	r3, r3, #11
  20b138:	e3a02a02 	mov	r2, #8192	; 0x2000
  20b13c:	e5832000 	str	r2, [r3]
  20b140:	e3e03ebf 	mvn	r3, #3056	; 0xbf0
  20b144:	e243300b 	sub	r3, r3, #11
  20b148:	e3a02b01 	mov	r2, #1024	; 0x400
  20b14c:	e5832000 	str	r2, [r3]
  20b150:	e3e03d2e 	mvn	r3, #2944	; 0xb80
  20b154:	e243300b 	sub	r3, r3, #11
  20b158:	e3a02b01 	mov	r2, #1024	; 0x400
  20b15c:	e5832000 	str	r2, [r3]
  20b160:	e3e03ebe 	mvn	r3, #3040	; 0xbe0
  20b164:	e243300b 	sub	r3, r3, #11
  20b168:	e3a02b01 	mov	r2, #1024	; 0x400
  20b16c:	e5832000 	str	r2, [r3]
  20b170:	e3a034a5 	mov	r3, #-1526726656	; 0xa5000000
  20b174:	e1a039c3 	asr	r3, r3, #19
  20b178:	e3a02b01 	mov	r2, #1024	; 0x400
  20b17c:	e5832000 	str	r2, [r3]
  20b180:	e3e03eba 	mvn	r3, #2976	; 0xba0
  20b184:	e243300b 	sub	r3, r3, #11
  20b188:	e3a02b01 	mov	r2, #1024	; 0x400
  20b18c:	e5832000 	str	r2, [r3]
  20b190:	e3a034a3 	mov	r3, #-1560281088	; 0xa3000000
  20b194:	e1a039c3 	asr	r3, r3, #19
  20b198:	e3a02b01 	mov	r2, #1024	; 0x400
  20b19c:	e5832000 	str	r2, [r3]
  20b1a0:	e3e03ebd 	mvn	r3, #3024	; 0xbd0
  20b1a4:	e243300b 	sub	r3, r3, #11
  20b1a8:	e3a02b01 	mov	r2, #1024	; 0x400
  20b1ac:	e5832000 	str	r2, [r3]
  20b1b0:	e3e03d2f 	mvn	r3, #3008	; 0xbc0
  20b1b4:	e243300b 	sub	r3, r3, #11
  20b1b8:	e3a02b01 	mov	r2, #1024	; 0x400
  20b1bc:	e5832000 	str	r2, [r3]
  20b1c0:	e3e03ebb 	mvn	r3, #2992	; 0xbb0
  20b1c4:	e243300b 	sub	r3, r3, #11
  20b1c8:	e3a02b01 	mov	r2, #1024	; 0x400
  20b1cc:	e5832000 	str	r2, [r3]
  20b1d0:	e3a03102 	mov	r3, #-2147483648	; 0x80000000
  20b1d4:	e1a03743 	asr	r3, r3, #14
  20b1d8:	e3a02080 	mov	r2, #128	; 0x80
  20b1dc:	e5832000 	str	r2, [r3]
  20b1e0:	e3a03102 	mov	r3, #-2147483648	; 0x80000000
  20b1e4:	e1a03743 	asr	r3, r3, #14
  20b1e8:	e3a02001 	mov	r2, #1
  20b1ec:	e5832000 	str	r2, [r3]
  20b1f0:	e3a034ff 	mov	r3, #-16777216	; 0xff000000
  20b1f4:	e28338fe 	add	r3, r3, #16646144	; 0xfe0000
  20b1f8:	e2833004 	add	r3, r3, #4
  20b1fc:	e3a0280b 	mov	r2, #720896	; 0xb0000
  20b200:	e2822011 	add	r2, r2, #17
  20b204:	e5832000 	str	r2, [r3]
  20b208:	e3e03b7f 	mvn	r3, #130048	; 0x1fc00
  20b20c:	e2433ff1 	sub	r3, r3, #964	; 0x3c4
  20b210:	e2433003 	sub	r3, r3, #3
  20b214:	e3a02b06 	mov	r2, #6144	; 0x1800
  20b218:	e2822001 	add	r2, r2, #1
  20b21c:	e5832000 	str	r2, [r3]
  20b220:	e59f3084 	ldr	r3, [pc, #132]	; 20b2ac <nxt_spi_init+0x2e0>
  20b224:	e3e02000 	mvn	r2, #0
  20b228:	e5c32000 	strb	r2, [r3]
  20b22c:	e59f307c 	ldr	r3, [pc, #124]	; 20b2b0 <nxt_spi_init+0x2e4>
  20b230:	e3a02000 	mov	r2, #0
  20b234:	e5832000 	str	r2, [r3]
  20b238:	e59f3074 	ldr	r3, [pc, #116]	; 20b2b4 <nxt_spi_init+0x2e8>
  20b23c:	e3a02000 	mov	r2, #0
  20b240:	e5832000 	str	r2, [r3]
  20b244:	e59f306c 	ldr	r3, [pc, #108]	; 20b2b8 <nxt_spi_init+0x2ec>
  20b248:	e3a02000 	mov	r2, #0
  20b24c:	e5c32000 	strb	r2, [r3]
  20b250:	e59f3064 	ldr	r3, [pc, #100]	; 20b2bc <nxt_spi_init+0x2f0>
  20b254:	e3a02000 	mov	r2, #0
  20b258:	e5c32000 	strb	r2, [r3]
  20b25c:	e3a00005 	mov	r0, #5
  20b260:	ebfff0b2 	bl	207530 <aic_mask_off>
  20b264:	e59f3054 	ldr	r3, [pc, #84]	; 20b2c0 <nxt_spi_init+0x2f4>
  20b268:	e3a00005 	mov	r0, #5
  20b26c:	e3a01004 	mov	r1, #4
  20b270:	e1a02003 	mov	r2, r3
  20b274:	ebfff07f 	bl	207478 <aic_set_vector>
  20b278:	e3a00005 	mov	r0, #5
  20b27c:	ebfff099 	bl	2074e8 <aic_mask_on>
  20b280:	e3e03b7f 	mvn	r3, #130048	; 0x1fc00
  20b284:	e2433fb7 	sub	r3, r3, #732	; 0x2dc
  20b288:	e2433003 	sub	r3, r3, #3
  20b28c:	e3a02c01 	mov	r2, #256	; 0x100
  20b290:	e5832000 	str	r2, [r3]
  20b294:	e51b3008 	ldr	r3, [fp, #-8]
  20b298:	e3530000 	cmp	r3, #0
  20b29c:	0a000000 	beq	20b2a4 <nxt_spi_init+0x2d8>
  20b2a0:	ebffee67 	bl	206c44 <interrupts_enable>
  20b2a4:	e24bd004 	sub	sp, fp, #4
  20b2a8:	e8bd8800 	pop	{fp, pc}
  20b2ac:	0020bafc 	.word	0x0020bafc
  20b2b0:	0020ccb8 	.word	0x0020ccb8
  20b2b4:	0020baf8 	.word	0x0020baf8
  20b2b8:	0020ccbc 	.word	0x0020ccbc
  20b2bc:	0020ccbd 	.word	0x0020ccbd
  20b2c0:	00202d1c 	.word	0x00202d1c

0020b2c4 <nxt_spi_write>:
  20b2c4:	e92d4800 	push	{fp, lr}
  20b2c8:	e28db004 	add	fp, sp, #4
  20b2cc:	e24dd014 	sub	sp, sp, #20
  20b2d0:	e50b0010 	str	r0, [fp, #-16]
  20b2d4:	e50b1014 	str	r1, [fp, #-20]
  20b2d8:	e50b2018 	str	r2, [fp, #-24]
  20b2dc:	e51b3010 	ldr	r3, [fp, #-16]
  20b2e0:	e3530000 	cmp	r3, #0
  20b2e4:	0a000001 	beq	20b2f0 <nxt_spi_write+0x2c>
  20b2e8:	e3a03c01 	mov	r3, #256	; 0x100
  20b2ec:	ea000000 	b	20b2f4 <nxt_spi_write+0x30>
  20b2f0:	e3a03000 	mov	r3, #0
  20b2f4:	e50b3008 	str	r3, [fp, #-8]
  20b2f8:	e51b3010 	ldr	r3, [fp, #-16]
  20b2fc:	e20330ff 	and	r3, r3, #255	; 0xff
  20b300:	e1a00003 	mov	r0, r3
  20b304:	ebfffec4 	bl	20ae1c <spi_set_mode>
  20b308:	ea000017 	b	20b36c <nxt_spi_write+0xa8>
  20b30c:	e3e03b7f 	mvn	r3, #130048	; 0x1fc00
  20b310:	e2433e3f 	sub	r3, r3, #1008	; 0x3f0
  20b314:	e2433003 	sub	r3, r3, #3
  20b318:	e51b2014 	ldr	r2, [fp, #-20]
  20b31c:	e5d22000 	ldrb	r2, [r2]
  20b320:	e1a01002 	mov	r1, r2
  20b324:	e51b2008 	ldr	r2, [fp, #-8]
  20b328:	e1812002 	orr	r2, r1, r2
  20b32c:	e5832000 	str	r2, [r3]
  20b330:	e51b3014 	ldr	r3, [fp, #-20]
  20b334:	e2833001 	add	r3, r3, #1
  20b338:	e50b3014 	str	r3, [fp, #-20]
  20b33c:	e51b3018 	ldr	r3, [fp, #-24]
  20b340:	e2433001 	sub	r3, r3, #1
  20b344:	e50b3018 	str	r3, [fp, #-24]
  20b348:	e3a034ff 	mov	r3, #-16777216	; 0xff000000
  20b34c:	e28338fe 	add	r3, r3, #16646144	; 0xfe0000
  20b350:	e2833010 	add	r3, r3, #16
  20b354:	e5933000 	ldr	r3, [r3]
  20b358:	e50b300c 	str	r3, [fp, #-12]
  20b35c:	e51b300c 	ldr	r3, [fp, #-12]
  20b360:	e2033c02 	and	r3, r3, #512	; 0x200
  20b364:	e3530000 	cmp	r3, #0
  20b368:	0afffff6 	beq	20b348 <nxt_spi_write+0x84>
  20b36c:	e51b3018 	ldr	r3, [fp, #-24]
  20b370:	e3530000 	cmp	r3, #0
  20b374:	1affffe4 	bne	20b30c <nxt_spi_write+0x48>
  20b378:	e24bd004 	sub	sp, fp, #4
  20b37c:	e8bd8800 	pop	{fp, pc}

0020b380 <nxt_spi_set_display>:
  20b380:	e52db004 	push	{fp}		; (str fp, [sp, #-4]!)
  20b384:	e28db000 	add	fp, sp, #0
  20b388:	e24dd004 	sub	sp, sp, #4
  20b38c:	e50b0004 	str	r0, [fp, #-4]
  20b390:	e59f3020 	ldr	r3, [pc, #32]	; 20b3b8 <nxt_spi_set_display+0x38>
  20b394:	e5933000 	ldr	r3, [r3]
  20b398:	e3530000 	cmp	r3, #0
  20b39c:	1a000002 	bne	20b3ac <nxt_spi_set_display+0x2c>
  20b3a0:	e59f3010 	ldr	r3, [pc, #16]	; 20b3b8 <nxt_spi_set_display+0x38>
  20b3a4:	e51b2004 	ldr	r2, [fp, #-4]
  20b3a8:	e5832000 	str	r2, [r3]
  20b3ac:	e28bd000 	add	sp, fp, #0
  20b3b0:	e8bd0800 	pop	{fp}
  20b3b4:	e12fff1e 	bx	lr
  20b3b8:	0020ccb8 	.word	0x0020ccb8

0020b3bc <nxt_spi_refresh>:
  20b3bc:	e52db004 	push	{fp}		; (str fp, [sp, #-4]!)
  20b3c0:	e28db000 	add	fp, sp, #0
  20b3c4:	e59f303c 	ldr	r3, [pc, #60]	; 20b408 <nxt_spi_refresh+0x4c>
  20b3c8:	e5933000 	ldr	r3, [r3]
  20b3cc:	e3530000 	cmp	r3, #0
  20b3d0:	0a000008 	beq	20b3f8 <nxt_spi_refresh+0x3c>
  20b3d4:	e59f3030 	ldr	r3, [pc, #48]	; 20b40c <nxt_spi_refresh+0x50>
  20b3d8:	e3a02001 	mov	r2, #1
  20b3dc:	e5c32000 	strb	r2, [r3]
  20b3e0:	e3e03b7f 	mvn	r3, #130048	; 0x1fc00
  20b3e4:	e2433ffa 	sub	r3, r3, #1000	; 0x3e8
  20b3e8:	e2433003 	sub	r3, r3, #3
  20b3ec:	e3a02020 	mov	r2, #32
  20b3f0:	e5832000 	str	r2, [r3]
  20b3f4:	ea000000 	b	20b3fc <nxt_spi_refresh+0x40>
  20b3f8:	e1a00000 	nop			; (mov r0, r0)
  20b3fc:	e28bd000 	add	sp, fp, #0
  20b400:	e8bd0800 	pop	{fp}
  20b404:	e12fff1e 	bx	lr
  20b408:	0020ccb8 	.word	0x0020ccb8
  20b40c:	0020ccbc 	.word	0x0020ccbc

0020b410 <InitButtons>:
  20b410:	e92d4800 	push	{fp, lr}
  20b414:	e28db004 	add	fp, sp, #4
  20b418:	e24dd004 	sub	sp, sp, #4
  20b41c:	ebffedff 	bl	206c20 <interrupts_get_and_disable>
  20b420:	e50b0008 	str	r0, [fp, #-8]
  20b424:	e3a0001e 	mov	r0, #30
  20b428:	ebfff040 	bl	207530 <aic_mask_off>
  20b42c:	e59f302c 	ldr	r3, [pc, #44]	; 20b460 <InitButtons+0x50>
  20b430:	e3a0001e 	mov	r0, #30
  20b434:	e3a01024 	mov	r1, #36	; 0x24
  20b438:	e1a02003 	mov	r2, r3
  20b43c:	ebfff00d 	bl	207478 <aic_set_vector>
  20b440:	e3a0001e 	mov	r0, #30
  20b444:	ebfff027 	bl	2074e8 <aic_mask_on>
  20b448:	e51b3008 	ldr	r3, [fp, #-8]
  20b44c:	e3530000 	cmp	r3, #0
  20b450:	0a000000 	beq	20b458 <InitButtons+0x48>
  20b454:	ebffedfa 	bl	206c44 <interrupts_enable>
  20b458:	e24bd004 	sub	sp, fp, #4
  20b45c:	e8bd8800 	pop	{fp, pc}
  20b460:	00202d1c 	.word	0x00202d1c

0020b464 <check_buttons_status_function>:
  20b464:	e92d4800 	push	{fp, lr}
  20b468:	e28db004 	add	fp, sp, #4
  20b46c:	e24dd008 	sub	sp, sp, #8
  20b470:	e3a03000 	mov	r3, #0
  20b474:	e54b3005 	strb	r3, [fp, #-5]
  20b478:	ebffee8d 	bl	206eb4 <ecrobot_poll_nxtstate>
  20b47c:	ebffee83 	bl	206e90 <ecrobot_get_button_state>
  20b480:	e1a03000 	mov	r3, r0
  20b484:	e54b3005 	strb	r3, [fp, #-5]
  20b488:	e55b3005 	ldrb	r3, [fp, #-5]
  20b48c:	e2033001 	and	r3, r3, #1
  20b490:	e20330ff 	and	r3, r3, #255	; 0xff
  20b494:	e3530000 	cmp	r3, #0
  20b498:	0a000009 	beq	20b4c4 <check_buttons_status_function+0x60>
  20b49c:	e59f30cc 	ldr	r3, [pc, #204]	; 20b570 <check_buttons_status_function+0x10c>
  20b4a0:	e5933078 	ldr	r3, [r3, #120]	; 0x78
  20b4a4:	e50b300c 	str	r3, [fp, #-12]
  20b4a8:	e59f30c0 	ldr	r3, [pc, #192]	; 20b570 <check_buttons_status_function+0x10c>
  20b4ac:	e593207c 	ldr	r2, [r3, #124]	; 0x7c
  20b4b0:	e51b300c 	ldr	r3, [fp, #-12]
  20b4b4:	e1a00002 	mov	r0, r2
  20b4b8:	e1a0e00f 	mov	lr, pc
  20b4bc:	e12fff13 	bx	r3
  20b4c0:	ea000028 	b	20b568 <check_buttons_status_function+0x104>
  20b4c4:	e55b3005 	ldrb	r3, [fp, #-5]
  20b4c8:	e2033002 	and	r3, r3, #2
  20b4cc:	e3530000 	cmp	r3, #0
  20b4d0:	0a000009 	beq	20b4fc <check_buttons_status_function+0x98>
  20b4d4:	e59f3094 	ldr	r3, [pc, #148]	; 20b570 <check_buttons_status_function+0x10c>
  20b4d8:	e5933080 	ldr	r3, [r3, #128]	; 0x80
  20b4dc:	e50b300c 	str	r3, [fp, #-12]
  20b4e0:	e59f3088 	ldr	r3, [pc, #136]	; 20b570 <check_buttons_status_function+0x10c>
  20b4e4:	e5932084 	ldr	r2, [r3, #132]	; 0x84
  20b4e8:	e51b300c 	ldr	r3, [fp, #-12]
  20b4ec:	e1a00002 	mov	r0, r2
  20b4f0:	e1a0e00f 	mov	lr, pc
  20b4f4:	e12fff13 	bx	r3
  20b4f8:	ea00001a 	b	20b568 <check_buttons_status_function+0x104>
  20b4fc:	e55b3005 	ldrb	r3, [fp, #-5]
  20b500:	e2033004 	and	r3, r3, #4
  20b504:	e3530000 	cmp	r3, #0
  20b508:	0a000009 	beq	20b534 <check_buttons_status_function+0xd0>
  20b50c:	e59f305c 	ldr	r3, [pc, #92]	; 20b570 <check_buttons_status_function+0x10c>
  20b510:	e5933088 	ldr	r3, [r3, #136]	; 0x88
  20b514:	e50b300c 	str	r3, [fp, #-12]
  20b518:	e59f3050 	ldr	r3, [pc, #80]	; 20b570 <check_buttons_status_function+0x10c>
  20b51c:	e593208c 	ldr	r2, [r3, #140]	; 0x8c
  20b520:	e51b300c 	ldr	r3, [fp, #-12]
  20b524:	e1a00002 	mov	r0, r2
  20b528:	e1a0e00f 	mov	lr, pc
  20b52c:	e12fff13 	bx	r3
  20b530:	ea00000c 	b	20b568 <check_buttons_status_function+0x104>
  20b534:	e55b3005 	ldrb	r3, [fp, #-5]
  20b538:	e2033008 	and	r3, r3, #8
  20b53c:	e3530000 	cmp	r3, #0
  20b540:	0a000008 	beq	20b568 <check_buttons_status_function+0x104>
  20b544:	e59f3024 	ldr	r3, [pc, #36]	; 20b570 <check_buttons_status_function+0x10c>
  20b548:	e5933090 	ldr	r3, [r3, #144]	; 0x90
  20b54c:	e50b300c 	str	r3, [fp, #-12]
  20b550:	e59f3018 	ldr	r3, [pc, #24]	; 20b570 <check_buttons_status_function+0x10c>
  20b554:	e5932094 	ldr	r2, [r3, #148]	; 0x94
  20b558:	e51b300c 	ldr	r3, [fp, #-12]
  20b55c:	e1a00002 	mov	r0, r2
  20b560:	e1a0e00f 	mov	lr, pc
  20b564:	e12fff13 	bx	r3
  20b568:	e24bd004 	sub	sp, fp, #4
  20b56c:	e8bd8800 	pop	{fp, pc}
  20b570:	00203464 	.word	0x00203464

0020b574 <memcpy>:
  20b574:	e52db004 	push	{fp}		; (str fp, [sp, #-4]!)
  20b578:	e28db000 	add	fp, sp, #0
  20b57c:	e24dd020 	sub	sp, sp, #32
  20b580:	e50b0018 	str	r0, [fp, #-24]
  20b584:	e50b101c 	str	r1, [fp, #-28]
  20b588:	e50b2020 	str	r2, [fp, #-32]
  20b58c:	e51b3018 	ldr	r3, [fp, #-24]
  20b590:	e50b3004 	str	r3, [fp, #-4]
  20b594:	e51b301c 	ldr	r3, [fp, #-28]
  20b598:	e50b3008 	str	r3, [fp, #-8]
  20b59c:	e51b3020 	ldr	r3, [fp, #-32]
  20b5a0:	e50b3014 	str	r3, [fp, #-20]
  20b5a4:	e51b3014 	ldr	r3, [fp, #-20]
  20b5a8:	e353000f 	cmp	r3, #15
  20b5ac:	9a000059 	bls	20b718 <memcpy+0x1a4>
  20b5b0:	e51b2008 	ldr	r2, [fp, #-8]
  20b5b4:	e51b3004 	ldr	r3, [fp, #-4]
  20b5b8:	e1823003 	orr	r3, r2, r3
  20b5bc:	e2033003 	and	r3, r3, #3
  20b5c0:	e3530000 	cmp	r3, #0
  20b5c4:	1a000055 	bne	20b720 <memcpy+0x1ac>
  20b5c8:	e51b3004 	ldr	r3, [fp, #-4]
  20b5cc:	e50b300c 	str	r3, [fp, #-12]
  20b5d0:	e51b3008 	ldr	r3, [fp, #-8]
  20b5d4:	e50b3010 	str	r3, [fp, #-16]
  20b5d8:	ea00002a 	b	20b688 <memcpy+0x114>
  20b5dc:	e51b3010 	ldr	r3, [fp, #-16]
  20b5e0:	e5932000 	ldr	r2, [r3]
  20b5e4:	e51b300c 	ldr	r3, [fp, #-12]
  20b5e8:	e5832000 	str	r2, [r3]
  20b5ec:	e51b300c 	ldr	r3, [fp, #-12]
  20b5f0:	e2833004 	add	r3, r3, #4
  20b5f4:	e50b300c 	str	r3, [fp, #-12]
  20b5f8:	e51b3010 	ldr	r3, [fp, #-16]
  20b5fc:	e2833004 	add	r3, r3, #4
  20b600:	e50b3010 	str	r3, [fp, #-16]
  20b604:	e51b3010 	ldr	r3, [fp, #-16]
  20b608:	e5932000 	ldr	r2, [r3]
  20b60c:	e51b300c 	ldr	r3, [fp, #-12]
  20b610:	e5832000 	str	r2, [r3]
  20b614:	e51b300c 	ldr	r3, [fp, #-12]
  20b618:	e2833004 	add	r3, r3, #4
  20b61c:	e50b300c 	str	r3, [fp, #-12]
  20b620:	e51b3010 	ldr	r3, [fp, #-16]
  20b624:	e2833004 	add	r3, r3, #4
  20b628:	e50b3010 	str	r3, [fp, #-16]
  20b62c:	e51b3010 	ldr	r3, [fp, #-16]
  20b630:	e5932000 	ldr	r2, [r3]
  20b634:	e51b300c 	ldr	r3, [fp, #-12]
  20b638:	e5832000 	str	r2, [r3]
  20b63c:	e51b300c 	ldr	r3, [fp, #-12]
  20b640:	e2833004 	add	r3, r3, #4
  20b644:	e50b300c 	str	r3, [fp, #-12]
  20b648:	e51b3010 	ldr	r3, [fp, #-16]
  20b64c:	e2833004 	add	r3, r3, #4
  20b650:	e50b3010 	str	r3, [fp, #-16]
  20b654:	e51b3010 	ldr	r3, [fp, #-16]
  20b658:	e5932000 	ldr	r2, [r3]
  20b65c:	e51b300c 	ldr	r3, [fp, #-12]
  20b660:	e5832000 	str	r2, [r3]
  20b664:	e51b300c 	ldr	r3, [fp, #-12]
  20b668:	e2833004 	add	r3, r3, #4
  20b66c:	e50b300c 	str	r3, [fp, #-12]
  20b670:	e51b3010 	ldr	r3, [fp, #-16]
  20b674:	e2833004 	add	r3, r3, #4
  20b678:	e50b3010 	str	r3, [fp, #-16]
  20b67c:	e51b3014 	ldr	r3, [fp, #-20]
  20b680:	e2433010 	sub	r3, r3, #16
  20b684:	e50b3014 	str	r3, [fp, #-20]
  20b688:	e51b3014 	ldr	r3, [fp, #-20]
  20b68c:	e353000f 	cmp	r3, #15
  20b690:	8affffd1 	bhi	20b5dc <memcpy+0x68>
  20b694:	ea00000c 	b	20b6cc <memcpy+0x158>
  20b698:	e51b3010 	ldr	r3, [fp, #-16]
  20b69c:	e5932000 	ldr	r2, [r3]
  20b6a0:	e51b300c 	ldr	r3, [fp, #-12]
  20b6a4:	e5832000 	str	r2, [r3]
  20b6a8:	e51b300c 	ldr	r3, [fp, #-12]
  20b6ac:	e2833004 	add	r3, r3, #4
  20b6b0:	e50b300c 	str	r3, [fp, #-12]
  20b6b4:	e51b3010 	ldr	r3, [fp, #-16]
  20b6b8:	e2833004 	add	r3, r3, #4
  20b6bc:	e50b3010 	str	r3, [fp, #-16]
  20b6c0:	e51b3014 	ldr	r3, [fp, #-20]
  20b6c4:	e2433004 	sub	r3, r3, #4
  20b6c8:	e50b3014 	str	r3, [fp, #-20]
  20b6cc:	e51b3014 	ldr	r3, [fp, #-20]
  20b6d0:	e3530003 	cmp	r3, #3
  20b6d4:	8affffef 	bhi	20b698 <memcpy+0x124>
  20b6d8:	e51b300c 	ldr	r3, [fp, #-12]
  20b6dc:	e50b3004 	str	r3, [fp, #-4]
  20b6e0:	e51b3010 	ldr	r3, [fp, #-16]
  20b6e4:	e50b3008 	str	r3, [fp, #-8]
  20b6e8:	ea00000d 	b	20b724 <memcpy+0x1b0>
  20b6ec:	e51b3008 	ldr	r3, [fp, #-8]
  20b6f0:	e5d32000 	ldrb	r2, [r3]
  20b6f4:	e51b3004 	ldr	r3, [fp, #-4]
  20b6f8:	e5c32000 	strb	r2, [r3]
  20b6fc:	e51b3004 	ldr	r3, [fp, #-4]
  20b700:	e2833001 	add	r3, r3, #1
  20b704:	e50b3004 	str	r3, [fp, #-4]
  20b708:	e51b3008 	ldr	r3, [fp, #-8]
  20b70c:	e2833001 	add	r3, r3, #1
  20b710:	e50b3008 	str	r3, [fp, #-8]
  20b714:	ea000002 	b	20b724 <memcpy+0x1b0>
  20b718:	e1a00000 	nop			; (mov r0, r0)
  20b71c:	ea000000 	b	20b724 <memcpy+0x1b0>
  20b720:	e1a00000 	nop			; (mov r0, r0)
  20b724:	e51b3014 	ldr	r3, [fp, #-20]
  20b728:	e3530000 	cmp	r3, #0
  20b72c:	03a03000 	moveq	r3, #0
  20b730:	13a03001 	movne	r3, #1
  20b734:	e20330ff 	and	r3, r3, #255	; 0xff
  20b738:	e51b2014 	ldr	r2, [fp, #-20]
  20b73c:	e2422001 	sub	r2, r2, #1
  20b740:	e50b2014 	str	r2, [fp, #-20]
  20b744:	e3530000 	cmp	r3, #0
  20b748:	1affffe7 	bne	20b6ec <memcpy+0x178>
  20b74c:	e51b3018 	ldr	r3, [fp, #-24]
  20b750:	e1a00003 	mov	r0, r3
  20b754:	e28bd000 	add	sp, fp, #0
  20b758:	e8bd0800 	pop	{fp}
  20b75c:	e12fff1e 	bx	lr

0020b760 <memset>:
  20b760:	e52db004 	push	{fp}		; (str fp, [sp, #-4]!)
  20b764:	e28db000 	add	fp, sp, #0
  20b768:	e24dd020 	sub	sp, sp, #32
  20b76c:	e50b0018 	str	r0, [fp, #-24]
  20b770:	e50b101c 	str	r1, [fp, #-28]
  20b774:	e50b2020 	str	r2, [fp, #-32]
  20b778:	e51b3018 	ldr	r3, [fp, #-24]
  20b77c:	e50b3004 	str	r3, [fp, #-4]
  20b780:	e51b301c 	ldr	r3, [fp, #-28]
  20b784:	e20330ff 	and	r3, r3, #255	; 0xff
  20b788:	e50b3014 	str	r3, [fp, #-20]
  20b78c:	ea000013 	b	20b7e0 <memset+0x80>
  20b790:	e51b3020 	ldr	r3, [fp, #-32]
  20b794:	e3530000 	cmp	r3, #0
  20b798:	03a03000 	moveq	r3, #0
  20b79c:	13a03001 	movne	r3, #1
  20b7a0:	e20330ff 	and	r3, r3, #255	; 0xff
  20b7a4:	e51b2020 	ldr	r2, [fp, #-32]
  20b7a8:	e2422001 	sub	r2, r2, #1
  20b7ac:	e50b2020 	str	r2, [fp, #-32]
  20b7b0:	e3530000 	cmp	r3, #0
  20b7b4:	0a000007 	beq	20b7d8 <memset+0x78>
  20b7b8:	e51b301c 	ldr	r3, [fp, #-28]
  20b7bc:	e20320ff 	and	r2, r3, #255	; 0xff
  20b7c0:	e51b3004 	ldr	r3, [fp, #-4]
  20b7c4:	e5c32000 	strb	r2, [r3]
  20b7c8:	e51b3004 	ldr	r3, [fp, #-4]
  20b7cc:	e2833001 	add	r3, r3, #1
  20b7d0:	e50b3004 	str	r3, [fp, #-4]
  20b7d4:	ea000001 	b	20b7e0 <memset+0x80>
  20b7d8:	e51b3018 	ldr	r3, [fp, #-24]
  20b7dc:	ea000064 	b	20b974 <memset+0x214>
  20b7e0:	e51b3004 	ldr	r3, [fp, #-4]
  20b7e4:	e2033003 	and	r3, r3, #3
  20b7e8:	e3530000 	cmp	r3, #0
  20b7ec:	1affffe7 	bne	20b790 <memset+0x30>
  20b7f0:	e51b3020 	ldr	r3, [fp, #-32]
  20b7f4:	e3530003 	cmp	r3, #3
  20b7f8:	9a000051 	bls	20b944 <memset+0x1e4>
  20b7fc:	e51b3004 	ldr	r3, [fp, #-4]
  20b800:	e50b3010 	str	r3, [fp, #-16]
  20b804:	e51b3014 	ldr	r3, [fp, #-20]
  20b808:	e1a02403 	lsl	r2, r3, #8
  20b80c:	e51b3014 	ldr	r3, [fp, #-20]
  20b810:	e1823003 	orr	r3, r2, r3
  20b814:	e50b300c 	str	r3, [fp, #-12]
  20b818:	e51b300c 	ldr	r3, [fp, #-12]
  20b81c:	e1a03803 	lsl	r3, r3, #16
  20b820:	e51b200c 	ldr	r2, [fp, #-12]
  20b824:	e1823003 	orr	r3, r2, r3
  20b828:	e50b300c 	str	r3, [fp, #-12]
  20b82c:	e3a03020 	mov	r3, #32
  20b830:	e50b3008 	str	r3, [fp, #-8]
  20b834:	ea000008 	b	20b85c <memset+0xfc>
  20b838:	e51b200c 	ldr	r2, [fp, #-12]
  20b83c:	e51b3008 	ldr	r3, [fp, #-8]
  20b840:	e1a03312 	lsl	r3, r2, r3
  20b844:	e51b200c 	ldr	r2, [fp, #-12]
  20b848:	e1823003 	orr	r3, r2, r3
  20b84c:	e50b300c 	str	r3, [fp, #-12]
  20b850:	e51b3008 	ldr	r3, [fp, #-8]
  20b854:	e1a03083 	lsl	r3, r3, #1
  20b858:	e50b3008 	str	r3, [fp, #-8]
  20b85c:	e51b3008 	ldr	r3, [fp, #-8]
  20b860:	e353001f 	cmp	r3, #31
  20b864:	9afffff3 	bls	20b838 <memset+0xd8>
  20b868:	ea00001a 	b	20b8d8 <memset+0x178>
  20b86c:	e51b3010 	ldr	r3, [fp, #-16]
  20b870:	e51b200c 	ldr	r2, [fp, #-12]
  20b874:	e5832000 	str	r2, [r3]
  20b878:	e51b3010 	ldr	r3, [fp, #-16]
  20b87c:	e2833004 	add	r3, r3, #4
  20b880:	e50b3010 	str	r3, [fp, #-16]
  20b884:	e51b3010 	ldr	r3, [fp, #-16]
  20b888:	e51b200c 	ldr	r2, [fp, #-12]
  20b88c:	e5832000 	str	r2, [r3]
  20b890:	e51b3010 	ldr	r3, [fp, #-16]
  20b894:	e2833004 	add	r3, r3, #4
  20b898:	e50b3010 	str	r3, [fp, #-16]
  20b89c:	e51b3010 	ldr	r3, [fp, #-16]
  20b8a0:	e51b200c 	ldr	r2, [fp, #-12]
  20b8a4:	e5832000 	str	r2, [r3]
  20b8a8:	e51b3010 	ldr	r3, [fp, #-16]
  20b8ac:	e2833004 	add	r3, r3, #4
  20b8b0:	e50b3010 	str	r3, [fp, #-16]
  20b8b4:	e51b3010 	ldr	r3, [fp, #-16]
  20b8b8:	e51b200c 	ldr	r2, [fp, #-12]
  20b8bc:	e5832000 	str	r2, [r3]
  20b8c0:	e51b3010 	ldr	r3, [fp, #-16]
  20b8c4:	e2833004 	add	r3, r3, #4
  20b8c8:	e50b3010 	str	r3, [fp, #-16]
  20b8cc:	e51b3020 	ldr	r3, [fp, #-32]
  20b8d0:	e2433010 	sub	r3, r3, #16
  20b8d4:	e50b3020 	str	r3, [fp, #-32]
  20b8d8:	e51b3020 	ldr	r3, [fp, #-32]
  20b8dc:	e353000f 	cmp	r3, #15
  20b8e0:	8affffe1 	bhi	20b86c <memset+0x10c>
  20b8e4:	ea000008 	b	20b90c <memset+0x1ac>
  20b8e8:	e51b3010 	ldr	r3, [fp, #-16]
  20b8ec:	e51b200c 	ldr	r2, [fp, #-12]
  20b8f0:	e5832000 	str	r2, [r3]
  20b8f4:	e51b3010 	ldr	r3, [fp, #-16]
  20b8f8:	e2833004 	add	r3, r3, #4
  20b8fc:	e50b3010 	str	r3, [fp, #-16]
  20b900:	e51b3020 	ldr	r3, [fp, #-32]
  20b904:	e2433004 	sub	r3, r3, #4
  20b908:	e50b3020 	str	r3, [fp, #-32]
  20b90c:	e51b3020 	ldr	r3, [fp, #-32]
  20b910:	e3530003 	cmp	r3, #3
  20b914:	8afffff3 	bhi	20b8e8 <memset+0x188>
  20b918:	e51b3010 	ldr	r3, [fp, #-16]
  20b91c:	e50b3004 	str	r3, [fp, #-4]
  20b920:	ea000008 	b	20b948 <memset+0x1e8>
  20b924:	e51b301c 	ldr	r3, [fp, #-28]
  20b928:	e20320ff 	and	r2, r3, #255	; 0xff
  20b92c:	e51b3004 	ldr	r3, [fp, #-4]
  20b930:	e5c32000 	strb	r2, [r3]
  20b934:	e51b3004 	ldr	r3, [fp, #-4]
  20b938:	e2833001 	add	r3, r3, #1
  20b93c:	e50b3004 	str	r3, [fp, #-4]
  20b940:	ea000000 	b	20b948 <memset+0x1e8>
  20b944:	e1a00000 	nop			; (mov r0, r0)
  20b948:	e51b3020 	ldr	r3, [fp, #-32]
  20b94c:	e3530000 	cmp	r3, #0
  20b950:	03a03000 	moveq	r3, #0
  20b954:	13a03001 	movne	r3, #1
  20b958:	e20330ff 	and	r3, r3, #255	; 0xff
  20b95c:	e51b2020 	ldr	r2, [fp, #-32]
  20b960:	e2422001 	sub	r2, r2, #1
  20b964:	e50b2020 	str	r2, [fp, #-32]
  20b968:	e3530000 	cmp	r3, #0
  20b96c:	1affffec 	bne	20b924 <memset+0x1c4>
  20b970:	e51b3018 	ldr	r3, [fp, #-24]
  20b974:	e1a00003 	mov	r0, r3
  20b978:	e28bd000 	add	sp, fp, #0
  20b97c:	e8bd0800 	pop	{fp}
  20b980:	e12fff1e 	bx	lr

0020b984 <srand>:
  20b984:	e92d0810 	push	{r4, fp}
  20b988:	e28db004 	add	fp, sp, #4
  20b98c:	e24dd004 	sub	sp, sp, #4
  20b990:	e50b0008 	str	r0, [fp, #-8]
  20b994:	e59f301c 	ldr	r3, [pc, #28]	; 20b9b8 <srand+0x34>
  20b998:	e5932000 	ldr	r2, [r3]
  20b99c:	e51b3008 	ldr	r3, [fp, #-8]
  20b9a0:	e3a04000 	mov	r4, #0
  20b9a4:	e58230a4 	str	r3, [r2, #164]	; 0xa4
  20b9a8:	e58240a8 	str	r4, [r2, #168]	; 0xa8
  20b9ac:	e24bd004 	sub	sp, fp, #4
  20b9b0:	e8bd0810 	pop	{r4, fp}
  20b9b4:	e12fff1e 	bx	lr
  20b9b8:	0020bf24 	.word	0x0020bf24

0020b9bc <rand>:
  20b9bc:	e92d08f0 	push	{r4, r5, r6, r7, fp}
  20b9c0:	e28db010 	add	fp, sp, #16
  20b9c4:	e59f307c 	ldr	r3, [pc, #124]	; 20ba48 <rand+0x8c>
  20b9c8:	e593c000 	ldr	ip, [r3]
  20b9cc:	e59f3074 	ldr	r3, [pc, #116]	; 20ba48 <rand+0x8c>
  20b9d0:	e5933000 	ldr	r3, [r3]
  20b9d4:	e28320a4 	add	r2, r3, #164	; 0xa4
  20b9d8:	e8920006 	ldm	r2, {r1, r2}
  20b9dc:	e59f3068 	ldr	r3, [pc, #104]	; 20ba4c <rand+0x90>
  20b9e0:	e0000293 	mul	r0, r3, r2
  20b9e4:	e59f3064 	ldr	r3, [pc, #100]	; 20ba50 <rand+0x94>
  20b9e8:	e0030391 	mul	r3, r1, r3
  20b9ec:	e0800003 	add	r0, r0, r3
  20b9f0:	e59f7054 	ldr	r7, [pc, #84]	; 20ba4c <rand+0x90>
  20b9f4:	e0843791 	umull	r3, r4, r1, r7
  20b9f8:	e0800004 	add	r0, r0, r4
  20b9fc:	e1a04000 	mov	r4, r0
  20ba00:	e3a01001 	mov	r1, #1
  20ba04:	e3a02000 	mov	r2, #0
  20ba08:	e0933001 	adds	r3, r3, r1
  20ba0c:	e0a44002 	adc	r4, r4, r2
  20ba10:	e58c30a4 	str	r3, [ip, #164]	; 0xa4
  20ba14:	e58c40a8 	str	r4, [ip, #168]	; 0xa8
  20ba18:	e59f3028 	ldr	r3, [pc, #40]	; 20ba48 <rand+0x8c>
  20ba1c:	e5933000 	ldr	r3, [r3]
  20ba20:	e28340a4 	add	r4, r3, #164	; 0xa4
  20ba24:	e8940018 	ldm	r4, {r3, r4}
  20ba28:	e1a05004 	mov	r5, r4
  20ba2c:	e3a06000 	mov	r6, #0
  20ba30:	e1a03005 	mov	r3, r5
  20ba34:	e3c33102 	bic	r3, r3, #-2147483648	; 0x80000000
  20ba38:	e1a00003 	mov	r0, r3
  20ba3c:	e24bd010 	sub	sp, fp, #16
  20ba40:	e8bd08f0 	pop	{r4, r5, r6, r7, fp}
  20ba44:	e12fff1e 	bx	lr
  20ba48:	0020bf24 	.word	0x0020bf24
  20ba4c:	4c957f2d 	.word	0x4c957f2d
  20ba50:	5851f42d 	.word	0x5851f42d

0020ba54 <strlen>:
  20ba54:	e3c01003 	bic	r1, r0, #3
  20ba58:	e2100003 	ands	r0, r0, #3
  20ba5c:	e2600000 	rsb	r0, r0, #0
  20ba60:	e4913004 	ldr	r3, [r1], #4
  20ba64:	e280c004 	add	ip, r0, #4
  20ba68:	e1a0c18c 	lsl	ip, ip, #3
  20ba6c:	e3e02000 	mvn	r2, #0
  20ba70:	11833c32 	orrne	r3, r3, r2, lsr ip
  20ba74:	e3a0c001 	mov	ip, #1
  20ba78:	e18cc40c 	orr	ip, ip, ip, lsl #8
  20ba7c:	e18cc80c 	orr	ip, ip, ip, lsl #16
  20ba80:	e043200c 	sub	r2, r3, ip
  20ba84:	e1c22003 	bic	r2, r2, r3
  20ba88:	e012238c 	ands	r2, r2, ip, lsl #7
  20ba8c:	04913004 	ldreq	r3, [r1], #4
  20ba90:	02800004 	addeq	r0, r0, #4
  20ba94:	0afffff9 	beq	20ba80 <strlen+0x2c>
  20ba98:	e31300ff 	tst	r3, #255	; 0xff
  20ba9c:	12800001 	addne	r0, r0, #1
  20baa0:	13130cff 	tstne	r3, #65280	; 0xff00
  20baa4:	12800001 	addne	r0, r0, #1
  20baa8:	131308ff 	tstne	r3, #16711680	; 0xff0000
  20baac:	12800001 	addne	r0, r0, #1
  20bab0:	e12fff1e 	bx	lr
  20bab4:	e1a00003 	mov	r0, r3
	...

Disassembly of section .comment:

0020ce48 <.comment>:
  20ce48:	3a434347 	bcc	12ddb6c <__data_ram_end__+0x10d0d24>
  20ce4c:	4e472820 	cdpmi	8, 4, cr2, cr7, cr0, {1}
  20ce50:	34202955 	strtcc	r2, [r0], #-2389	; 0x955
  20ce54:	312e352e 	teqcc	lr, lr, lsr #10
	...
